SF:/app/src/audio/aac_encoder.rs
FN:108,_RNvMNtNtCslUrB7RWuRKg_8airplay25audio11aac_encoderNtB2_10AacEncoder16get_frame_length
FN:36,_RNvMNtNtCslUrB7RWuRKg_8airplay25audio11aac_encoderNtB2_10AacEncoder3new
FN:75,_RNvMNtNtCslUrB7RWuRKg_8airplay25audio11aac_encoderNtB2_10AacEncoder6encode
FN:92,_RNvMNtNtCslUrB7RWuRKg_8airplay25audio11aac_encoderNtB2_10AacEncoder7get_asc
FN:108,_RNvMNtNtCs41oluKY1Omx_8airplay25audio11aac_encoderNtB2_10AacEncoder16get_frame_length
FN:36,_RNvMNtNtCs41oluKY1Omx_8airplay25audio11aac_encoderNtB2_10AacEncoder3new
FN:75,_RNvMNtNtCs41oluKY1Omx_8airplay25audio11aac_encoderNtB2_10AacEncoder6encode
FN:92,_RNvMNtNtCs41oluKY1Omx_8airplay25audio11aac_encoderNtB2_10AacEncoder7get_asc
FNDA:0,_RNvMNtNtCslUrB7RWuRKg_8airplay25audio11aac_encoderNtB2_10AacEncoder16get_frame_length
FNDA:0,_RNvMNtNtCslUrB7RWuRKg_8airplay25audio11aac_encoderNtB2_10AacEncoder3new
FNDA:0,_RNvMNtNtCslUrB7RWuRKg_8airplay25audio11aac_encoderNtB2_10AacEncoder6encode
FNDA:0,_RNvMNtNtCslUrB7RWuRKg_8airplay25audio11aac_encoderNtB2_10AacEncoder7get_asc
FNDA:0,_RNvMNtNtCs41oluKY1Omx_8airplay25audio11aac_encoderNtB2_10AacEncoder16get_frame_length
FNDA:4,_RNvMNtNtCs41oluKY1Omx_8airplay25audio11aac_encoderNtB2_10AacEncoder3new
FNDA:4,_RNvMNtNtCs41oluKY1Omx_8airplay25audio11aac_encoderNtB2_10AacEncoder6encode
FNDA:0,_RNvMNtNtCs41oluKY1Omx_8airplay25audio11aac_encoderNtB2_10AacEncoder7get_asc
FNF:4
FNH:2
DA:36,4
DA:37,4
DA:38,4
DA:39,4
DA:40,4
DA:41,4
DA:42,3
DA:43,4
DA:44,4
DA:45,4
DA:46,4
DA:47,1
DA:48,2
DA:49,1
DA:51,3
DA:54,3
DA:58,3
DA:60,3
DA:61,3
DA:62,3
DA:63,3
DA:64,4
DA:75,4
DA:76,4
DA:77,4
DA:78,4
DA:79,4
DA:81,4
DA:82,4
DA:84,0
DA:86,4
DA:92,0
DA:93,0
DA:94,0
DA:97,0
DA:98,0
DA:99,0
DA:100,0
DA:101,0
DA:102,0
DA:103,0
DA:104,0
DA:108,0
DA:109,0
DA:110,0
BRF:0
BRH:0
LF:45
LH:30
end_of_record
SF:/app/src/audio/buffer.rs
FN:93,_RNvMNtNtCslUrB7RWuRKg_8airplay25audio6bufferNtB2_15AudioRingBuffer15is_underrunning
FN:48,_RNvMNtNtCslUrB7RWuRKg_8airplay25audio6bufferNtB2_15AudioRingBuffer15with_watermarks
FN:31,_RNvMNtNtCslUrB7RWuRKg_8airplay25audio6bufferNtB2_15AudioRingBuffer3new
FN:78,_RNvMNtNtCslUrB7RWuRKg_8airplay25audio6bufferNtB2_15AudioRingBuffer4free
FN:176,_RNvMNtNtCslUrB7RWuRKg_8airplay25audio6bufferNtB2_15AudioRingBuffer4peek
FN:146,_RNvMNtNtCslUrB7RWuRKg_8airplay25audio6bufferNtB2_15AudioRingBuffer4read
FN:202,_RNvMNtNtCslUrB7RWuRKg_8airplay25audio6bufferNtB2_15AudioRingBuffer4skip
FN:214,_RNvMNtNtCslUrB7RWuRKg_8airplay25audio6bufferNtB2_15AudioRingBuffer5clear
FN:109,_RNvMNtNtCslUrB7RWuRKg_8airplay25audio6bufferNtB2_15AudioRingBuffer5write
FN:88,_RNvMNtNtCslUrB7RWuRKg_8airplay25audio6bufferNtB2_15AudioRingBuffer7is_full
FN:61,_RNvMNtNtCslUrB7RWuRKg_8airplay25audio6bufferNtB2_15AudioRingBuffer8capacity
FN:83,_RNvMNtNtCslUrB7RWuRKg_8airplay25audio6bufferNtB2_15AudioRingBuffer8is_empty
FN:98,_RNvMNtNtCslUrB7RWuRKg_8airplay25audio6bufferNtB2_15AudioRingBuffer8is_ready
FN:66,_RNvMNtNtCslUrB7RWuRKg_8airplay25audio6bufferNtB2_15AudioRingBuffer9available
FN:48,_RNvMNtNtCs41oluKY1Omx_8airplay25audio6bufferNtB2_15AudioRingBuffer15with_watermarks
FN:202,_RNvMNtNtCs41oluKY1Omx_8airplay25audio6bufferNtB2_15AudioRingBuffer4skip
FN:88,_RNvMNtNtCs41oluKY1Omx_8airplay25audio6bufferNtB2_15AudioRingBuffer7is_full
FN:83,_RNvMNtNtCs41oluKY1Omx_8airplay25audio6bufferNtB2_15AudioRingBuffer8is_empty
FN:93,_RNvMNtNtCs41oluKY1Omx_8airplay25audio6bufferNtB2_15AudioRingBuffer15is_underrunning
FN:31,_RNvMNtNtCs41oluKY1Omx_8airplay25audio6bufferNtB2_15AudioRingBuffer3new
FN:78,_RNvMNtNtCs41oluKY1Omx_8airplay25audio6bufferNtB2_15AudioRingBuffer4free
FN:176,_RNvMNtNtCs41oluKY1Omx_8airplay25audio6bufferNtB2_15AudioRingBuffer4peek
FN:146,_RNvMNtNtCs41oluKY1Omx_8airplay25audio6bufferNtB2_15AudioRingBuffer4read
FN:214,_RNvMNtNtCs41oluKY1Omx_8airplay25audio6bufferNtB2_15AudioRingBuffer5clear
FN:109,_RNvMNtNtCs41oluKY1Omx_8airplay25audio6bufferNtB2_15AudioRingBuffer5write
FN:61,_RNvMNtNtCs41oluKY1Omx_8airplay25audio6bufferNtB2_15AudioRingBuffer8capacity
FN:98,_RNvMNtNtCs41oluKY1Omx_8airplay25audio6bufferNtB2_15AudioRingBuffer8is_ready
FN:66,_RNvMNtNtCs41oluKY1Omx_8airplay25audio6bufferNtB2_15AudioRingBuffer9available
FNDA:0,_RNvMNtNtCslUrB7RWuRKg_8airplay25audio6bufferNtB2_15AudioRingBuffer15is_underrunning
FNDA:0,_RNvMNtNtCslUrB7RWuRKg_8airplay25audio6bufferNtB2_15AudioRingBuffer15with_watermarks
FNDA:0,_RNvMNtNtCslUrB7RWuRKg_8airplay25audio6bufferNtB2_15AudioRingBuffer3new
FNDA:0,_RNvMNtNtCslUrB7RWuRKg_8airplay25audio6bufferNtB2_15AudioRingBuffer4free
FNDA:0,_RNvMNtNtCslUrB7RWuRKg_8airplay25audio6bufferNtB2_15AudioRingBuffer4peek
FNDA:0,_RNvMNtNtCslUrB7RWuRKg_8airplay25audio6bufferNtB2_15AudioRingBuffer4read
FNDA:0,_RNvMNtNtCslUrB7RWuRKg_8airplay25audio6bufferNtB2_15AudioRingBuffer4skip
FNDA:0,_RNvMNtNtCslUrB7RWuRKg_8airplay25audio6bufferNtB2_15AudioRingBuffer5clear
FNDA:0,_RNvMNtNtCslUrB7RWuRKg_8airplay25audio6bufferNtB2_15AudioRingBuffer5write
FNDA:0,_RNvMNtNtCslUrB7RWuRKg_8airplay25audio6bufferNtB2_15AudioRingBuffer7is_full
FNDA:0,_RNvMNtNtCslUrB7RWuRKg_8airplay25audio6bufferNtB2_15AudioRingBuffer8capacity
FNDA:0,_RNvMNtNtCslUrB7RWuRKg_8airplay25audio6bufferNtB2_15AudioRingBuffer8is_empty
FNDA:0,_RNvMNtNtCslUrB7RWuRKg_8airplay25audio6bufferNtB2_15AudioRingBuffer8is_ready
FNDA:0,_RNvMNtNtCslUrB7RWuRKg_8airplay25audio6bufferNtB2_15AudioRingBuffer9available
FNDA:0,_RNvMNtNtCs41oluKY1Omx_8airplay25audio6bufferNtB2_15AudioRingBuffer15with_watermarks
FNDA:0,_RNvMNtNtCs41oluKY1Omx_8airplay25audio6bufferNtB2_15AudioRingBuffer4skip
FNDA:0,_RNvMNtNtCs41oluKY1Omx_8airplay25audio6bufferNtB2_15AudioRingBuffer7is_full
FNDA:0,_RNvMNtNtCs41oluKY1Omx_8airplay25audio6bufferNtB2_15AudioRingBuffer8is_empty
FNDA:10036,_RNvMNtNtCs41oluKY1Omx_8airplay25audio6bufferNtB2_15AudioRingBuffer15is_underrunning
FNDA:13,_RNvMNtNtCs41oluKY1Omx_8airplay25audio6bufferNtB2_15AudioRingBuffer3new
FNDA:294212,_RNvMNtNtCs41oluKY1Omx_8airplay25audio6bufferNtB2_15AudioRingBuffer4free
FNDA:1,_RNvMNtNtCs41oluKY1Omx_8airplay25audio6bufferNtB2_15AudioRingBuffer4peek
FNDA:382584,_RNvMNtNtCs41oluKY1Omx_8airplay25audio6bufferNtB2_15AudioRingBuffer4read
FNDA:0,_RNvMNtNtCs41oluKY1Omx_8airplay25audio6bufferNtB2_15AudioRingBuffer5clear
FNDA:292761,_RNvMNtNtCs41oluKY1Omx_8airplay25audio6bufferNtB2_15AudioRingBuffer5write
FNDA:0,_RNvMNtNtCs41oluKY1Omx_8airplay25audio6bufferNtB2_15AudioRingBuffer8capacity
FNDA:61,_RNvMNtNtCs41oluKY1Omx_8airplay25audio6bufferNtB2_15AudioRingBuffer8is_ready
FNDA:688403,_RNvMNtNtCs41oluKY1Omx_8airplay25audio6bufferNtB2_15AudioRingBuffer9available
FNF:14
FNH:8
DA:31,13
DA:32,13
DA:33,13
DA:34,13
DA:35,13
DA:36,13
DA:37,13
DA:38,13
DA:39,13
DA:40,13
DA:48,0
DA:49,0
DA:50,0
DA:51,0
DA:52,0
DA:53,0
DA:54,0
DA:55,0
DA:56,0
DA:57,0
DA:58,0
DA:61,0
DA:62,0
DA:63,0
DA:66,688403
DA:67,688403
DA:68,688403
DA:70,688403
DA:71,400652
DA:73,287751
DA:75,688403
DA:78,294212
DA:79,294212
DA:80,294212
DA:83,0
DA:84,0
DA:85,0
DA:88,0
DA:89,0
DA:90,0
DA:93,10036
DA:94,10036
DA:95,10036
DA:98,61
DA:99,61
DA:100,61
DA:109,292761
DA:110,292761
DA:111,292761
DA:113,292761
DA:114,231989
DA:115,60772
DA:117,60772
DA:124,60772
DA:126,60772
DA:127,60772
DA:130,60772
DA:132,60772
DA:133,1013
DA:134,59759
DA:137,60772
DA:138,60772
DA:140,60772
DA:141,292761
DA:146,382584
DA:147,382584
DA:148,382584
DA:150,382584
DA:151,326743
DA:152,55841
DA:154,55841
DA:156,55841
DA:157,55841
DA:161,55841
DA:163,55841
DA:165,55841
DA:166,1016
DA:167,54825
DA:169,55841
DA:170,55841
DA:172,55841
DA:173,382584
DA:176,1
DA:177,1
DA:178,1
DA:180,1
DA:181,0
DA:182,1
DA:184,1
DA:186,1
DA:187,1
DA:190,1
DA:192,1
DA:194,1
DA:195,0
DA:196,1
DA:198,1
DA:199,1
DA:202,0
DA:203,0
DA:204,0
DA:206,0
DA:207,0
DA:208,0
DA:210,0
DA:211,0
DA:214,0
DA:215,0
DA:216,0
DA:217,0
BRF:0
BRH:0
LF:110
LH:76
end_of_record
SF:/app/src/audio/clock.rs
FN:59,_RNvMNtNtCslUrB7RWuRKg_8airplay25audio5clockNtB2_10AudioClock10set_offset
FN:92,_RNvMNtNtCslUrB7RWuRKg_8airplay25audio5clockNtB2_10AudioClock12rtp_to_local
FN:54,_RNvMNtNtCslUrB7RWuRKg_8airplay25audio5clockNtB2_10AudioClock12set_position
FN:43,_RNvMNtNtCslUrB7RWuRKg_8airplay25audio5clockNtB2_10AudioClock13time_position
FN:106,_RNvMNtNtCslUrB7RWuRKg_8airplay25audio5clockNtB2_10AudioClock15calculate_drift
FN:83,_RNvMNtNtCslUrB7RWuRKg_8airplay25audio5clockNtB2_10AudioClock18duration_to_frames
FN:73,_RNvMNtNtCslUrB7RWuRKg_8airplay25audio5clockNtB2_10AudioClock18frames_to_duration
FN:23,_RNvMNtNtCslUrB7RWuRKg_8airplay25audio5clockNtB2_10AudioClock3new
FN:119,_RNvMNtNtCslUrB7RWuRKg_8airplay25audio5clockNtB2_10AudioClock5reset
FN:64,_RNvMNtNtCslUrB7RWuRKg_8airplay25audio5clockNtB2_10AudioClock6offset
FN:49,_RNvMNtNtCslUrB7RWuRKg_8airplay25audio5clockNtB2_10AudioClock7advance
FN:34,_RNvMNtNtCslUrB7RWuRKg_8airplay25audio5clockNtB2_10AudioClock8position
FN:157,_RNvMs_NtNtCslUrB7RWuRKg_8airplay25audio5clockNtB4_10TimingSync13update_timing
FN:142,_RNvMs_NtNtCslUrB7RWuRKg_8airplay25audio5clockNtB4_10TimingSync3new
FN:179,_RNvMs_NtNtCslUrB7RWuRKg_8airplay25audio5clockNtB4_10TimingSync3rtt
FN:169,_RNvMs_NtNtCslUrB7RWuRKg_8airplay25audio5clockNtB4_10TimingSync5clock
FN:174,_RNvMs_NtNtCslUrB7RWuRKg_8airplay25audio5clockNtB4_10TimingSync6offset
FN:184,_RNvMs_NtNtCslUrB7RWuRKg_8airplay25audio5clockNtB4_10TimingSync7quality
FN:59,_RNvMNtNtCs41oluKY1Omx_8airplay25audio5clockNtB2_10AudioClock10set_offset
FN:92,_RNvMNtNtCs41oluKY1Omx_8airplay25audio5clockNtB2_10AudioClock12rtp_to_local
FN:54,_RNvMNtNtCs41oluKY1Omx_8airplay25audio5clockNtB2_10AudioClock12set_position
FN:106,_RNvMNtNtCs41oluKY1Omx_8airplay25audio5clockNtB2_10AudioClock15calculate_drift
FN:119,_RNvMNtNtCs41oluKY1Omx_8airplay25audio5clockNtB2_10AudioClock5reset
FN:64,_RNvMNtNtCs41oluKY1Omx_8airplay25audio5clockNtB2_10AudioClock6offset
FN:157,_RNvMs_NtNtCs41oluKY1Omx_8airplay25audio5clockNtB4_10TimingSync13update_timing
FN:142,_RNvMs_NtNtCs41oluKY1Omx_8airplay25audio5clockNtB4_10TimingSync3new
FN:179,_RNvMs_NtNtCs41oluKY1Omx_8airplay25audio5clockNtB4_10TimingSync3rtt
FN:169,_RNvMs_NtNtCs41oluKY1Omx_8airplay25audio5clockNtB4_10TimingSync5clock
FN:174,_RNvMs_NtNtCs41oluKY1Omx_8airplay25audio5clockNtB4_10TimingSync6offset
FN:184,_RNvMs_NtNtCs41oluKY1Omx_8airplay25audio5clockNtB4_10TimingSync7quality
FN:43,_RNvMNtNtCs41oluKY1Omx_8airplay25audio5clockNtB2_10AudioClock13time_position
FN:83,_RNvMNtNtCs41oluKY1Omx_8airplay25audio5clockNtB2_10AudioClock18duration_to_frames
FN:73,_RNvMNtNtCs41oluKY1Omx_8airplay25audio5clockNtB2_10AudioClock18frames_to_duration
FN:23,_RNvMNtNtCs41oluKY1Omx_8airplay25audio5clockNtB2_10AudioClock3new
FN:49,_RNvMNtNtCs41oluKY1Omx_8airplay25audio5clockNtB2_10AudioClock7advance
FN:34,_RNvMNtNtCs41oluKY1Omx_8airplay25audio5clockNtB2_10AudioClock8position
FNDA:0,_RNvMNtNtCslUrB7RWuRKg_8airplay25audio5clockNtB2_10AudioClock10set_offset
FNDA:0,_RNvMNtNtCslUrB7RWuRKg_8airplay25audio5clockNtB2_10AudioClock12rtp_to_local
FNDA:0,_RNvMNtNtCslUrB7RWuRKg_8airplay25audio5clockNtB2_10AudioClock12set_position
FNDA:0,_RNvMNtNtCslUrB7RWuRKg_8airplay25audio5clockNtB2_10AudioClock13time_position
FNDA:0,_RNvMNtNtCslUrB7RWuRKg_8airplay25audio5clockNtB2_10AudioClock15calculate_drift
FNDA:0,_RNvMNtNtCslUrB7RWuRKg_8airplay25audio5clockNtB2_10AudioClock18duration_to_frames
FNDA:0,_RNvMNtNtCslUrB7RWuRKg_8airplay25audio5clockNtB2_10AudioClock18frames_to_duration
FNDA:0,_RNvMNtNtCslUrB7RWuRKg_8airplay25audio5clockNtB2_10AudioClock3new
FNDA:0,_RNvMNtNtCslUrB7RWuRKg_8airplay25audio5clockNtB2_10AudioClock5reset
FNDA:0,_RNvMNtNtCslUrB7RWuRKg_8airplay25audio5clockNtB2_10AudioClock6offset
FNDA:0,_RNvMNtNtCslUrB7RWuRKg_8airplay25audio5clockNtB2_10AudioClock7advance
FNDA:0,_RNvMNtNtCslUrB7RWuRKg_8airplay25audio5clockNtB2_10AudioClock8position
FNDA:0,_RNvMs_NtNtCslUrB7RWuRKg_8airplay25audio5clockNtB4_10TimingSync13update_timing
FNDA:0,_RNvMs_NtNtCslUrB7RWuRKg_8airplay25audio5clockNtB4_10TimingSync3new
FNDA:0,_RNvMs_NtNtCslUrB7RWuRKg_8airplay25audio5clockNtB4_10TimingSync3rtt
FNDA:0,_RNvMs_NtNtCslUrB7RWuRKg_8airplay25audio5clockNtB4_10TimingSync5clock
FNDA:0,_RNvMs_NtNtCslUrB7RWuRKg_8airplay25audio5clockNtB4_10TimingSync6offset
FNDA:0,_RNvMs_NtNtCslUrB7RWuRKg_8airplay25audio5clockNtB4_10TimingSync7quality
FNDA:0,_RNvMNtNtCs41oluKY1Omx_8airplay25audio5clockNtB2_10AudioClock10set_offset
FNDA:0,_RNvMNtNtCs41oluKY1Omx_8airplay25audio5clockNtB2_10AudioClock12rtp_to_local
FNDA:0,_RNvMNtNtCs41oluKY1Omx_8airplay25audio5clockNtB2_10AudioClock12set_position
FNDA:0,_RNvMNtNtCs41oluKY1Omx_8airplay25audio5clockNtB2_10AudioClock15calculate_drift
FNDA:0,_RNvMNtNtCs41oluKY1Omx_8airplay25audio5clockNtB2_10AudioClock5reset
FNDA:0,_RNvMNtNtCs41oluKY1Omx_8airplay25audio5clockNtB2_10AudioClock6offset
FNDA:0,_RNvMs_NtNtCs41oluKY1Omx_8airplay25audio5clockNtB4_10TimingSync13update_timing
FNDA:0,_RNvMs_NtNtCs41oluKY1Omx_8airplay25audio5clockNtB4_10TimingSync3new
FNDA:0,_RNvMs_NtNtCs41oluKY1Omx_8airplay25audio5clockNtB4_10TimingSync3rtt
FNDA:0,_RNvMs_NtNtCs41oluKY1Omx_8airplay25audio5clockNtB4_10TimingSync5clock
FNDA:0,_RNvMs_NtNtCs41oluKY1Omx_8airplay25audio5clockNtB4_10TimingSync6offset
FNDA:0,_RNvMs_NtNtCs41oluKY1Omx_8airplay25audio5clockNtB4_10TimingSync7quality
FNDA:1,_RNvMNtNtCs41oluKY1Omx_8airplay25audio5clockNtB2_10AudioClock13time_position
FNDA:1,_RNvMNtNtCs41oluKY1Omx_8airplay25audio5clockNtB2_10AudioClock18duration_to_frames
FNDA:1,_RNvMNtNtCs41oluKY1Omx_8airplay25audio5clockNtB2_10AudioClock18frames_to_duration
FNDA:2,_RNvMNtNtCs41oluKY1Omx_8airplay25audio5clockNtB2_10AudioClock3new
FNDA:1,_RNvMNtNtCs41oluKY1Omx_8airplay25audio5clockNtB2_10AudioClock7advance
FNDA:2,_RNvMNtNtCs41oluKY1Omx_8airplay25audio5clockNtB2_10AudioClock8position
FNF:18
FNH:6
DA:23,2
DA:24,2
DA:25,2
DA:26,2
DA:27,2
DA:28,2
DA:29,2
DA:30,2
DA:31,2
DA:34,2
DA:35,2
DA:36,2
DA:43,1
DA:44,1
DA:45,1
DA:46,1
DA:49,1
DA:50,1
DA:51,1
DA:54,0
DA:55,0
DA:56,0
DA:59,0
DA:60,0
DA:61,0
DA:64,0
DA:65,0
DA:66,0
DA:73,1
DA:74,1
DA:75,1
DA:83,1
DA:84,1
DA:85,1
DA:92,0
DA:96,0
DA:97,0
DA:106,0
DA:107,0
DA:108,0
DA:109,0
DA:111,0
DA:112,0
DA:113,0
DA:115,0
DA:116,0
DA:119,0
DA:120,0
DA:121,0
DA:122,0
DA:123,0
DA:124,0
DA:142,0
DA:143,0
DA:144,0
DA:145,0
DA:146,0
DA:147,0
DA:148,0
DA:149,0
DA:157,0
DA:158,0
DA:159,0
DA:163,0
DA:164,0
DA:165,0
DA:166,0
DA:169,0
DA:170,0
DA:171,0
DA:174,0
DA:175,0
DA:176,0
DA:179,0
DA:180,0
DA:181,0
DA:184,0
DA:185,0
DA:186,0
BRF:0
BRH:0
LF:79
LH:25
end_of_record
SF:/app/src/audio/concealment.rs
FN:45,_RNvMNtNtCslUrB7RWuRKg_8airplay25audio11concealmentNtB2_9Concealer18record_good_packet
FN:35,_RNvMNtNtCslUrB7RWuRKg_8airplay25audio11concealmentNtB2_9Concealer3new
FN:51,_RNvMNtNtCslUrB7RWuRKg_8airplay25audio11concealmentNtB2_9Concealer7conceal
FN:80,_RNvMNtNtCslUrB7RWuRKg_8airplay25audio11concealmentNtB2_9Concealer8fade_out
FN:61,_RNCNvMNtNtCslUrB7RWuRKg_8airplay25audio11concealmentNtB4_9Concealer7conceal0B8_
FN:74,_RNCNvMNtNtCslUrB7RWuRKg_8airplay25audio11concealmentNtB4_9Concealer7conceals_0B8_
FN:45,_RNvMNtNtCs41oluKY1Omx_8airplay25audio11concealmentNtB2_9Concealer18record_good_packet
FN:35,_RNvMNtNtCs41oluKY1Omx_8airplay25audio11concealmentNtB2_9Concealer3new
FN:51,_RNvMNtNtCs41oluKY1Omx_8airplay25audio11concealmentNtB2_9Concealer7conceal
FN:80,_RNvMNtNtCs41oluKY1Omx_8airplay25audio11concealmentNtB2_9Concealer8fade_out
FN:61,_RNCNvMNtNtCs41oluKY1Omx_8airplay25audio11concealmentNtB4_9Concealer7conceal0B8_
FN:74,_RNCNvMNtNtCs41oluKY1Omx_8airplay25audio11concealmentNtB4_9Concealer7conceals_0B8_
FNDA:0,_RNvMNtNtCslUrB7RWuRKg_8airplay25audio11concealmentNtB2_9Concealer18record_good_packet
FNDA:0,_RNvMNtNtCslUrB7RWuRKg_8airplay25audio11concealmentNtB2_9Concealer3new
FNDA:0,_RNvMNtNtCslUrB7RWuRKg_8airplay25audio11concealmentNtB2_9Concealer7conceal
FNDA:0,_RNvMNtNtCslUrB7RWuRKg_8airplay25audio11concealmentNtB2_9Concealer8fade_out
FNDA:0,_RNCNvMNtNtCslUrB7RWuRKg_8airplay25audio11concealmentNtB4_9Concealer7conceal0B8_
FNDA:0,_RNCNvMNtNtCslUrB7RWuRKg_8airplay25audio11concealmentNtB4_9Concealer7conceals_0B8_
FNDA:3,_RNvMNtNtCs41oluKY1Omx_8airplay25audio11concealmentNtB2_9Concealer18record_good_packet
FNDA:5,_RNvMNtNtCs41oluKY1Omx_8airplay25audio11concealmentNtB2_9Concealer3new
FNDA:5,_RNvMNtNtCs41oluKY1Omx_8airplay25audio11concealmentNtB2_9Concealer7conceal
FNDA:2,_RNvMNtNtCs41oluKY1Omx_8airplay25audio11concealmentNtB2_9Concealer8fade_out
FNDA:1,_RNCNvMNtNtCs41oluKY1Omx_8airplay25audio11concealmentNtB4_9Concealer7conceal0B8_
FNDA:0,_RNCNvMNtNtCs41oluKY1Omx_8airplay25audio11concealmentNtB4_9Concealer7conceals_0B8_
FNF:6
FNH:5
DA:35,5
DA:36,5
DA:37,5
DA:38,5
DA:39,5
DA:40,5
DA:41,5
DA:42,5
DA:45,3
DA:46,3
DA:47,3
DA:51,5
DA:52,5
DA:54,5
DA:56,1
DA:58,2
DA:59,2
DA:60,2
DA:61,2
DA:64,2
DA:65,2
DA:67,0
DA:72,0
DA:73,0
DA:74,0
DA:77,5
DA:80,2
DA:81,2
DA:82,2
DA:86,2
DA:89,20
DA:94,20
DA:96,20
DA:97,20
DA:101,30
DA:102,30
DA:103,30
DA:104,30
DA:105,30
DA:106,30
DA:107,30
DA:108,30
DA:109,30
DA:113,2
DA:114,2
BRF:0
BRH:0
LF:47
LH:42
end_of_record
SF:/app/src/audio/convert.rs
FN:40,_RNCNvNtNtCslUrB7RWuRKg_8airplay25audio7convert6to_f320B7_
FN:55,_RNCNvNtNtCslUrB7RWuRKg_8airplay25audio7convert6to_f32s0_0B7_
FN:62,_RNCNvNtNtCslUrB7RWuRKg_8airplay25audio7convert6to_f32s1_0B7_
FN:47,_RNCNvNtNtCslUrB7RWuRKg_8airplay25audio7convert6to_f32s_0B7_
FN:79,_RNCNvNtNtCslUrB7RWuRKg_8airplay25audio7convert8from_f320B7_
FN:102,_RNCNvNtNtCslUrB7RWuRKg_8airplay25audio7convert8from_f32s0_0B7_
FN:110,_RNCNvNtNtCslUrB7RWuRKg_8airplay25audio7convert8from_f32s1_0B7_
FN:87,_RNCNvNtNtCslUrB7RWuRKg_8airplay25audio7convert8from_f32s_0B7_
FN:15,_RNvNtNtCslUrB7RWuRKg_8airplay25audio7convert15convert_samples
FN:204,_RNvNtNtCslUrB7RWuRKg_8airplay25audio7convert15resample_linear
FN:117,_RNvNtNtCslUrB7RWuRKg_8airplay25audio7convert16convert_channels
FN:135,_RNvNtNtCslUrB7RWuRKg_8airplay25audio7convert21convert_channels_into
FN:36,_RNvNtNtCslUrB7RWuRKg_8airplay25audio7convert6to_f32
FN:75,_RNvNtNtCslUrB7RWuRKg_8airplay25audio7convert8from_f32
FN:15,_RNvNtNtCs41oluKY1Omx_8airplay25audio7convert15convert_samples
FN:204,_RNvNtNtCs41oluKY1Omx_8airplay25audio7convert15resample_linear
FN:117,_RNvNtNtCs41oluKY1Omx_8airplay25audio7convert16convert_channels
FN:135,_RNvNtNtCs41oluKY1Omx_8airplay25audio7convert21convert_channels_into
FN:36,_RNvNtNtCs41oluKY1Omx_8airplay25audio7convert6to_f32
FN:75,_RNvNtNtCs41oluKY1Omx_8airplay25audio7convert8from_f32
FN:40,_RNCNvNtNtCs41oluKY1Omx_8airplay25audio7convert6to_f320B7_
FN:55,_RNCNvNtNtCs41oluKY1Omx_8airplay25audio7convert6to_f32s0_0B7_
FN:62,_RNCNvNtNtCs41oluKY1Omx_8airplay25audio7convert6to_f32s1_0B7_
FN:47,_RNCNvNtNtCs41oluKY1Omx_8airplay25audio7convert6to_f32s_0B7_
FN:79,_RNCNvNtNtCs41oluKY1Omx_8airplay25audio7convert8from_f320B7_
FN:102,_RNCNvNtNtCs41oluKY1Omx_8airplay25audio7convert8from_f32s0_0B7_
FN:110,_RNCNvNtNtCs41oluKY1Omx_8airplay25audio7convert8from_f32s1_0B7_
FN:87,_RNCNvNtNtCs41oluKY1Omx_8airplay25audio7convert8from_f32s_0B7_
FNDA:0,_RNCNvNtNtCslUrB7RWuRKg_8airplay25audio7convert6to_f320B7_
FNDA:0,_RNCNvNtNtCslUrB7RWuRKg_8airplay25audio7convert6to_f32s0_0B7_
FNDA:0,_RNCNvNtNtCslUrB7RWuRKg_8airplay25audio7convert6to_f32s1_0B7_
FNDA:0,_RNCNvNtNtCslUrB7RWuRKg_8airplay25audio7convert6to_f32s_0B7_
FNDA:0,_RNCNvNtNtCslUrB7RWuRKg_8airplay25audio7convert8from_f320B7_
FNDA:0,_RNCNvNtNtCslUrB7RWuRKg_8airplay25audio7convert8from_f32s0_0B7_
FNDA:0,_RNCNvNtNtCslUrB7RWuRKg_8airplay25audio7convert8from_f32s1_0B7_
FNDA:0,_RNCNvNtNtCslUrB7RWuRKg_8airplay25audio7convert8from_f32s_0B7_
FNDA:0,_RNvNtNtCslUrB7RWuRKg_8airplay25audio7convert15convert_samples
FNDA:0,_RNvNtNtCslUrB7RWuRKg_8airplay25audio7convert15resample_linear
FNDA:0,_RNvNtNtCslUrB7RWuRKg_8airplay25audio7convert16convert_channels
FNDA:0,_RNvNtNtCslUrB7RWuRKg_8airplay25audio7convert21convert_channels_into
FNDA:0,_RNvNtNtCslUrB7RWuRKg_8airplay25audio7convert6to_f32
FNDA:0,_RNvNtNtCslUrB7RWuRKg_8airplay25audio7convert8from_f32
FNDA:0,_RNvNtNtCs41oluKY1Omx_8airplay25audio7convert15convert_samples
FNDA:2,_RNvNtNtCs41oluKY1Omx_8airplay25audio7convert15resample_linear
FNDA:2,_RNvNtNtCs41oluKY1Omx_8airplay25audio7convert16convert_channels
FNDA:2,_RNvNtNtCs41oluKY1Omx_8airplay25audio7convert21convert_channels_into
FNDA:2,_RNvNtNtCs41oluKY1Omx_8airplay25audio7convert6to_f32
FNDA:2,_RNvNtNtCs41oluKY1Omx_8airplay25audio7convert8from_f32
FNDA:2,_RNCNvNtNtCs41oluKY1Omx_8airplay25audio7convert6to_f320B7_
FNDA:0,_RNCNvNtNtCs41oluKY1Omx_8airplay25audio7convert6to_f32s0_0B7_
FNDA:0,_RNCNvNtNtCs41oluKY1Omx_8airplay25audio7convert6to_f32s1_0B7_
FNDA:4,_RNCNvNtNtCs41oluKY1Omx_8airplay25audio7convert6to_f32s_0B7_
FNDA:2,_RNCNvNtNtCs41oluKY1Omx_8airplay25audio7convert8from_f320B7_
FNDA:0,_RNCNvNtNtCs41oluKY1Omx_8airplay25audio7convert8from_f32s0_0B7_
FNDA:0,_RNCNvNtNtCs41oluKY1Omx_8airplay25audio7convert8from_f32s1_0B7_
FNDA:4,_RNCNvNtNtCs41oluKY1Omx_8airplay25audio7convert8from_f32s_0B7_
FNF:14
FNH:9
DA:15,0
DA:16,0
DA:17,0
DA:18,0
DA:19,0
DA:20,0
DA:21,0
DA:22,0
DA:25,0
DA:26,0
DA:27,0
DA:36,2
DA:37,2
DA:38,1
DA:39,1
DA:40,2
DA:41,2
DA:42,2
DA:43,2
DA:44,1
DA:45,1
DA:46,1
DA:47,4
DA:49,4
DA:50,4
DA:51,4
DA:52,1
DA:53,0
DA:54,0
DA:55,0
DA:56,0
DA:57,0
DA:58,0
DA:59,0
DA:60,0
DA:61,0
DA:62,0
DA:63,0
DA:65,2
DA:75,2
DA:76,2
DA:77,1
DA:78,1
DA:79,2
DA:80,2
DA:81,2
DA:82,2
DA:83,2
DA:84,1
DA:85,1
DA:86,1
DA:87,4
DA:88,4
DA:90,4
DA:91,4
DA:92,1
DA:94,3
DA:96,4
DA:97,4
DA:98,4
DA:99,1
DA:100,0
DA:101,0
DA:102,0
DA:103,0
DA:104,0
DA:105,0
DA:106,0
DA:107,0
DA:108,0
DA:109,0
DA:110,0
DA:111,0
DA:113,2
DA:117,2
DA:118,2
DA:119,2
DA:120,2
DA:121,2
DA:122,2
DA:123,2
DA:124,2
DA:126,2
DA:127,2
DA:128,2
DA:129,2
DA:135,2
DA:136,2
DA:137,2
DA:138,2
DA:139,2
DA:140,2
DA:141,2
DA:142,2
DA:145,2
DA:146,0
DA:147,0
DA:148,2
DA:151,2
DA:152,0
DA:153,0
DA:154,0
DA:155,2
DA:157,2
DA:158,2
DA:162,2
DA:163,2
DA:165,5
DA:166,5
DA:167,5
DA:169,5
DA:170,3
DA:171,3
DA:172,3
DA:173,3
DA:174,3
DA:175,3
DA:176,2
DA:177,2
DA:178,2
DA:179,2
DA:180,0
DA:181,0
DA:182,0
DA:183,0
DA:184,0
DA:185,0
DA:186,0
DA:189,2
DA:204,2
DA:205,2
DA:206,1
DA:207,1
DA:209,1
DA:210,1
DA:211,1
DA:212,1
DA:214,1
DA:216,4
DA:217,4
DA:218,4
DA:219,4
DA:221,4
DA:222,4
DA:223,4
DA:224,4
DA:225,4
DA:226,4
DA:227,4
DA:228,4
DA:229,4
DA:232,1
DA:233,2
BRF:0
BRH:0
LF:161
LH:111
end_of_record
SF:/app/src/audio/format.rs
FN:29,_RNvMNtNtCslUrB7RWuRKg_8airplay25audio6formatNtB2_12SampleFormat15bits_per_sample
FN:19,_RNvMNtNtCslUrB7RWuRKg_8airplay25audio6formatNtB2_12SampleFormat16bytes_per_sample
FN:94,_RNvMs0_NtNtCslUrB7RWuRKg_8airplay25audio6formatNtB5_13ChannelConfig8channels
FN:139,_RNvMs1_NtNtCslUrB7RWuRKg_8airplay25audio6formatNtB5_11AudioFormat15bytes_per_frame
FN:145,_RNvMs1_NtNtCslUrB7RWuRKg_8airplay25audio6formatNtB5_11AudioFormat16bytes_per_second
FN:172,_RNvMs1_NtNtCslUrB7RWuRKg_8airplay25audio6formatNtB5_11AudioFormat17duration_to_bytes
FN:166,_RNvMs1_NtNtCslUrB7RWuRKg_8airplay25audio6formatNtB5_11AudioFormat18duration_to_frames
FN:155,_RNvMs1_NtNtCslUrB7RWuRKg_8airplay25audio6formatNtB5_11AudioFormat18frames_to_duration
FN:125,_RNvMs1_NtNtCslUrB7RWuRKg_8airplay25audio6formatNtB5_11AudioFormat3new
FN:55,_RNvMs_NtNtCslUrB7RWuRKg_8airplay25audio6formatNtB4_10SampleRate6as_u32
FN:66,_RNvMs_NtNtCslUrB7RWuRKg_8airplay25audio6formatNtB4_10SampleRate7from_hz
FN:178,_RNvXs2_NtNtCslUrB7RWuRKg_8airplay25audio6formatNtB5_11AudioFormatNtNtCs3XFJfFEDSOQ_4core7default7Default7default
FN:29,_RNvMNtNtCs41oluKY1Omx_8airplay25audio6formatNtB2_12SampleFormat15bits_per_sample
FN:172,_RNvMs1_NtNtCs41oluKY1Omx_8airplay25audio6formatNtB5_11AudioFormat17duration_to_bytes
FN:125,_RNvMs1_NtNtCs41oluKY1Omx_8airplay25audio6formatNtB5_11AudioFormat3new
FN:19,_RNvMNtNtCs41oluKY1Omx_8airplay25audio6formatNtB2_12SampleFormat16bytes_per_sample
FN:94,_RNvMs0_NtNtCs41oluKY1Omx_8airplay25audio6formatNtB5_13ChannelConfig8channels
FN:139,_RNvMs1_NtNtCs41oluKY1Omx_8airplay25audio6formatNtB5_11AudioFormat15bytes_per_frame
FN:145,_RNvMs1_NtNtCs41oluKY1Omx_8airplay25audio6formatNtB5_11AudioFormat16bytes_per_second
FN:166,_RNvMs1_NtNtCs41oluKY1Omx_8airplay25audio6formatNtB5_11AudioFormat18duration_to_frames
FN:155,_RNvMs1_NtNtCs41oluKY1Omx_8airplay25audio6formatNtB5_11AudioFormat18frames_to_duration
FN:55,_RNvMs_NtNtCs41oluKY1Omx_8airplay25audio6formatNtB4_10SampleRate6as_u32
FN:66,_RNvMs_NtNtCs41oluKY1Omx_8airplay25audio6formatNtB4_10SampleRate7from_hz
FN:178,_RNvXs2_NtNtCs41oluKY1Omx_8airplay25audio6formatNtB5_11AudioFormatNtNtCs3XFJfFEDSOQ_4core7default7Default7default
FNDA:0,_RNvMNtNtCslUrB7RWuRKg_8airplay25audio6formatNtB2_12SampleFormat15bits_per_sample
FNDA:0,_RNvMNtNtCslUrB7RWuRKg_8airplay25audio6formatNtB2_12SampleFormat16bytes_per_sample
FNDA:0,_RNvMs0_NtNtCslUrB7RWuRKg_8airplay25audio6formatNtB5_13ChannelConfig8channels
FNDA:0,_RNvMs1_NtNtCslUrB7RWuRKg_8airplay25audio6formatNtB5_11AudioFormat15bytes_per_frame
FNDA:0,_RNvMs1_NtNtCslUrB7RWuRKg_8airplay25audio6formatNtB5_11AudioFormat16bytes_per_second
FNDA:0,_RNvMs1_NtNtCslUrB7RWuRKg_8airplay25audio6formatNtB5_11AudioFormat17duration_to_bytes
FNDA:0,_RNvMs1_NtNtCslUrB7RWuRKg_8airplay25audio6formatNtB5_11AudioFormat18duration_to_frames
FNDA:0,_RNvMs1_NtNtCslUrB7RWuRKg_8airplay25audio6formatNtB5_11AudioFormat18frames_to_duration
FNDA:0,_RNvMs1_NtNtCslUrB7RWuRKg_8airplay25audio6formatNtB5_11AudioFormat3new
FNDA:0,_RNvMs_NtNtCslUrB7RWuRKg_8airplay25audio6formatNtB4_10SampleRate6as_u32
FNDA:0,_RNvMs_NtNtCslUrB7RWuRKg_8airplay25audio6formatNtB4_10SampleRate7from_hz
FNDA:0,_RNvXs2_NtNtCslUrB7RWuRKg_8airplay25audio6formatNtB5_11AudioFormatNtNtCs3XFJfFEDSOQ_4core7default7Default7default
FNDA:0,_RNvMNtNtCs41oluKY1Omx_8airplay25audio6formatNtB2_12SampleFormat15bits_per_sample
FNDA:0,_RNvMs1_NtNtCs41oluKY1Omx_8airplay25audio6formatNtB5_11AudioFormat17duration_to_bytes
FNDA:0,_RNvMs1_NtNtCs41oluKY1Omx_8airplay25audio6formatNtB5_11AudioFormat3new
FNDA:79,_RNvMNtNtCs41oluKY1Omx_8airplay25audio6formatNtB2_12SampleFormat16bytes_per_sample
FNDA:252,_RNvMs0_NtNtCs41oluKY1Omx_8airplay25audio6formatNtB5_13ChannelConfig8channels
FNDA:75,_RNvMs1_NtNtCs41oluKY1Omx_8airplay25audio6formatNtB5_11AudioFormat15bytes_per_frame
FNDA:1,_RNvMs1_NtNtCs41oluKY1Omx_8airplay25audio6formatNtB5_11AudioFormat16bytes_per_second
FNDA:1,_RNvMs1_NtNtCs41oluKY1Omx_8airplay25audio6formatNtB5_11AudioFormat18duration_to_frames
FNDA:5,_RNvMs1_NtNtCs41oluKY1Omx_8airplay25audio6formatNtB5_11AudioFormat18frames_to_duration
FNDA:107,_RNvMs_NtNtCs41oluKY1Omx_8airplay25audio6formatNtB4_10SampleRate6as_u32
FNDA:0,_RNvMs_NtNtCs41oluKY1Omx_8airplay25audio6formatNtB4_10SampleRate7from_hz
FNDA:1,_RNvXs2_NtNtCs41oluKY1Omx_8airplay25audio6formatNtB5_11AudioFormatNtNtCs3XFJfFEDSOQ_4core7default7Default7default
FNF:12
FNH:8
DA:19,79
DA:20,79
DA:21,76
DA:22,1
DA:23,2
DA:25,79
DA:29,0
DA:30,0
DA:31,0
DA:32,0
DA:33,0
DA:35,0
DA:55,107
DA:56,107
DA:57,104
DA:58,3
DA:59,0
DA:60,0
DA:62,107
DA:66,0
DA:67,0
DA:68,0
DA:69,0
DA:70,0
DA:71,0
DA:72,0
DA:74,0
DA:94,252
DA:95,252
DA:96,4
DA:97,248
DA:98,0
DA:99,0
DA:101,252
DA:125,0
DA:126,0
DA:127,0
DA:128,0
DA:129,0
DA:130,0
DA:131,0
DA:132,0
DA:133,0
DA:134,0
DA:135,0
DA:139,75
DA:140,75
DA:141,75
DA:145,1
DA:146,1
DA:147,1
DA:155,5
DA:156,5
DA:157,5
DA:166,1
DA:167,1
DA:168,1
DA:172,0
DA:173,0
DA:174,0
DA:178,1
DA:179,1
DA:180,1
BRF:0
BRH:0
LF:63
LH:31
end_of_record
SF:/app/src/audio/jitter.rs
FN:338,_RNCNvMs_NtNtCslUrB7RWuRKg_8airplay25audio6jitterNtB6_12JitterBuffer20flush_from_timestamp0Ba_
FN:352,_RNCNvMs_NtNtCslUrB7RWuRKg_8airplay25audio6jitterNtB6_12JitterBuffer9prune_old0Ba_
FN:361,_RNvMs_NtNtCslUrB7RWuRKg_8airplay25audio6jitterNtB4_12JitterBuffer10fill_ratio
FN:367,_RNvMs_NtNtCslUrB7RWuRKg_8airplay25audio6jitterNtB4_12JitterBuffer10is_healthy
FN:270,_RNvMs_NtNtCslUrB7RWuRKg_8airplay25audio6jitterNtB4_12JitterBuffer12update_state
FN:378,_RNvMs_NtNtCslUrB7RWuRKg_8airplay25audio6jitterNtB4_12JitterBuffer17estimated_latency
FN:335,_RNvMs_NtNtCslUrB7RWuRKg_8airplay25audio6jitterNtB4_12JitterBuffer20flush_from_timestamp
FN:199,_RNvMs_NtNtCslUrB7RWuRKg_8airplay25audio6jitterNtB4_12JitterBuffer21handle_missing_packet
FN:232,_RNvMs_NtNtCslUrB7RWuRKg_8airplay25audio6jitterNtB4_12JitterBuffer24determine_start_sequence
FN:126,_RNvMs_NtNtCslUrB7RWuRKg_8airplay25audio6jitterNtB4_12JitterBuffer3new
FN:180,_RNvMs_NtNtCslUrB7RWuRKg_8airplay25audio6jitterNtB4_12JitterBuffer3pop
FN:322,_RNvMs_NtNtCslUrB7RWuRKg_8airplay25audio6jitterNtB4_12JitterBuffer5depth
FN:327,_RNvMs_NtNtCslUrB7RWuRKg_8airplay25audio6jitterNtB4_12JitterBuffer5flush
FN:304,_RNvMs_NtNtCslUrB7RWuRKg_8airplay25audio6jitterNtB4_12JitterBuffer5state
FN:310,_RNvMs_NtNtCslUrB7RWuRKg_8airplay25audio6jitterNtB4_12JitterBuffer5stats
FN:399,_RNvMs_NtNtCslUrB7RWuRKg_8airplay25audio6jitterNtB4_12JitterBuffer6health
FN:138,_RNvMs_NtNtCslUrB7RWuRKg_8airplay25audio6jitterNtB4_12JitterBuffer6insert
FN:316,_RNvMs_NtNtCslUrB7RWuRKg_8airplay25audio6jitterNtB4_12JitterBuffer8is_ready
FN:389,_RNvMs_NtNtCslUrB7RWuRKg_8airplay25audio6jitterNtB4_12JitterBuffer9loss_rate
FN:347,_RNvMs_NtNtCslUrB7RWuRKg_8airplay25audio6jitterNtB4_12JitterBuffer9prune_old
FN:27,_RNvXNtNtCslUrB7RWuRKg_8airplay25audio6jitterNtB2_18JitterBufferConfigNtNtCs3XFJfFEDSOQ_4core7default7Default7default
FN:338,_RNCNvMs_NtNtCs41oluKY1Omx_8airplay25audio6jitterNtB6_12JitterBuffer20flush_from_timestamp0Ba_
FN:352,_RNCNvMs_NtNtCs41oluKY1Omx_8airplay25audio6jitterNtB6_12JitterBuffer9prune_old0Ba_
FN:335,_RNvMs_NtNtCs41oluKY1Omx_8airplay25audio6jitterNtB4_12JitterBuffer20flush_from_timestamp
FN:347,_RNvMs_NtNtCs41oluKY1Omx_8airplay25audio6jitterNtB4_12JitterBuffer9prune_old
FN:361,_RNvMs_NtNtCs41oluKY1Omx_8airplay25audio6jitterNtB4_12JitterBuffer10fill_ratio
FN:367,_RNvMs_NtNtCs41oluKY1Omx_8airplay25audio6jitterNtB4_12JitterBuffer10is_healthy
FN:270,_RNvMs_NtNtCs41oluKY1Omx_8airplay25audio6jitterNtB4_12JitterBuffer12update_state
FN:378,_RNvMs_NtNtCs41oluKY1Omx_8airplay25audio6jitterNtB4_12JitterBuffer17estimated_latency
FN:199,_RNvMs_NtNtCs41oluKY1Omx_8airplay25audio6jitterNtB4_12JitterBuffer21handle_missing_packet
FN:232,_RNvMs_NtNtCs41oluKY1Omx_8airplay25audio6jitterNtB4_12JitterBuffer24determine_start_sequence
FN:126,_RNvMs_NtNtCs41oluKY1Omx_8airplay25audio6jitterNtB4_12JitterBuffer3new
FN:180,_RNvMs_NtNtCs41oluKY1Omx_8airplay25audio6jitterNtB4_12JitterBuffer3pop
FN:322,_RNvMs_NtNtCs41oluKY1Omx_8airplay25audio6jitterNtB4_12JitterBuffer5depth
FN:327,_RNvMs_NtNtCs41oluKY1Omx_8airplay25audio6jitterNtB4_12JitterBuffer5flush
FN:304,_RNvMs_NtNtCs41oluKY1Omx_8airplay25audio6jitterNtB4_12JitterBuffer5state
FN:310,_RNvMs_NtNtCs41oluKY1Omx_8airplay25audio6jitterNtB4_12JitterBuffer5stats
FN:399,_RNvMs_NtNtCs41oluKY1Omx_8airplay25audio6jitterNtB4_12JitterBuffer6health
FN:138,_RNvMs_NtNtCs41oluKY1Omx_8airplay25audio6jitterNtB4_12JitterBuffer6insert
FN:316,_RNvMs_NtNtCs41oluKY1Omx_8airplay25audio6jitterNtB4_12JitterBuffer8is_ready
FN:389,_RNvMs_NtNtCs41oluKY1Omx_8airplay25audio6jitterNtB4_12JitterBuffer9loss_rate
FN:27,_RNvXNtNtCs41oluKY1Omx_8airplay25audio6jitterNtB2_18JitterBufferConfigNtNtCs3XFJfFEDSOQ_4core7default7Default7default
FNDA:0,_RNCNvMs_NtNtCslUrB7RWuRKg_8airplay25audio6jitterNtB6_12JitterBuffer20flush_from_timestamp0Ba_
FNDA:0,_RNCNvMs_NtNtCslUrB7RWuRKg_8airplay25audio6jitterNtB6_12JitterBuffer9prune_old0Ba_
FNDA:0,_RNvMs_NtNtCslUrB7RWuRKg_8airplay25audio6jitterNtB4_12JitterBuffer10fill_ratio
FNDA:0,_RNvMs_NtNtCslUrB7RWuRKg_8airplay25audio6jitterNtB4_12JitterBuffer10is_healthy
FNDA:0,_RNvMs_NtNtCslUrB7RWuRKg_8airplay25audio6jitterNtB4_12JitterBuffer12update_state
FNDA:0,_RNvMs_NtNtCslUrB7RWuRKg_8airplay25audio6jitterNtB4_12JitterBuffer17estimated_latency
FNDA:0,_RNvMs_NtNtCslUrB7RWuRKg_8airplay25audio6jitterNtB4_12JitterBuffer20flush_from_timestamp
FNDA:0,_RNvMs_NtNtCslUrB7RWuRKg_8airplay25audio6jitterNtB4_12JitterBuffer21handle_missing_packet
FNDA:0,_RNvMs_NtNtCslUrB7RWuRKg_8airplay25audio6jitterNtB4_12JitterBuffer24determine_start_sequence
FNDA:0,_RNvMs_NtNtCslUrB7RWuRKg_8airplay25audio6jitterNtB4_12JitterBuffer3new
FNDA:0,_RNvMs_NtNtCslUrB7RWuRKg_8airplay25audio6jitterNtB4_12JitterBuffer3pop
FNDA:0,_RNvMs_NtNtCslUrB7RWuRKg_8airplay25audio6jitterNtB4_12JitterBuffer5depth
FNDA:0,_RNvMs_NtNtCslUrB7RWuRKg_8airplay25audio6jitterNtB4_12JitterBuffer5flush
FNDA:0,_RNvMs_NtNtCslUrB7RWuRKg_8airplay25audio6jitterNtB4_12JitterBuffer5state
FNDA:0,_RNvMs_NtNtCslUrB7RWuRKg_8airplay25audio6jitterNtB4_12JitterBuffer5stats
FNDA:0,_RNvMs_NtNtCslUrB7RWuRKg_8airplay25audio6jitterNtB4_12JitterBuffer6health
FNDA:0,_RNvMs_NtNtCslUrB7RWuRKg_8airplay25audio6jitterNtB4_12JitterBuffer6insert
FNDA:0,_RNvMs_NtNtCslUrB7RWuRKg_8airplay25audio6jitterNtB4_12JitterBuffer8is_ready
FNDA:0,_RNvMs_NtNtCslUrB7RWuRKg_8airplay25audio6jitterNtB4_12JitterBuffer9loss_rate
FNDA:0,_RNvMs_NtNtCslUrB7RWuRKg_8airplay25audio6jitterNtB4_12JitterBuffer9prune_old
FNDA:0,_RNvXNtNtCslUrB7RWuRKg_8airplay25audio6jitterNtB2_18JitterBufferConfigNtNtCs3XFJfFEDSOQ_4core7default7Default7default
FNDA:0,_RNCNvMs_NtNtCs41oluKY1Omx_8airplay25audio6jitterNtB6_12JitterBuffer20flush_from_timestamp0Ba_
FNDA:0,_RNCNvMs_NtNtCs41oluKY1Omx_8airplay25audio6jitterNtB6_12JitterBuffer9prune_old0Ba_
FNDA:0,_RNvMs_NtNtCs41oluKY1Omx_8airplay25audio6jitterNtB4_12JitterBuffer20flush_from_timestamp
FNDA:0,_RNvMs_NtNtCs41oluKY1Omx_8airplay25audio6jitterNtB4_12JitterBuffer9prune_old
FNDA:2,_RNvMs_NtNtCs41oluKY1Omx_8airplay25audio6jitterNtB4_12JitterBuffer10fill_ratio
FNDA:2,_RNvMs_NtNtCs41oluKY1Omx_8airplay25audio6jitterNtB4_12JitterBuffer10is_healthy
FNDA:79,_RNvMs_NtNtCs41oluKY1Omx_8airplay25audio6jitterNtB4_12JitterBuffer12update_state
FNDA:2,_RNvMs_NtNtCs41oluKY1Omx_8airplay25audio6jitterNtB4_12JitterBuffer17estimated_latency
FNDA:4,_RNvMs_NtNtCs41oluKY1Omx_8airplay25audio6jitterNtB4_12JitterBuffer21handle_missing_packet
FNDA:15,_RNvMs_NtNtCs41oluKY1Omx_8airplay25audio6jitterNtB4_12JitterBuffer24determine_start_sequence
FNDA:17,_RNvMs_NtNtCs41oluKY1Omx_8airplay25audio6jitterNtB4_12JitterBuffer3new
FNDA:27,_RNvMs_NtNtCs41oluKY1Omx_8airplay25audio6jitterNtB4_12JitterBuffer3pop
FNDA:9,_RNvMs_NtNtCs41oluKY1Omx_8airplay25audio6jitterNtB4_12JitterBuffer5depth
FNDA:1,_RNvMs_NtNtCs41oluKY1Omx_8airplay25audio6jitterNtB4_12JitterBuffer5flush
FNDA:4,_RNvMs_NtNtCs41oluKY1Omx_8airplay25audio6jitterNtB4_12JitterBuffer5state
FNDA:7,_RNvMs_NtNtCs41oluKY1Omx_8airplay25audio6jitterNtB4_12JitterBuffer5stats
FNDA:2,_RNvMs_NtNtCs41oluKY1Omx_8airplay25audio6jitterNtB4_12JitterBuffer6health
FNDA:56,_RNvMs_NtNtCs41oluKY1Omx_8airplay25audio6jitterNtB4_12JitterBuffer6insert
FNDA:8,_RNvMs_NtNtCs41oluKY1Omx_8airplay25audio6jitterNtB4_12JitterBuffer8is_ready
FNDA:2,_RNvMs_NtNtCs41oluKY1Omx_8airplay25audio6jitterNtB4_12JitterBuffer9loss_rate
FNDA:17,_RNvXNtNtCs41oluKY1Omx_8airplay25audio6jitterNtB2_18JitterBufferConfigNtNtCs3XFJfFEDSOQ_4core7default7Default7default
FNF:21
FNH:17
DA:27,17
DA:28,17
DA:29,17
DA:30,17
DA:31,17
DA:32,17
DA:33,17
DA:34,17
DA:35,17
DA:126,17
DA:127,17
DA:128,17
DA:129,17
DA:130,17
DA:131,17
DA:132,17
DA:133,17
DA:134,17
DA:135,17
DA:138,56
DA:139,56
DA:140,56
DA:142,56
DA:145,56
DA:150,10
DA:151,10
DA:153,2
DA:154,2
DA:155,2
DA:156,8
DA:157,46
DA:160,54
DA:161,1
DA:163,1
DA:164,1
DA:165,1
DA:166,53
DA:168,54
DA:171,54
DA:172,51
DA:173,51
DA:176,54
DA:177,56
DA:180,27
DA:181,27
DA:182,0
DA:183,27
DA:185,27
DA:187,27
DA:188,23
DA:189,23
DA:190,23
DA:191,23
DA:194,4
DA:196,27
DA:199,4
DA:200,4
DA:203,4
DA:205,4
DA:206,3
DA:208,3
DA:210,2
DA:211,0
DA:216,2
DA:217,2
DA:218,2
DA:219,2
DA:220,2
DA:221,2
DA:222,2
DA:223,1
DA:224,1
DA:227,2
DA:228,2
DA:229,4
DA:232,15
DA:233,15
DA:234,0
DA:235,15
DA:237,15
DA:238,15
DA:239,0
DA:240,15
DA:242,15
DA:243,15
DA:245,27
DA:246,27
DA:247,27
DA:248,16
DA:249,16
DA:250,16
DA:254,15
DA:258,15
DA:262,1
DA:265,14
DA:267,15
DA:270,79
DA:271,79
DA:273,79
DA:275,46
DA:276,15
DA:278,15
DA:279,15
DA:280,15
DA:281,15
DA:282,31
DA:285,33
DA:286,7
DA:287,7
DA:288,7
DA:289,26
DA:292,0
DA:293,0
DA:294,0
DA:295,0
DA:299,79
DA:300,79
DA:304,4
DA:305,4
DA:306,4
DA:310,7
DA:311,7
DA:312,7
DA:316,8
DA:317,8
DA:318,8
DA:322,9
DA:323,9
DA:324,9
DA:327,1
DA:328,1
DA:329,1
DA:330,1
DA:331,1
DA:332,1
DA:335,0
DA:338,0
DA:340,0
DA:341,0
DA:342,0
DA:343,0
DA:344,0
DA:347,0
DA:348,0
DA:349,0
DA:351,0
DA:352,0
DA:353,0
DA:361,2
DA:362,2
DA:363,2
DA:367,2
DA:368,2
DA:369,2
DA:370,2
DA:378,2
DA:379,2
DA:380,2
DA:381,2
DA:389,2
DA:390,2
DA:391,2
DA:392,0
DA:393,2
DA:394,2
DA:395,2
DA:399,2
DA:400,2
DA:401,2
DA:402,2
DA:403,2
DA:404,2
DA:405,2
DA:406,2
DA:407,2
DA:408,2
DA:409,2
BRF:0
BRH:0
LF:179
LH:155
end_of_record
SF:/app/src/audio/output.rs
FN:154,_RNvNtNtCslUrB7RWuRKg_8airplay25audio6output21create_default_output
FN:154,_RNvNtNtCs41oluKY1Omx_8airplay25audio6output21create_default_output
FNDA:0,_RNvNtNtCslUrB7RWuRKg_8airplay25audio6output21create_default_output
FNDA:1,_RNvNtNtCs41oluKY1Omx_8airplay25audio6output21create_default_output
FNF:1
FNH:1
DA:154,1
DA:165,1
DA:189,1
BRF:0
BRH:0
LF:3
LH:3
end_of_record
SF:/app/src/audio/output_cpal.rs
FN:96,_RINvMNtNtNtCslUrB7RWuRKg_8airplay25audio11output_cpal14implementationNtB3_10CpalOutput12build_streamNCNCNvB2_19spawn_stream_thread00EB9_
FN:116,_RNCINvMNtNtNtCslUrB7RWuRKg_8airplay25audio11output_cpal14implementationNtB5_10CpalOutput12build_streamNCNCNvB4_19spawn_stream_thread00E0Bb_
FN:148,_RNCINvMNtNtNtCslUrB7RWuRKg_8airplay25audio11output_cpal14implementationNtB5_10CpalOutput12build_streamNCNCNvB4_19spawn_stream_thread00Es0_0Bb_
FN:170,_RNCINvMNtNtNtCslUrB7RWuRKg_8airplay25audio11output_cpal14implementationNtB5_10CpalOutput12build_streamNCNCNvB4_19spawn_stream_thread00Es1_0Bb_
FN:141,_RNCINvMNtNtNtCslUrB7RWuRKg_8airplay25audio11output_cpal14implementationNtB5_10CpalOutput12build_streamNCNCNvB4_19spawn_stream_thread00Es_0Bb_
FN:70,_RNCNCNvMNtNtNtCslUrB7RWuRKg_8airplay25audio11output_cpal14implementationNtB6_10CpalOutput19spawn_stream_thread00Bc_
FN:69,_RNCNvMNtNtNtCslUrB7RWuRKg_8airplay25audio11output_cpal14implementationNtB4_10CpalOutput19spawn_stream_thread0Ba_
FN:253,_RNCNvXs_NtNtNtCslUrB7RWuRKg_8airplay25audio11output_cpal14implementationNtB6_10CpalOutputNtNtBa_6output11AudioOutput14default_device0Bc_
FN:255,_RNCNvXs_NtNtNtCslUrB7RWuRKg_8airplay25audio11output_cpal14implementationNtB6_10CpalOutputNtNtBa_6output11AudioOutput14default_devices_0Bc_
FN:201,_RNCNvXs_NtNtNtCslUrB7RWuRKg_8airplay25audio11output_cpal14implementationNtB6_10CpalOutputNtNtBa_6output11AudioOutput17enumerate_devices0Bc_
FN:210,_RNCNvXs_NtNtNtCslUrB7RWuRKg_8airplay25audio11output_cpal14implementationNtB6_10CpalOutputNtNtBa_6output11AudioOutput17enumerate_devicess0_0Bc_
FN:232,_RNCNvXs_NtNtNtCslUrB7RWuRKg_8airplay25audio11output_cpal14implementationNtB6_10CpalOutputNtNtBa_6output11AudioOutput17enumerate_devicess1_0Bc_
FN:206,_RNCNvXs_NtNtNtCslUrB7RWuRKg_8airplay25audio11output_cpal14implementationNtB6_10CpalOutputNtNtBa_6output11AudioOutput17enumerate_devicess_0Bc_
FN:274,_RNCNvXs_NtNtNtCslUrB7RWuRKg_8airplay25audio11output_cpal14implementationNtB6_10CpalOutputNtNtBa_6output11AudioOutput4open0Bc_
FN:276,_RNCNvXs_NtNtNtCslUrB7RWuRKg_8airplay25audio11output_cpal14implementationNtB6_10CpalOutputNtNtBa_6output11AudioOutput4opens0_0Bc_
FN:280,_RNCNvXs_NtNtNtCslUrB7RWuRKg_8airplay25audio11output_cpal14implementationNtB6_10CpalOutputNtNtBa_6output11AudioOutput4opens1_0Bc_
FN:275,_RNCNvXs_NtNtNtCslUrB7RWuRKg_8airplay25audio11output_cpal14implementationNtB6_10CpalOutputNtNtBa_6output11AudioOutput4opens_0Bc_
FN:297,_RNCNvXs_NtNtNtCslUrB7RWuRKg_8airplay25audio11output_cpal14implementationNtB6_10CpalOutputNtNtBa_6output11AudioOutput5start0Bc_
FN:337,_RNCNvXs_NtNtNtCslUrB7RWuRKg_8airplay25audio11output_cpal14implementationNtB6_10CpalOutputNtNtBa_6output11AudioOutput5starts0_0Bc_
FN:302,_RNCNvXs_NtNtNtCslUrB7RWuRKg_8airplay25audio11output_cpal14implementationNtB6_10CpalOutputNtNtBa_6output11AudioOutput5starts_0Bc_
FN:181,_RNvMNtNtNtCslUrB7RWuRKg_8airplay25audio11output_cpal14implementationNtB2_10CpalOutput16run_command_loop
FN:64,_RNvMNtNtNtCslUrB7RWuRKg_8airplay25audio11output_cpal14implementationNtB2_10CpalOutput19spawn_stream_thread
FN:50,_RNvMNtNtNtCslUrB7RWuRKg_8airplay25audio11output_cpal14implementationNtB2_10CpalOutput3new
FN:372,_RNvXs_NtNtNtCslUrB7RWuRKg_8airplay25audio11output_cpal14implementationNtB4_10CpalOutputNtNtB8_6output11AudioOutput10set_volume
FN:249,_RNvXs_NtNtNtCslUrB7RWuRKg_8airplay25audio11output_cpal14implementationNtB4_10CpalOutputNtNtB8_6output11AudioOutput14default_device
FN:197,_RNvXs_NtNtNtCslUrB7RWuRKg_8airplay25audio11output_cpal14implementationNtB4_10CpalOutputNtNtB8_6output11AudioOutput17enumerate_devices
FN:266,_RNvXs_NtNtNtCslUrB7RWuRKg_8airplay25audio11output_cpal14implementationNtB4_10CpalOutputNtNtB8_6output11AudioOutput4open
FN:344,_RNvXs_NtNtNtCslUrB7RWuRKg_8airplay25audio11output_cpal14implementationNtB4_10CpalOutputNtNtB8_6output11AudioOutput4stop
FN:390,_RNvXs_NtNtNtCslUrB7RWuRKg_8airplay25audio11output_cpal14implementationNtB4_10CpalOutputNtNtB8_6output11AudioOutput5close
FN:352,_RNvXs_NtNtNtCslUrB7RWuRKg_8airplay25audio11output_cpal14implementationNtB4_10CpalOutputNtNtB8_6output11AudioOutput5pause
FN:289,_RNvXs_NtNtNtCslUrB7RWuRKg_8airplay25audio11output_cpal14implementationNtB4_10CpalOutputNtNtB8_6output11AudioOutput5start
FN:368,_RNvXs_NtNtNtCslUrB7RWuRKg_8airplay25audio11output_cpal14implementationNtB4_10CpalOutputNtNtB8_6output11AudioOutput5state
FN:386,_RNvXs_NtNtNtCslUrB7RWuRKg_8airplay25audio11output_cpal14implementationNtB4_10CpalOutputNtNtB8_6output11AudioOutput6format
FN:360,_RNvXs_NtNtNtCslUrB7RWuRKg_8airplay25audio11output_cpal14implementationNtB4_10CpalOutputNtNtB8_6output11AudioOutput6resume
FN:377,_RNvXs_NtNtNtCslUrB7RWuRKg_8airplay25audio11output_cpal14implementationNtB4_10CpalOutputNtNtB8_6output11AudioOutput6volume
FN:381,_RNvXs_NtNtNtCslUrB7RWuRKg_8airplay25audio11output_cpal14implementationNtB4_10CpalOutputNtNtB8_6output11AudioOutput7latency
FN:96,_RINvMNtNtNtCs41oluKY1Omx_8airplay25audio11output_cpal14implementationNtB3_10CpalOutput12build_streamNCNCNvB2_19spawn_stream_thread00EB9_
FN:116,_RNCINvMNtNtNtCs41oluKY1Omx_8airplay25audio11output_cpal14implementationNtB5_10CpalOutput12build_streamNCNCNvB4_19spawn_stream_thread00E0Bb_
FN:148,_RNCINvMNtNtNtCs41oluKY1Omx_8airplay25audio11output_cpal14implementationNtB5_10CpalOutput12build_streamNCNCNvB4_19spawn_stream_thread00Es0_0Bb_
FN:170,_RNCINvMNtNtNtCs41oluKY1Omx_8airplay25audio11output_cpal14implementationNtB5_10CpalOutput12build_streamNCNCNvB4_19spawn_stream_thread00Es1_0Bb_
FN:141,_RNCINvMNtNtNtCs41oluKY1Omx_8airplay25audio11output_cpal14implementationNtB5_10CpalOutput12build_streamNCNCNvB4_19spawn_stream_thread00Es_0Bb_
FN:70,_RNCNCNvMNtNtNtCs41oluKY1Omx_8airplay25audio11output_cpal14implementationNtB6_10CpalOutput19spawn_stream_thread00Bc_
FN:69,_RNCNvMNtNtNtCs41oluKY1Omx_8airplay25audio11output_cpal14implementationNtB4_10CpalOutput19spawn_stream_thread0Ba_
FN:253,_RNCNvXs_NtNtNtCs41oluKY1Omx_8airplay25audio11output_cpal14implementationNtB6_10CpalOutputNtNtBa_6output11AudioOutput14default_device0Bc_
FN:255,_RNCNvXs_NtNtNtCs41oluKY1Omx_8airplay25audio11output_cpal14implementationNtB6_10CpalOutputNtNtBa_6output11AudioOutput14default_devices_0Bc_
FN:201,_RNCNvXs_NtNtNtCs41oluKY1Omx_8airplay25audio11output_cpal14implementationNtB6_10CpalOutputNtNtBa_6output11AudioOutput17enumerate_devices0Bc_
FN:210,_RNCNvXs_NtNtNtCs41oluKY1Omx_8airplay25audio11output_cpal14implementationNtB6_10CpalOutputNtNtBa_6output11AudioOutput17enumerate_devicess0_0Bc_
FN:232,_RNCNvXs_NtNtNtCs41oluKY1Omx_8airplay25audio11output_cpal14implementationNtB6_10CpalOutputNtNtBa_6output11AudioOutput17enumerate_devicess1_0Bc_
FN:206,_RNCNvXs_NtNtNtCs41oluKY1Omx_8airplay25audio11output_cpal14implementationNtB6_10CpalOutputNtNtBa_6output11AudioOutput17enumerate_devicess_0Bc_
FN:274,_RNCNvXs_NtNtNtCs41oluKY1Omx_8airplay25audio11output_cpal14implementationNtB6_10CpalOutputNtNtBa_6output11AudioOutput4open0Bc_
FN:276,_RNCNvXs_NtNtNtCs41oluKY1Omx_8airplay25audio11output_cpal14implementationNtB6_10CpalOutputNtNtBa_6output11AudioOutput4opens0_0Bc_
FN:280,_RNCNvXs_NtNtNtCs41oluKY1Omx_8airplay25audio11output_cpal14implementationNtB6_10CpalOutputNtNtBa_6output11AudioOutput4opens1_0Bc_
FN:275,_RNCNvXs_NtNtNtCs41oluKY1Omx_8airplay25audio11output_cpal14implementationNtB6_10CpalOutputNtNtBa_6output11AudioOutput4opens_0Bc_
FN:297,_RNCNvXs_NtNtNtCs41oluKY1Omx_8airplay25audio11output_cpal14implementationNtB6_10CpalOutputNtNtBa_6output11AudioOutput5start0Bc_
FN:337,_RNCNvXs_NtNtNtCs41oluKY1Omx_8airplay25audio11output_cpal14implementationNtB6_10CpalOutputNtNtBa_6output11AudioOutput5starts0_0Bc_
FN:302,_RNCNvXs_NtNtNtCs41oluKY1Omx_8airplay25audio11output_cpal14implementationNtB6_10CpalOutputNtNtBa_6output11AudioOutput5starts_0Bc_
FN:181,_RNvMNtNtNtCs41oluKY1Omx_8airplay25audio11output_cpal14implementationNtB2_10CpalOutput16run_command_loop
FN:64,_RNvMNtNtNtCs41oluKY1Omx_8airplay25audio11output_cpal14implementationNtB2_10CpalOutput19spawn_stream_thread
FN:50,_RNvMNtNtNtCs41oluKY1Omx_8airplay25audio11output_cpal14implementationNtB2_10CpalOutput3new
FN:372,_RNvXs_NtNtNtCs41oluKY1Omx_8airplay25audio11output_cpal14implementationNtB4_10CpalOutputNtNtB8_6output11AudioOutput10set_volume
FN:249,_RNvXs_NtNtNtCs41oluKY1Omx_8airplay25audio11output_cpal14implementationNtB4_10CpalOutputNtNtB8_6output11AudioOutput14default_device
FN:197,_RNvXs_NtNtNtCs41oluKY1Omx_8airplay25audio11output_cpal14implementationNtB4_10CpalOutputNtNtB8_6output11AudioOutput17enumerate_devices
FN:266,_RNvXs_NtNtNtCs41oluKY1Omx_8airplay25audio11output_cpal14implementationNtB4_10CpalOutputNtNtB8_6output11AudioOutput4open
FN:344,_RNvXs_NtNtNtCs41oluKY1Omx_8airplay25audio11output_cpal14implementationNtB4_10CpalOutputNtNtB8_6output11AudioOutput4stop
FN:390,_RNvXs_NtNtNtCs41oluKY1Omx_8airplay25audio11output_cpal14implementationNtB4_10CpalOutputNtNtB8_6output11AudioOutput5close
FN:352,_RNvXs_NtNtNtCs41oluKY1Omx_8airplay25audio11output_cpal14implementationNtB4_10CpalOutputNtNtB8_6output11AudioOutput5pause
FN:289,_RNvXs_NtNtNtCs41oluKY1Omx_8airplay25audio11output_cpal14implementationNtB4_10CpalOutputNtNtB8_6output11AudioOutput5start
FN:368,_RNvXs_NtNtNtCs41oluKY1Omx_8airplay25audio11output_cpal14implementationNtB4_10CpalOutputNtNtB8_6output11AudioOutput5state
FN:386,_RNvXs_NtNtNtCs41oluKY1Omx_8airplay25audio11output_cpal14implementationNtB4_10CpalOutputNtNtB8_6output11AudioOutput6format
FN:360,_RNvXs_NtNtNtCs41oluKY1Omx_8airplay25audio11output_cpal14implementationNtB4_10CpalOutputNtNtB8_6output11AudioOutput6resume
FN:377,_RNvXs_NtNtNtCs41oluKY1Omx_8airplay25audio11output_cpal14implementationNtB4_10CpalOutputNtNtB8_6output11AudioOutput6volume
FN:381,_RNvXs_NtNtNtCs41oluKY1Omx_8airplay25audio11output_cpal14implementationNtB4_10CpalOutputNtNtB8_6output11AudioOutput7latency
FNDA:0,_RINvMNtNtNtCslUrB7RWuRKg_8airplay25audio11output_cpal14implementationNtB3_10CpalOutput12build_streamNCNCNvB2_19spawn_stream_thread00EB9_
FNDA:0,_RNCINvMNtNtNtCslUrB7RWuRKg_8airplay25audio11output_cpal14implementationNtB5_10CpalOutput12build_streamNCNCNvB4_19spawn_stream_thread00E0Bb_
FNDA:0,_RNCINvMNtNtNtCslUrB7RWuRKg_8airplay25audio11output_cpal14implementationNtB5_10CpalOutput12build_streamNCNCNvB4_19spawn_stream_thread00Es0_0Bb_
FNDA:0,_RNCINvMNtNtNtCslUrB7RWuRKg_8airplay25audio11output_cpal14implementationNtB5_10CpalOutput12build_streamNCNCNvB4_19spawn_stream_thread00Es1_0Bb_
FNDA:0,_RNCINvMNtNtNtCslUrB7RWuRKg_8airplay25audio11output_cpal14implementationNtB5_10CpalOutput12build_streamNCNCNvB4_19spawn_stream_thread00Es_0Bb_
FNDA:0,_RNCNCNvMNtNtNtCslUrB7RWuRKg_8airplay25audio11output_cpal14implementationNtB6_10CpalOutput19spawn_stream_thread00Bc_
FNDA:0,_RNCNvMNtNtNtCslUrB7RWuRKg_8airplay25audio11output_cpal14implementationNtB4_10CpalOutput19spawn_stream_thread0Ba_
FNDA:0,_RNCNvXs_NtNtNtCslUrB7RWuRKg_8airplay25audio11output_cpal14implementationNtB6_10CpalOutputNtNtBa_6output11AudioOutput14default_device0Bc_
FNDA:0,_RNCNvXs_NtNtNtCslUrB7RWuRKg_8airplay25audio11output_cpal14implementationNtB6_10CpalOutputNtNtBa_6output11AudioOutput14default_devices_0Bc_
FNDA:0,_RNCNvXs_NtNtNtCslUrB7RWuRKg_8airplay25audio11output_cpal14implementationNtB6_10CpalOutputNtNtBa_6output11AudioOutput17enumerate_devices0Bc_
FNDA:0,_RNCNvXs_NtNtNtCslUrB7RWuRKg_8airplay25audio11output_cpal14implementationNtB6_10CpalOutputNtNtBa_6output11AudioOutput17enumerate_devicess0_0Bc_
FNDA:0,_RNCNvXs_NtNtNtCslUrB7RWuRKg_8airplay25audio11output_cpal14implementationNtB6_10CpalOutputNtNtBa_6output11AudioOutput17enumerate_devicess1_0Bc_
FNDA:0,_RNCNvXs_NtNtNtCslUrB7RWuRKg_8airplay25audio11output_cpal14implementationNtB6_10CpalOutputNtNtBa_6output11AudioOutput17enumerate_devicess_0Bc_
FNDA:0,_RNCNvXs_NtNtNtCslUrB7RWuRKg_8airplay25audio11output_cpal14implementationNtB6_10CpalOutputNtNtBa_6output11AudioOutput4open0Bc_
FNDA:0,_RNCNvXs_NtNtNtCslUrB7RWuRKg_8airplay25audio11output_cpal14implementationNtB6_10CpalOutputNtNtBa_6output11AudioOutput4opens0_0Bc_
FNDA:0,_RNCNvXs_NtNtNtCslUrB7RWuRKg_8airplay25audio11output_cpal14implementationNtB6_10CpalOutputNtNtBa_6output11AudioOutput4opens1_0Bc_
FNDA:0,_RNCNvXs_NtNtNtCslUrB7RWuRKg_8airplay25audio11output_cpal14implementationNtB6_10CpalOutputNtNtBa_6output11AudioOutput4opens_0Bc_
FNDA:0,_RNCNvXs_NtNtNtCslUrB7RWuRKg_8airplay25audio11output_cpal14implementationNtB6_10CpalOutputNtNtBa_6output11AudioOutput5start0Bc_
FNDA:0,_RNCNvXs_NtNtNtCslUrB7RWuRKg_8airplay25audio11output_cpal14implementationNtB6_10CpalOutputNtNtBa_6output11AudioOutput5starts0_0Bc_
FNDA:0,_RNCNvXs_NtNtNtCslUrB7RWuRKg_8airplay25audio11output_cpal14implementationNtB6_10CpalOutputNtNtBa_6output11AudioOutput5starts_0Bc_
FNDA:0,_RNvMNtNtNtCslUrB7RWuRKg_8airplay25audio11output_cpal14implementationNtB2_10CpalOutput16run_command_loop
FNDA:0,_RNvMNtNtNtCslUrB7RWuRKg_8airplay25audio11output_cpal14implementationNtB2_10CpalOutput19spawn_stream_thread
FNDA:0,_RNvMNtNtNtCslUrB7RWuRKg_8airplay25audio11output_cpal14implementationNtB2_10CpalOutput3new
FNDA:0,_RNvXs_NtNtNtCslUrB7RWuRKg_8airplay25audio11output_cpal14implementationNtB4_10CpalOutputNtNtB8_6output11AudioOutput10set_volume
FNDA:0,_RNvXs_NtNtNtCslUrB7RWuRKg_8airplay25audio11output_cpal14implementationNtB4_10CpalOutputNtNtB8_6output11AudioOutput14default_device
FNDA:0,_RNvXs_NtNtNtCslUrB7RWuRKg_8airplay25audio11output_cpal14implementationNtB4_10CpalOutputNtNtB8_6output11AudioOutput17enumerate_devices
FNDA:0,_RNvXs_NtNtNtCslUrB7RWuRKg_8airplay25audio11output_cpal14implementationNtB4_10CpalOutputNtNtB8_6output11AudioOutput4open
FNDA:0,_RNvXs_NtNtNtCslUrB7RWuRKg_8airplay25audio11output_cpal14implementationNtB4_10CpalOutputNtNtB8_6output11AudioOutput4stop
FNDA:0,_RNvXs_NtNtNtCslUrB7RWuRKg_8airplay25audio11output_cpal14implementationNtB4_10CpalOutputNtNtB8_6output11AudioOutput5close
FNDA:0,_RNvXs_NtNtNtCslUrB7RWuRKg_8airplay25audio11output_cpal14implementationNtB4_10CpalOutputNtNtB8_6output11AudioOutput5pause
FNDA:0,_RNvXs_NtNtNtCslUrB7RWuRKg_8airplay25audio11output_cpal14implementationNtB4_10CpalOutputNtNtB8_6output11AudioOutput5start
FNDA:0,_RNvXs_NtNtNtCslUrB7RWuRKg_8airplay25audio11output_cpal14implementationNtB4_10CpalOutputNtNtB8_6output11AudioOutput5state
FNDA:0,_RNvXs_NtNtNtCslUrB7RWuRKg_8airplay25audio11output_cpal14implementationNtB4_10CpalOutputNtNtB8_6output11AudioOutput6format
FNDA:0,_RNvXs_NtNtNtCslUrB7RWuRKg_8airplay25audio11output_cpal14implementationNtB4_10CpalOutputNtNtB8_6output11AudioOutput6resume
FNDA:0,_RNvXs_NtNtNtCslUrB7RWuRKg_8airplay25audio11output_cpal14implementationNtB4_10CpalOutputNtNtB8_6output11AudioOutput6volume
FNDA:0,_RNvXs_NtNtNtCslUrB7RWuRKg_8airplay25audio11output_cpal14implementationNtB4_10CpalOutputNtNtB8_6output11AudioOutput7latency
FNDA:0,_RINvMNtNtNtCs41oluKY1Omx_8airplay25audio11output_cpal14implementationNtB3_10CpalOutput12build_streamNCNCNvB2_19spawn_stream_thread00EB9_
FNDA:0,_RNCINvMNtNtNtCs41oluKY1Omx_8airplay25audio11output_cpal14implementationNtB5_10CpalOutput12build_streamNCNCNvB4_19spawn_stream_thread00E0Bb_
FNDA:0,_RNCINvMNtNtNtCs41oluKY1Omx_8airplay25audio11output_cpal14implementationNtB5_10CpalOutput12build_streamNCNCNvB4_19spawn_stream_thread00Es0_0Bb_
FNDA:0,_RNCINvMNtNtNtCs41oluKY1Omx_8airplay25audio11output_cpal14implementationNtB5_10CpalOutput12build_streamNCNCNvB4_19spawn_stream_thread00Es1_0Bb_
FNDA:0,_RNCINvMNtNtNtCs41oluKY1Omx_8airplay25audio11output_cpal14implementationNtB5_10CpalOutput12build_streamNCNCNvB4_19spawn_stream_thread00Es_0Bb_
FNDA:0,_RNCNCNvMNtNtNtCs41oluKY1Omx_8airplay25audio11output_cpal14implementationNtB6_10CpalOutput19spawn_stream_thread00Bc_
FNDA:0,_RNCNvMNtNtNtCs41oluKY1Omx_8airplay25audio11output_cpal14implementationNtB4_10CpalOutput19spawn_stream_thread0Ba_
FNDA:0,_RNCNvXs_NtNtNtCs41oluKY1Omx_8airplay25audio11output_cpal14implementationNtB6_10CpalOutputNtNtBa_6output11AudioOutput14default_device0Bc_
FNDA:0,_RNCNvXs_NtNtNtCs41oluKY1Omx_8airplay25audio11output_cpal14implementationNtB6_10CpalOutputNtNtBa_6output11AudioOutput14default_devices_0Bc_
FNDA:0,_RNCNvXs_NtNtNtCs41oluKY1Omx_8airplay25audio11output_cpal14implementationNtB6_10CpalOutputNtNtBa_6output11AudioOutput17enumerate_devices0Bc_
FNDA:0,_RNCNvXs_NtNtNtCs41oluKY1Omx_8airplay25audio11output_cpal14implementationNtB6_10CpalOutputNtNtBa_6output11AudioOutput17enumerate_devicess0_0Bc_
FNDA:0,_RNCNvXs_NtNtNtCs41oluKY1Omx_8airplay25audio11output_cpal14implementationNtB6_10CpalOutputNtNtBa_6output11AudioOutput17enumerate_devicess1_0Bc_
FNDA:0,_RNCNvXs_NtNtNtCs41oluKY1Omx_8airplay25audio11output_cpal14implementationNtB6_10CpalOutputNtNtBa_6output11AudioOutput17enumerate_devicess_0Bc_
FNDA:0,_RNCNvXs_NtNtNtCs41oluKY1Omx_8airplay25audio11output_cpal14implementationNtB6_10CpalOutputNtNtBa_6output11AudioOutput4open0Bc_
FNDA:0,_RNCNvXs_NtNtNtCs41oluKY1Omx_8airplay25audio11output_cpal14implementationNtB6_10CpalOutputNtNtBa_6output11AudioOutput4opens0_0Bc_
FNDA:0,_RNCNvXs_NtNtNtCs41oluKY1Omx_8airplay25audio11output_cpal14implementationNtB6_10CpalOutputNtNtBa_6output11AudioOutput4opens1_0Bc_
FNDA:0,_RNCNvXs_NtNtNtCs41oluKY1Omx_8airplay25audio11output_cpal14implementationNtB6_10CpalOutputNtNtBa_6output11AudioOutput4opens_0Bc_
FNDA:0,_RNCNvXs_NtNtNtCs41oluKY1Omx_8airplay25audio11output_cpal14implementationNtB6_10CpalOutputNtNtBa_6output11AudioOutput5start0Bc_
FNDA:0,_RNCNvXs_NtNtNtCs41oluKY1Omx_8airplay25audio11output_cpal14implementationNtB6_10CpalOutputNtNtBa_6output11AudioOutput5starts0_0Bc_
FNDA:0,_RNCNvXs_NtNtNtCs41oluKY1Omx_8airplay25audio11output_cpal14implementationNtB6_10CpalOutputNtNtBa_6output11AudioOutput5starts_0Bc_
FNDA:0,_RNvMNtNtNtCs41oluKY1Omx_8airplay25audio11output_cpal14implementationNtB2_10CpalOutput16run_command_loop
FNDA:0,_RNvMNtNtNtCs41oluKY1Omx_8airplay25audio11output_cpal14implementationNtB2_10CpalOutput19spawn_stream_thread
FNDA:1,_RNvMNtNtNtCs41oluKY1Omx_8airplay25audio11output_cpal14implementationNtB2_10CpalOutput3new
FNDA:0,_RNvXs_NtNtNtCs41oluKY1Omx_8airplay25audio11output_cpal14implementationNtB4_10CpalOutputNtNtB8_6output11AudioOutput10set_volume
FNDA:0,_RNvXs_NtNtNtCs41oluKY1Omx_8airplay25audio11output_cpal14implementationNtB4_10CpalOutputNtNtB8_6output11AudioOutput14default_device
FNDA:0,_RNvXs_NtNtNtCs41oluKY1Omx_8airplay25audio11output_cpal14implementationNtB4_10CpalOutputNtNtB8_6output11AudioOutput17enumerate_devices
FNDA:0,_RNvXs_NtNtNtCs41oluKY1Omx_8airplay25audio11output_cpal14implementationNtB4_10CpalOutputNtNtB8_6output11AudioOutput4open
FNDA:0,_RNvXs_NtNtNtCs41oluKY1Omx_8airplay25audio11output_cpal14implementationNtB4_10CpalOutputNtNtB8_6output11AudioOutput4stop
FNDA:0,_RNvXs_NtNtNtCs41oluKY1Omx_8airplay25audio11output_cpal14implementationNtB4_10CpalOutputNtNtB8_6output11AudioOutput5close
FNDA:0,_RNvXs_NtNtNtCs41oluKY1Omx_8airplay25audio11output_cpal14implementationNtB4_10CpalOutputNtNtB8_6output11AudioOutput5pause
FNDA:0,_RNvXs_NtNtNtCs41oluKY1Omx_8airplay25audio11output_cpal14implementationNtB4_10CpalOutputNtNtB8_6output11AudioOutput5start
FNDA:0,_RNvXs_NtNtNtCs41oluKY1Omx_8airplay25audio11output_cpal14implementationNtB4_10CpalOutputNtNtB8_6output11AudioOutput5state
FNDA:0,_RNvXs_NtNtNtCs41oluKY1Omx_8airplay25audio11output_cpal14implementationNtB4_10CpalOutputNtNtB8_6output11AudioOutput6format
FNDA:0,_RNvXs_NtNtNtCs41oluKY1Omx_8airplay25audio11output_cpal14implementationNtB4_10CpalOutputNtNtB8_6output11AudioOutput6resume
FNDA:0,_RNvXs_NtNtNtCs41oluKY1Omx_8airplay25audio11output_cpal14implementationNtB4_10CpalOutputNtNtB8_6output11AudioOutput6volume
FNDA:0,_RNvXs_NtNtNtCs41oluKY1Omx_8airplay25audio11output_cpal14implementationNtB4_10CpalOutputNtNtB8_6output11AudioOutput7latency
FNF:36
FNH:1
DA:50,1
DA:51,1
DA:53,1
DA:54,1
DA:55,1
DA:56,1
DA:57,1
DA:58,1
DA:59,1
DA:60,1
DA:61,1
DA:62,1
DA:64,0
DA:65,0
DA:66,0
DA:67,0
DA:68,0
DA:69,0
DA:70,0
DA:72,0
DA:74,0
DA:75,0
DA:76,0
DA:78,0
DA:79,0
DA:80,0
DA:83,0
DA:84,0
DA:85,0
DA:87,0
DA:89,0
DA:90,0
DA:91,0
DA:93,0
DA:94,0
DA:96,0
DA:97,0
DA:98,0
DA:99,0
DA:100,0
DA:101,0
DA:104,0
DA:105,0
DA:106,0
DA:107,0
DA:108,0
DA:109,0
DA:111,0
DA:113,0
DA:114,0
DA:115,0
DA:116,0
DA:117,0
DA:118,0
DA:119,0
DA:120,0
DA:121,0
DA:124,0
DA:125,0
DA:126,0
DA:127,0
DA:130,0
DA:131,0
DA:133,0
DA:134,0
DA:135,0
DA:137,0
DA:138,0
DA:139,0
DA:141,0
DA:142,0
DA:145,0
DA:146,0
DA:147,0
DA:148,0
DA:149,0
DA:150,0
DA:151,0
DA:152,0
DA:153,0
DA:156,0
DA:157,0
DA:158,0
DA:159,0
DA:162,0
DA:163,0
DA:164,0
DA:165,0
DA:166,0
DA:167,0
DA:168,0
DA:170,0
DA:171,0
DA:173,0
DA:174,0
DA:175,0
DA:176,0
DA:177,0
DA:179,0
DA:181,0
DA:183,0
DA:184,0
DA:185,0
DA:186,0
DA:187,0
DA:188,0
DA:189,0
DA:190,0
DA:193,0
DA:197,0
DA:198,0
DA:199,0
DA:200,0
DA:201,0
DA:203,0
DA:204,0
DA:205,0
DA:206,0
DA:208,0
DA:209,0
DA:210,0
DA:211,0
DA:214,0
DA:215,0
DA:217,0
DA:218,0
DA:220,0
DA:221,0
DA:222,0
DA:223,0
DA:224,0
DA:225,0
DA:226,0
DA:227,0
DA:228,0
DA:230,0
DA:232,0
DA:233,0
DA:234,0
DA:235,0
DA:237,0
DA:238,0
DA:239,0
DA:240,0
DA:241,0
DA:242,0
DA:243,0
DA:246,0
DA:247,0
DA:249,0
DA:250,0
DA:251,0
DA:252,0
DA:253,0
DA:255,0
DA:257,0
DA:258,0
DA:259,0
DA:260,0
DA:261,0
DA:262,0
DA:263,0
DA:264,0
DA:266,0
DA:267,0
DA:268,0
DA:269,0
DA:270,0
DA:271,0
DA:272,0
DA:273,0
DA:274,0
DA:275,0
DA:276,0
DA:278,0
DA:279,0
DA:280,0
DA:283,0
DA:284,0
DA:286,0
DA:287,0
DA:289,0
DA:290,0
DA:291,0
DA:292,0
DA:294,0
DA:295,0
DA:296,0
DA:297,0
DA:298,0
DA:300,0
DA:301,0
DA:302,0
DA:305,0
DA:306,0
DA:307,0
DA:310,0
DA:311,0
DA:312,0
DA:313,0
DA:314,0
DA:316,0
DA:318,0
DA:319,0
DA:321,0
DA:323,0
DA:324,0
DA:325,0
DA:326,0
DA:327,0
DA:328,0
DA:329,0
DA:332,0
DA:335,0
DA:336,0
DA:337,0
DA:339,0
DA:341,0
DA:342,0
DA:344,0
DA:345,0
DA:346,0
DA:347,0
DA:348,0
DA:349,0
DA:350,0
DA:352,0
DA:353,0
DA:354,0
DA:355,0
DA:356,0
DA:357,0
DA:358,0
DA:360,0
DA:361,0
DA:362,0
DA:363,0
DA:364,0
DA:365,0
DA:366,0
DA:368,0
DA:369,0
DA:370,0
DA:372,0
DA:373,0
DA:374,0
DA:375,0
DA:377,0
DA:378,0
DA:379,0
DA:381,0
DA:383,0
DA:384,0
DA:386,0
DA:387,0
DA:388,0
DA:390,0
DA:391,0
DA:392,0
BRF:0
BRH:0
LF:276
LH:12
end_of_record
SF:/app/src/audio/raop_encoder.rs
FN:71,_RNCNvMNtNtCslUrB7RWuRKg_8airplay25audio12raop_encoderNtB4_16RaopAudioEncoder10encode_raw0B8_
FN:56,_RNCNvMNtNtCslUrB7RWuRKg_8airplay25audio12raop_encoderNtB4_16RaopAudioEncoder12encode_frame0B8_
FN:67,_RNvMNtNtCslUrB7RWuRKg_8airplay25audio12raop_encoderNtB2_16RaopAudioEncoder10encode_raw
FN:42,_RNvMNtNtCslUrB7RWuRKg_8airplay25audio12raop_encoderNtB2_16RaopAudioEncoder12encode_frame
FN:85,_RNvMNtNtCslUrB7RWuRKg_8airplay25audio12raop_encoderNtB2_16RaopAudioEncoder12packet_index
FN:23,_RNvMNtNtCslUrB7RWuRKg_8airplay25audio12raop_encoderNtB2_16RaopAudioEncoder3new
FN:79,_RNvMNtNtCslUrB7RWuRKg_8airplay25audio12raop_encoderNtB2_16RaopAudioEncoder5reset
FN:71,_RNCNvMNtNtCs41oluKY1Omx_8airplay25audio12raop_encoderNtB4_16RaopAudioEncoder10encode_raw0B8_
FN:56,_RNCNvMNtNtCs41oluKY1Omx_8airplay25audio12raop_encoderNtB4_16RaopAudioEncoder12encode_frame0B8_
FN:67,_RNvMNtNtCs41oluKY1Omx_8airplay25audio12raop_encoderNtB2_16RaopAudioEncoder10encode_raw
FN:42,_RNvMNtNtCs41oluKY1Omx_8airplay25audio12raop_encoderNtB2_16RaopAudioEncoder12encode_frame
FN:85,_RNvMNtNtCs41oluKY1Omx_8airplay25audio12raop_encoderNtB2_16RaopAudioEncoder12packet_index
FN:23,_RNvMNtNtCs41oluKY1Omx_8airplay25audio12raop_encoderNtB2_16RaopAudioEncoder3new
FN:79,_RNvMNtNtCs41oluKY1Omx_8airplay25audio12raop_encoderNtB2_16RaopAudioEncoder5reset
FNDA:0,_RNCNvMNtNtCslUrB7RWuRKg_8airplay25audio12raop_encoderNtB4_16RaopAudioEncoder10encode_raw0B8_
FNDA:0,_RNCNvMNtNtCslUrB7RWuRKg_8airplay25audio12raop_encoderNtB4_16RaopAudioEncoder12encode_frame0B8_
FNDA:0,_RNvMNtNtCslUrB7RWuRKg_8airplay25audio12raop_encoderNtB2_16RaopAudioEncoder10encode_raw
FNDA:0,_RNvMNtNtCslUrB7RWuRKg_8airplay25audio12raop_encoderNtB2_16RaopAudioEncoder12encode_frame
FNDA:0,_RNvMNtNtCslUrB7RWuRKg_8airplay25audio12raop_encoderNtB2_16RaopAudioEncoder12packet_index
FNDA:0,_RNvMNtNtCslUrB7RWuRKg_8airplay25audio12raop_encoderNtB2_16RaopAudioEncoder3new
FNDA:0,_RNvMNtNtCslUrB7RWuRKg_8airplay25audio12raop_encoderNtB2_16RaopAudioEncoder5reset
FNDA:0,_RNCNvMNtNtCs41oluKY1Omx_8airplay25audio12raop_encoderNtB4_16RaopAudioEncoder10encode_raw0B8_
FNDA:0,_RNCNvMNtNtCs41oluKY1Omx_8airplay25audio12raop_encoderNtB4_16RaopAudioEncoder12encode_frame0B8_
FNDA:0,_RNvMNtNtCs41oluKY1Omx_8airplay25audio12raop_encoderNtB2_16RaopAudioEncoder10encode_raw
FNDA:0,_RNvMNtNtCs41oluKY1Omx_8airplay25audio12raop_encoderNtB2_16RaopAudioEncoder12encode_frame
FNDA:0,_RNvMNtNtCs41oluKY1Omx_8airplay25audio12raop_encoderNtB2_16RaopAudioEncoder12packet_index
FNDA:0,_RNvMNtNtCs41oluKY1Omx_8airplay25audio12raop_encoderNtB2_16RaopAudioEncoder3new
FNDA:0,_RNvMNtNtCs41oluKY1Omx_8airplay25audio12raop_encoderNtB2_16RaopAudioEncoder5reset
FNF:7
FNH:0
DA:23,0
DA:24,0
DA:25,0
DA:26,0
DA:27,0
DA:28,0
DA:29,0
DA:30,0
DA:42,0
DA:44,0
DA:45,0
DA:46,0
DA:47,0
DA:53,0
DA:54,0
DA:55,0
DA:56,0
DA:58,0
DA:60,0
DA:61,0
DA:67,0
DA:68,0
DA:69,0
DA:70,0
DA:71,0
DA:73,0
DA:75,0
DA:76,0
DA:79,0
DA:80,0
DA:81,0
DA:85,0
DA:86,0
DA:87,0
BRF:0
BRH:0
LF:36
LH:0
end_of_record
SF:/app/src/client/mod.rs
FN:655,_RINvMNtCslUrB7RWuRKg_8airplay26clientNtB3_13AirPlayClient12stream_audiopEB5_
FN:658,_RNCINvMNtCslUrB7RWuRKg_8airplay26clientNtB5_13AirPlayClient12stream_audiopE0B7_
FN:711,_RNCNCINvMNtCslUrB7RWuRKg_8airplay26clientNtB7_13AirPlayClient12stream_audiopE00B9_
FN:766,_RNCNCNCINvMNtCslUrB7RWuRKg_8airplay26clientNtB9_13AirPlayClient12stream_audiopE000Bb_
FN:386,_RNCNCNvMNtCslUrB7RWuRKg_8airplay26clientNtB6_13AirPlayClient4next00B8_
FN:404,_RNCNCNvMNtCslUrB7RWuRKg_8airplay26clientNtB6_13AirPlayClient8previous00B8_
FN:889,_RNCNCNvMs0_NtCslUrB7RWuRKg_8airplay26clientNtB9_20UnifiedAirPlayClient7connect00Bb_
FN:595,_RNCNvMNtCslUrB7RWuRKg_8airplay26clientNtB4_13AirPlayClient10set_repeat0B6_
FN:530,_RNCNvMNtCslUrB7RWuRKg_8airplay26clientNtB4_13AirPlayClient11set_artwork0B6_
FN:578,_RNCNvMNtCslUrB7RWuRKg_8airplay26clientNtB4_13AirPlayClient11set_shuffle0B6_
FN:500,_RNCNvMNtCslUrB7RWuRKg_8airplay26clientNtB4_13AirPlayClient11toggle_mute0B6_
FN:464,_RNCNvMNtCslUrB7RWuRKg_8airplay26clientNtB4_13AirPlayClient11volume_down0B6_
FN:512,_RNCNvMNtCslUrB7RWuRKg_8airplay26clientNtB4_13AirPlayClient12set_metadata0B6_
FN:521,_RNCNvMNtCslUrB7RWuRKg_8airplay26clientNtB4_13AirPlayClient12set_progress0B6_
FN:184,_RNCNvMNtCslUrB7RWuRKg_8airplay26clientNtB4_13AirPlayClient13forget_device0B6_
FN:814,_RNCNvMNtCslUrB7RWuRKg_8airplay26clientNtB4_13AirPlayClient13is_ptp_active0B6_
FN:352,_RNCNvMNtCslUrB7RWuRKg_8airplay26clientNtB4_13AirPlayClient15toggle_playback0B6_
FN:317,_RNCNvMNtCslUrB7RWuRKg_8airplay26clientNtB4_13AirPlayClient16connected_device0B6_
FN:631,_RNCNvMNtCslUrB7RWuRKg_8airplay26clientNtB4_13AirPlayClient17get_playback_info0B6_
FN:555,_RNCNvMNtCslUrB7RWuRKg_8airplay26clientNtB4_13AirPlayClient17remove_from_queue0B6_
FN:476,_RNCNvMNtCslUrB7RWuRKg_8airplay26clientNtB4_13AirPlayClient4mute0B6_
FN:379,_RNCNvMNtCslUrB7RWuRKg_8airplay26clientNtB4_13AirPlayClient4next0B6_
FN:416,_RNCNvMNtCslUrB7RWuRKg_8airplay26clientNtB4_13AirPlayClient4seek0B6_
FN:569,_RNCNvMNtCslUrB7RWuRKg_8airplay26clientNtB4_13AirPlayClient5queue0B6_
FN:803,_RNCNvMNtCslUrB7RWuRKg_8airplay26clientNtB4_13AirPlayClient5state0B6_
FN:488,_RNCNvMNtCslUrB7RWuRKg_8airplay26clientNtB4_13AirPlayClient6unmute0B6_
FN:398,_RNCNvMNtCslUrB7RWuRKg_8airplay26clientNtB4_13AirPlayClient8previous0B6_
FN:546,_RNCNvMNtCslUrB7RWuRKg_8airplay26clientNtB4_13AirPlayClient9play_next0B6_
FN:819,_RNCNvMNtCslUrB7RWuRKg_8airplay26clientNtB4_13AirPlayClient9ptp_clock0B6_
FN:452,_RNCNvMNtCslUrB7RWuRKg_8airplay26clientNtB4_13AirPlayClient9volume_up0B6_
FN:925,_RNCNvMs0_NtCslUrB7RWuRKg_8airplay26clientNtB7_20UnifiedAirPlayClient10disconnect0B9_
FN:1009,_RNCNvMs0_NtCslUrB7RWuRKg_8airplay26clientNtB7_20UnifiedAirPlayClient10set_volume0B9_
FN:1024,_RNCNvMs0_NtCslUrB7RWuRKg_8airplay26clientNtB7_20UnifiedAirPlayClient12stream_audio0B9_
FN:964,_RNCNvMs0_NtCslUrB7RWuRKg_8airplay26clientNtB7_20UnifiedAirPlayClient4play0B9_
FN:994,_RNCNvMs0_NtCslUrB7RWuRKg_8airplay26clientNtB7_20UnifiedAirPlayClient4stop0B9_
FN:979,_RNCNvMs0_NtCslUrB7RWuRKg_8airplay26clientNtB7_20UnifiedAirPlayClient5pause0B9_
FN:887,_RNCNvMs0_NtCslUrB7RWuRKg_8airplay26clientNtB7_20UnifiedAirPlayClient7connect0B9_
FN:276,_RNvMNtCslUrB7RWuRKg_8airplay26clientNtB2_13AirPlayClient10disconnect
FN:595,_RNvMNtCslUrB7RWuRKg_8airplay26clientNtB2_13AirPlayClient10set_repeat
FN:438,_RNvMNtCslUrB7RWuRKg_8airplay26clientNtB2_13AirPlayClient10set_volume
FN:563,_RNvMNtCslUrB7RWuRKg_8airplay26clientNtB2_13AirPlayClient11clear_queue
FN:530,_RNvMNtCslUrB7RWuRKg_8airplay26clientNtB2_13AirPlayClient11set_artwork
FN:578,_RNvMNtCslUrB7RWuRKg_8airplay26clientNtB2_13AirPlayClient11set_shuffle
FN:500,_RNvMNtCslUrB7RWuRKg_8airplay26clientNtB2_13AirPlayClient11toggle_mute
FN:464,_RNvMNtCslUrB7RWuRKg_8airplay26clientNtB2_13AirPlayClient11volume_down
FN:537,_RNvMNtCslUrB7RWuRKg_8airplay26clientNtB2_13AirPlayClient12add_to_queue
FN:295,_RNvMNtCslUrB7RWuRKg_8airplay26clientNtB2_13AirPlayClient12is_connected
FN:512,_RNvMNtCslUrB7RWuRKg_8airplay26clientNtB2_13AirPlayClient12set_metadata
FN:521,_RNvMNtCslUrB7RWuRKg_8airplay26clientNtB2_13AirPlayClient12set_progress
FN:184,_RNvMNtCslUrB7RWuRKg_8airplay26clientNtB2_13AirPlayClient13forget_device
FN:814,_RNvMNtCslUrB7RWuRKg_8airplay26clientNtB2_13AirPlayClient13is_ptp_active
FN:188,_RNvMNtCslUrB7RWuRKg_8airplay26clientNtB2_13AirPlayClient13start_monitor
FN:130,_RNvMNtCslUrB7RWuRKg_8airplay26clientNtB2_13AirPlayClient14default_client
FN:422,_RNvMNtCslUrB7RWuRKg_8airplay26clientNtB2_13AirPlayClient14playback_state
FN:809,_RNvMNtCslUrB7RWuRKg_8airplay26clientNtB2_13AirPlayClient15subscribe_state
FN:352,_RNvMNtCslUrB7RWuRKg_8airplay26clientNtB2_13AirPlayClient15toggle_playback
FN:317,_RNvMNtCslUrB7RWuRKg_8airplay26clientNtB2_13AirPlayClient16connected_device
FN:304,_RNvMNtCslUrB7RWuRKg_8airplay26clientNtB2_13AirPlayClient16ensure_connected
FN:228,_RNvMNtCslUrB7RWuRKg_8airplay26clientNtB2_13AirPlayClient16start_keep_alive
FN:798,_RNvMNtCslUrB7RWuRKg_8airplay26clientNtB2_13AirPlayClient16subscribe_events
FN:631,_RNvMNtCslUrB7RWuRKg_8airplay26clientNtB2_13AirPlayClient17get_playback_info
FN:555,_RNvMNtCslUrB7RWuRKg_8airplay26clientNtB2_13AirPlayClient17remove_from_queue
FN:111,_RNvMNtCslUrB7RWuRKg_8airplay26clientNtB2_13AirPlayClient20with_pairing_storage
FN:87,_RNvMNtCslUrB7RWuRKg_8airplay26clientNtB2_13AirPlayClient3new
FN:476,_RNvMNtCslUrB7RWuRKg_8airplay26clientNtB2_13AirPlayClient4mute
FN:379,_RNvMNtCslUrB7RWuRKg_8airplay26clientNtB2_13AirPlayClient4next
FN:328,_RNvMNtCslUrB7RWuRKg_8airplay26clientNtB2_13AirPlayClient4play
FN:141,_RNvMNtCslUrB7RWuRKg_8airplay26clientNtB2_13AirPlayClient4scan
FN:416,_RNvMNtCslUrB7RWuRKg_8airplay26clientNtB2_13AirPlayClient4seek
FN:362,_RNvMNtCslUrB7RWuRKg_8airplay26clientNtB2_13AirPlayClient4stop
FN:340,_RNvMNtCslUrB7RWuRKg_8airplay26clientNtB2_13AirPlayClient5pause
FN:569,_RNvMNtCslUrB7RWuRKg_8airplay26clientNtB2_13AirPlayClient5queue
FN:803,_RNvMNtCslUrB7RWuRKg_8airplay26clientNtB2_13AirPlayClient5state
FN:488,_RNvMNtCslUrB7RWuRKg_8airplay26clientNtB2_13AirPlayClient6unmute
FN:429,_RNvMNtCslUrB7RWuRKg_8airplay26clientNtB2_13AirPlayClient6volume
FN:161,_RNvMNtCslUrB7RWuRKg_8airplay26clientNtB2_13AirPlayClient7connect
FN:150,_RNvMNtCslUrB7RWuRKg_8airplay26clientNtB2_13AirPlayClient8discover
FN:607,_RNvMNtCslUrB7RWuRKg_8airplay26clientNtB2_13AirPlayClient8play_url
FN:398,_RNvMNtCslUrB7RWuRKg_8airplay26clientNtB2_13AirPlayClient8previous
FN:546,_RNvMNtCslUrB7RWuRKg_8airplay26clientNtB2_13AirPlayClient9play_next
FN:819,_RNvMNtCslUrB7RWuRKg_8airplay26clientNtB2_13AirPlayClient9ptp_clock
FN:452,_RNvMNtCslUrB7RWuRKg_8airplay26clientNtB2_13AirPlayClient9volume_up
FN:925,_RNvMs0_NtCslUrB7RWuRKg_8airplay26clientNtB5_20UnifiedAirPlayClient10disconnect
FN:1009,_RNvMs0_NtCslUrB7RWuRKg_8airplay26clientNtB5_20UnifiedAirPlayClient10set_volume
FN:955,_RNvMs0_NtCslUrB7RWuRKg_8airplay26clientNtB5_20UnifiedAirPlayClient11session_mut
FN:873,_RNvMs0_NtCslUrB7RWuRKg_8airplay26clientNtB5_20UnifiedAirPlayClient11with_config
FN:937,_RNvMs0_NtCslUrB7RWuRKg_8airplay26clientNtB5_20UnifiedAirPlayClient12is_connected
FN:1024,_RNvMs0_NtCslUrB7RWuRKg_8airplay26clientNtB5_20UnifiedAirPlayClient12stream_audio
FN:867,_RNvMs0_NtCslUrB7RWuRKg_8airplay26clientNtB5_20UnifiedAirPlayClient3new
FN:964,_RNvMs0_NtCslUrB7RWuRKg_8airplay26clientNtB5_20UnifiedAirPlayClient4play
FN:994,_RNvMs0_NtCslUrB7RWuRKg_8airplay26clientNtB5_20UnifiedAirPlayClient4stop
FN:979,_RNvMs0_NtCslUrB7RWuRKg_8airplay26clientNtB5_20UnifiedAirPlayClient5pause
FN:887,_RNvMs0_NtCslUrB7RWuRKg_8airplay26clientNtB5_20UnifiedAirPlayClient7connect
FN:949,_RNvMs0_NtCslUrB7RWuRKg_8airplay26clientNtB5_20UnifiedAirPlayClient7session
FN:943,_RNvMs0_NtCslUrB7RWuRKg_8airplay26clientNtB5_20UnifiedAirPlayClient8protocol
FN:1036,_RNvXs1_NtCslUrB7RWuRKg_8airplay26clientNtB5_20UnifiedAirPlayClientNtNtCs3XFJfFEDSOQ_4core7default7Default7default
FN:838,_RNvXs_NtCslUrB7RWuRKg_8airplay26clientNtB4_12ClientConfigNtNtCs3XFJfFEDSOQ_4core7default7Default7default
FN:310,_RNCNCNvMNtCslUrB7RWuRKg_8airplay26clientNtB6_13AirPlayClient16ensure_connected00B8_
FN:366,_RNCNCNvMNtCslUrB7RWuRKg_8airplay26clientNtB6_13AirPlayClient4stop00B8_
FN:276,_RNCNvMNtCslUrB7RWuRKg_8airplay26clientNtB4_13AirPlayClient10disconnect0B6_
FN:438,_RNCNvMNtCslUrB7RWuRKg_8airplay26clientNtB4_13AirPlayClient10set_volume0B6_
FN:563,_RNCNvMNtCslUrB7RWuRKg_8airplay26clientNtB4_13AirPlayClient11clear_queue0B6_
FN:537,_RNCNvMNtCslUrB7RWuRKg_8airplay26clientNtB4_13AirPlayClient12add_to_queue0B6_
FN:295,_RNCNvMNtCslUrB7RWuRKg_8airplay26clientNtB4_13AirPlayClient12is_connected0B6_
FN:194,_RNCNvMNtCslUrB7RWuRKg_8airplay26clientNtB4_13AirPlayClient13start_monitor0B6_
FN:422,_RNCNvMNtCslUrB7RWuRKg_8airplay26clientNtB4_13AirPlayClient14playback_state0B6_
FN:304,_RNCNvMNtCslUrB7RWuRKg_8airplay26clientNtB4_13AirPlayClient16ensure_connected0B6_
FN:231,_RNCNvMNtCslUrB7RWuRKg_8airplay26clientNtB4_13AirPlayClient16start_keep_alive0B6_
FN:328,_RNCNvMNtCslUrB7RWuRKg_8airplay26clientNtB4_13AirPlayClient4play0B6_
FN:141,_RNCNvMNtCslUrB7RWuRKg_8airplay26clientNtB4_13AirPlayClient4scan0B6_
FN:362,_RNCNvMNtCslUrB7RWuRKg_8airplay26clientNtB4_13AirPlayClient4stop0B6_
FN:340,_RNCNvMNtCslUrB7RWuRKg_8airplay26clientNtB4_13AirPlayClient5pause0B6_
FN:429,_RNCNvMNtCslUrB7RWuRKg_8airplay26clientNtB4_13AirPlayClient6volume0B6_
FN:161,_RNCNvMNtCslUrB7RWuRKg_8airplay26clientNtB4_13AirPlayClient7connect0B6_
FN:607,_RNCNvMNtCslUrB7RWuRKg_8airplay26clientNtB4_13AirPlayClient8play_url0B6_
FN:938,_RNCNvMs0_NtCslUrB7RWuRKg_8airplay26clientNtB7_20UnifiedAirPlayClient12is_connected0B9_
FN:655,_RINvMNtCs41oluKY1Omx_8airplay26clientNtB3_13AirPlayClient12stream_audioNtNtNtB5_9streaming4file10FileSourceEB5_
FN:658,_RNCINvMNtCs41oluKY1Omx_8airplay26clientNtB5_13AirPlayClient12stream_audioNtNtNtB7_9streaming4file10FileSourceE0B7_
FN:711,_RNCNCINvMNtCs41oluKY1Omx_8airplay26clientNtB7_13AirPlayClient12stream_audioNtNtNtB9_9streaming4file10FileSourceE00B9_
FN:766,_RNCNCNCINvMNtCs41oluKY1Omx_8airplay26clientNtB9_13AirPlayClient12stream_audioNtNtNtBb_9streaming4file10FileSourceE000Bb_
FN:310,_RNCNCNvMNtCs41oluKY1Omx_8airplay26clientNtB6_13AirPlayClient16ensure_connected00B8_
FN:366,_RNCNCNvMNtCs41oluKY1Omx_8airplay26clientNtB6_13AirPlayClient4stop00B8_
FN:889,_RNCNCNvMs0_NtCs41oluKY1Omx_8airplay26clientNtB9_20UnifiedAirPlayClient7connect00Bb_
FN:276,_RNCNvMNtCs41oluKY1Omx_8airplay26clientNtB4_13AirPlayClient10disconnect0B6_
FN:595,_RNCNvMNtCs41oluKY1Omx_8airplay26clientNtB4_13AirPlayClient10set_repeat0B6_
FN:438,_RNCNvMNtCs41oluKY1Omx_8airplay26clientNtB4_13AirPlayClient10set_volume0B6_
FN:563,_RNCNvMNtCs41oluKY1Omx_8airplay26clientNtB4_13AirPlayClient11clear_queue0B6_
FN:578,_RNCNvMNtCs41oluKY1Omx_8airplay26clientNtB4_13AirPlayClient11set_shuffle0B6_
FN:537,_RNCNvMNtCs41oluKY1Omx_8airplay26clientNtB4_13AirPlayClient12add_to_queue0B6_
FN:295,_RNCNvMNtCs41oluKY1Omx_8airplay26clientNtB4_13AirPlayClient12is_connected0B6_
FN:194,_RNCNvMNtCs41oluKY1Omx_8airplay26clientNtB4_13AirPlayClient13start_monitor0B6_
FN:422,_RNCNvMNtCs41oluKY1Omx_8airplay26clientNtB4_13AirPlayClient14playback_state0B6_
FN:317,_RNCNvMNtCs41oluKY1Omx_8airplay26clientNtB4_13AirPlayClient16connected_device0B6_
FN:304,_RNCNvMNtCs41oluKY1Omx_8airplay26clientNtB4_13AirPlayClient16ensure_connected0B6_
FN:231,_RNCNvMNtCs41oluKY1Omx_8airplay26clientNtB4_13AirPlayClient16start_keep_alive0B6_
FN:555,_RNCNvMNtCs41oluKY1Omx_8airplay26clientNtB4_13AirPlayClient17remove_from_queue0B6_
FN:476,_RNCNvMNtCs41oluKY1Omx_8airplay26clientNtB4_13AirPlayClient4mute0B6_
FN:328,_RNCNvMNtCs41oluKY1Omx_8airplay26clientNtB4_13AirPlayClient4play0B6_
FN:141,_RNCNvMNtCs41oluKY1Omx_8airplay26clientNtB4_13AirPlayClient4scan0B6_
FN:416,_RNCNvMNtCs41oluKY1Omx_8airplay26clientNtB4_13AirPlayClient4seek0B6_
FN:362,_RNCNvMNtCs41oluKY1Omx_8airplay26clientNtB4_13AirPlayClient4stop0B6_
FN:340,_RNCNvMNtCs41oluKY1Omx_8airplay26clientNtB4_13AirPlayClient5pause0B6_
FN:569,_RNCNvMNtCs41oluKY1Omx_8airplay26clientNtB4_13AirPlayClient5queue0B6_
FN:803,_RNCNvMNtCs41oluKY1Omx_8airplay26clientNtB4_13AirPlayClient5state0B6_
FN:488,_RNCNvMNtCs41oluKY1Omx_8airplay26clientNtB4_13AirPlayClient6unmute0B6_
FN:429,_RNCNvMNtCs41oluKY1Omx_8airplay26clientNtB4_13AirPlayClient6volume0B6_
FN:161,_RNCNvMNtCs41oluKY1Omx_8airplay26clientNtB4_13AirPlayClient7connect0B6_
FN:607,_RNCNvMNtCs41oluKY1Omx_8airplay26clientNtB4_13AirPlayClient8play_url0B6_
FN:925,_RNCNvMs0_NtCs41oluKY1Omx_8airplay26clientNtB7_20UnifiedAirPlayClient10disconnect0B9_
FN:938,_RNCNvMs0_NtCs41oluKY1Omx_8airplay26clientNtB7_20UnifiedAirPlayClient12is_connected0B9_
FN:1024,_RNCNvMs0_NtCs41oluKY1Omx_8airplay26clientNtB7_20UnifiedAirPlayClient12stream_audio0B9_
FN:887,_RNCNvMs0_NtCs41oluKY1Omx_8airplay26clientNtB7_20UnifiedAirPlayClient7connect0B9_
FN:386,_RNCNCNvMNtCs41oluKY1Omx_8airplay26clientNtB6_13AirPlayClient4next00B8_
FN:404,_RNCNCNvMNtCs41oluKY1Omx_8airplay26clientNtB6_13AirPlayClient8previous00B8_
FN:530,_RNCNvMNtCs41oluKY1Omx_8airplay26clientNtB4_13AirPlayClient11set_artwork0B6_
FN:500,_RNCNvMNtCs41oluKY1Omx_8airplay26clientNtB4_13AirPlayClient11toggle_mute0B6_
FN:464,_RNCNvMNtCs41oluKY1Omx_8airplay26clientNtB4_13AirPlayClient11volume_down0B6_
FN:512,_RNCNvMNtCs41oluKY1Omx_8airplay26clientNtB4_13AirPlayClient12set_metadata0B6_
FN:521,_RNCNvMNtCs41oluKY1Omx_8airplay26clientNtB4_13AirPlayClient12set_progress0B6_
FN:184,_RNCNvMNtCs41oluKY1Omx_8airplay26clientNtB4_13AirPlayClient13forget_device0B6_
FN:814,_RNCNvMNtCs41oluKY1Omx_8airplay26clientNtB4_13AirPlayClient13is_ptp_active0B6_
FN:352,_RNCNvMNtCs41oluKY1Omx_8airplay26clientNtB4_13AirPlayClient15toggle_playback0B6_
FN:631,_RNCNvMNtCs41oluKY1Omx_8airplay26clientNtB4_13AirPlayClient17get_playback_info0B6_
FN:379,_RNCNvMNtCs41oluKY1Omx_8airplay26clientNtB4_13AirPlayClient4next0B6_
FN:398,_RNCNvMNtCs41oluKY1Omx_8airplay26clientNtB4_13AirPlayClient8previous0B6_
FN:546,_RNCNvMNtCs41oluKY1Omx_8airplay26clientNtB4_13AirPlayClient9play_next0B6_
FN:819,_RNCNvMNtCs41oluKY1Omx_8airplay26clientNtB4_13AirPlayClient9ptp_clock0B6_
FN:452,_RNCNvMNtCs41oluKY1Omx_8airplay26clientNtB4_13AirPlayClient9volume_up0B6_
FN:1009,_RNCNvMs0_NtCs41oluKY1Omx_8airplay26clientNtB7_20UnifiedAirPlayClient10set_volume0B9_
FN:964,_RNCNvMs0_NtCs41oluKY1Omx_8airplay26clientNtB7_20UnifiedAirPlayClient4play0B9_
FN:994,_RNCNvMs0_NtCs41oluKY1Omx_8airplay26clientNtB7_20UnifiedAirPlayClient4stop0B9_
FN:979,_RNCNvMs0_NtCs41oluKY1Omx_8airplay26clientNtB7_20UnifiedAirPlayClient5pause0B9_
FN:530,_RNvMNtCs41oluKY1Omx_8airplay26clientNtB2_13AirPlayClient11set_artwork
FN:500,_RNvMNtCs41oluKY1Omx_8airplay26clientNtB2_13AirPlayClient11toggle_mute
FN:464,_RNvMNtCs41oluKY1Omx_8airplay26clientNtB2_13AirPlayClient11volume_down
FN:512,_RNvMNtCs41oluKY1Omx_8airplay26clientNtB2_13AirPlayClient12set_metadata
FN:521,_RNvMNtCs41oluKY1Omx_8airplay26clientNtB2_13AirPlayClient12set_progress
FN:184,_RNvMNtCs41oluKY1Omx_8airplay26clientNtB2_13AirPlayClient13forget_device
FN:814,_RNvMNtCs41oluKY1Omx_8airplay26clientNtB2_13AirPlayClient13is_ptp_active
FN:809,_RNvMNtCs41oluKY1Omx_8airplay26clientNtB2_13AirPlayClient15subscribe_state
FN:352,_RNvMNtCs41oluKY1Omx_8airplay26clientNtB2_13AirPlayClient15toggle_playback
FN:631,_RNvMNtCs41oluKY1Omx_8airplay26clientNtB2_13AirPlayClient17get_playback_info
FN:111,_RNvMNtCs41oluKY1Omx_8airplay26clientNtB2_13AirPlayClient20with_pairing_storage
FN:379,_RNvMNtCs41oluKY1Omx_8airplay26clientNtB2_13AirPlayClient4next
FN:150,_RNvMNtCs41oluKY1Omx_8airplay26clientNtB2_13AirPlayClient8discover
FN:398,_RNvMNtCs41oluKY1Omx_8airplay26clientNtB2_13AirPlayClient8previous
FN:546,_RNvMNtCs41oluKY1Omx_8airplay26clientNtB2_13AirPlayClient9play_next
FN:819,_RNvMNtCs41oluKY1Omx_8airplay26clientNtB2_13AirPlayClient9ptp_clock
FN:452,_RNvMNtCs41oluKY1Omx_8airplay26clientNtB2_13AirPlayClient9volume_up
FN:1009,_RNvMs0_NtCs41oluKY1Omx_8airplay26clientNtB5_20UnifiedAirPlayClient10set_volume
FN:964,_RNvMs0_NtCs41oluKY1Omx_8airplay26clientNtB5_20UnifiedAirPlayClient4play
FN:994,_RNvMs0_NtCs41oluKY1Omx_8airplay26clientNtB5_20UnifiedAirPlayClient4stop
FN:979,_RNvMs0_NtCs41oluKY1Omx_8airplay26clientNtB5_20UnifiedAirPlayClient5pause
FN:1036,_RNvXs1_NtCs41oluKY1Omx_8airplay26clientNtB5_20UnifiedAirPlayClientNtNtCs3XFJfFEDSOQ_4core7default7Default7default
FN:276,_RNvMNtCs41oluKY1Omx_8airplay26clientNtB2_13AirPlayClient10disconnect
FN:595,_RNvMNtCs41oluKY1Omx_8airplay26clientNtB2_13AirPlayClient10set_repeat
FN:438,_RNvMNtCs41oluKY1Omx_8airplay26clientNtB2_13AirPlayClient10set_volume
FN:563,_RNvMNtCs41oluKY1Omx_8airplay26clientNtB2_13AirPlayClient11clear_queue
FN:578,_RNvMNtCs41oluKY1Omx_8airplay26clientNtB2_13AirPlayClient11set_shuffle
FN:537,_RNvMNtCs41oluKY1Omx_8airplay26clientNtB2_13AirPlayClient12add_to_queue
FN:295,_RNvMNtCs41oluKY1Omx_8airplay26clientNtB2_13AirPlayClient12is_connected
FN:188,_RNvMNtCs41oluKY1Omx_8airplay26clientNtB2_13AirPlayClient13start_monitor
FN:130,_RNvMNtCs41oluKY1Omx_8airplay26clientNtB2_13AirPlayClient14default_client
FN:422,_RNvMNtCs41oluKY1Omx_8airplay26clientNtB2_13AirPlayClient14playback_state
FN:317,_RNvMNtCs41oluKY1Omx_8airplay26clientNtB2_13AirPlayClient16connected_device
FN:304,_RNvMNtCs41oluKY1Omx_8airplay26clientNtB2_13AirPlayClient16ensure_connected
FN:228,_RNvMNtCs41oluKY1Omx_8airplay26clientNtB2_13AirPlayClient16start_keep_alive
FN:798,_RNvMNtCs41oluKY1Omx_8airplay26clientNtB2_13AirPlayClient16subscribe_events
FN:555,_RNvMNtCs41oluKY1Omx_8airplay26clientNtB2_13AirPlayClient17remove_from_queue
FN:87,_RNvMNtCs41oluKY1Omx_8airplay26clientNtB2_13AirPlayClient3new
FN:476,_RNvMNtCs41oluKY1Omx_8airplay26clientNtB2_13AirPlayClient4mute
FN:328,_RNvMNtCs41oluKY1Omx_8airplay26clientNtB2_13AirPlayClient4play
FN:141,_RNvMNtCs41oluKY1Omx_8airplay26clientNtB2_13AirPlayClient4scan
FN:416,_RNvMNtCs41oluKY1Omx_8airplay26clientNtB2_13AirPlayClient4seek
FN:362,_RNvMNtCs41oluKY1Omx_8airplay26clientNtB2_13AirPlayClient4stop
FN:340,_RNvMNtCs41oluKY1Omx_8airplay26clientNtB2_13AirPlayClient5pause
FN:569,_RNvMNtCs41oluKY1Omx_8airplay26clientNtB2_13AirPlayClient5queue
FN:803,_RNvMNtCs41oluKY1Omx_8airplay26clientNtB2_13AirPlayClient5state
FN:488,_RNvMNtCs41oluKY1Omx_8airplay26clientNtB2_13AirPlayClient6unmute
FN:429,_RNvMNtCs41oluKY1Omx_8airplay26clientNtB2_13AirPlayClient6volume
FN:161,_RNvMNtCs41oluKY1Omx_8airplay26clientNtB2_13AirPlayClient7connect
FN:607,_RNvMNtCs41oluKY1Omx_8airplay26clientNtB2_13AirPlayClient8play_url
FN:925,_RNvMs0_NtCs41oluKY1Omx_8airplay26clientNtB5_20UnifiedAirPlayClient10disconnect
FN:955,_RNvMs0_NtCs41oluKY1Omx_8airplay26clientNtB5_20UnifiedAirPlayClient11session_mut
FN:873,_RNvMs0_NtCs41oluKY1Omx_8airplay26clientNtB5_20UnifiedAirPlayClient11with_config
FN:937,_RNvMs0_NtCs41oluKY1Omx_8airplay26clientNtB5_20UnifiedAirPlayClient12is_connected
FN:1024,_RNvMs0_NtCs41oluKY1Omx_8airplay26clientNtB5_20UnifiedAirPlayClient12stream_audio
FN:867,_RNvMs0_NtCs41oluKY1Omx_8airplay26clientNtB5_20UnifiedAirPlayClient3new
FN:887,_RNvMs0_NtCs41oluKY1Omx_8airplay26clientNtB5_20UnifiedAirPlayClient7connect
FN:949,_RNvMs0_NtCs41oluKY1Omx_8airplay26clientNtB5_20UnifiedAirPlayClient7session
FN:943,_RNvMs0_NtCs41oluKY1Omx_8airplay26clientNtB5_20UnifiedAirPlayClient8protocol
FN:838,_RNvXs_NtCs41oluKY1Omx_8airplay26clientNtB4_12ClientConfigNtNtCs3XFJfFEDSOQ_4core7default7Default7default
FN:803,_RNCNvMNtCslUrB7RWuRKg_8airplay26clientNtB4_13AirPlayClient5state0Cs8JMl5qJMkJ2_18client_integration
FN:386,_RNCNCNvMNtCslUrB7RWuRKg_8airplay26clientNtB6_13AirPlayClient4next00CsjZ7WIzFe7Th_18player_integration
FN:595,_RNCNvMNtCslUrB7RWuRKg_8airplay26clientNtB4_13AirPlayClient10set_repeat0CsjZ7WIzFe7Th_18player_integration
FN:578,_RNCNvMNtCslUrB7RWuRKg_8airplay26clientNtB4_13AirPlayClient11set_shuffle0CsjZ7WIzFe7Th_18player_integration
FN:476,_RNCNvMNtCslUrB7RWuRKg_8airplay26clientNtB4_13AirPlayClient4mute0CsjZ7WIzFe7Th_18player_integration
FN:379,_RNCNvMNtCslUrB7RWuRKg_8airplay26clientNtB4_13AirPlayClient4next0CsjZ7WIzFe7Th_18player_integration
FN:416,_RNCNvMNtCslUrB7RWuRKg_8airplay26clientNtB4_13AirPlayClient4seek0CsjZ7WIzFe7Th_18player_integration
FN:569,_RNCNvMNtCslUrB7RWuRKg_8airplay26clientNtB4_13AirPlayClient5queue0CsjZ7WIzFe7Th_18player_integration
FN:803,_RNCNvMNtCslUrB7RWuRKg_8airplay26clientNtB4_13AirPlayClient5state0CsjZ7WIzFe7Th_18player_integration
FN:488,_RNCNvMNtCslUrB7RWuRKg_8airplay26clientNtB4_13AirPlayClient6unmute0CsjZ7WIzFe7Th_18player_integration
FN:889,_RNCNCNvMs0_NtCslUrB7RWuRKg_8airplay26clientNtB9_20UnifiedAirPlayClient7connect00CsiLTL9l25OEE_25raop_extended_integration
FN:925,_RNCNvMs0_NtCslUrB7RWuRKg_8airplay26clientNtB7_20UnifiedAirPlayClient10disconnect0CsiLTL9l25OEE_25raop_extended_integration
FN:1009,_RNCNvMs0_NtCslUrB7RWuRKg_8airplay26clientNtB7_20UnifiedAirPlayClient10set_volume0CsiLTL9l25OEE_25raop_extended_integration
FN:887,_RNCNvMs0_NtCslUrB7RWuRKg_8airplay26clientNtB7_20UnifiedAirPlayClient7connect0CsiLTL9l25OEE_25raop_extended_integration
FN:889,_RNCNCNvMs0_NtCslUrB7RWuRKg_8airplay26clientNtB9_20UnifiedAirPlayClient7connect00Cs5E0S2Mgu6cA_17raop_stress_tests
FN:925,_RNCNvMs0_NtCslUrB7RWuRKg_8airplay26clientNtB7_20UnifiedAirPlayClient10disconnect0Cs5E0S2Mgu6cA_17raop_stress_tests
FN:887,_RNCNvMs0_NtCslUrB7RWuRKg_8airplay26clientNtB7_20UnifiedAirPlayClient7connect0Cs5E0S2Mgu6cA_17raop_stress_tests
FNDA:0,_RINvMNtCslUrB7RWuRKg_8airplay26clientNtB3_13AirPlayClient12stream_audiopEB5_
FNDA:0,_RNCINvMNtCslUrB7RWuRKg_8airplay26clientNtB5_13AirPlayClient12stream_audiopE0B7_
FNDA:0,_RNCNCINvMNtCslUrB7RWuRKg_8airplay26clientNtB7_13AirPlayClient12stream_audiopE00B9_
FNDA:0,_RNCNCNCINvMNtCslUrB7RWuRKg_8airplay26clientNtB9_13AirPlayClient12stream_audiopE000Bb_
FNDA:0,_RNCNCNvMNtCslUrB7RWuRKg_8airplay26clientNtB6_13AirPlayClient4next00B8_
FNDA:0,_RNCNCNvMNtCslUrB7RWuRKg_8airplay26clientNtB6_13AirPlayClient8previous00B8_
FNDA:0,_RNCNCNvMs0_NtCslUrB7RWuRKg_8airplay26clientNtB9_20UnifiedAirPlayClient7connect00Bb_
FNDA:0,_RNCNvMNtCslUrB7RWuRKg_8airplay26clientNtB4_13AirPlayClient10set_repeat0B6_
FNDA:0,_RNCNvMNtCslUrB7RWuRKg_8airplay26clientNtB4_13AirPlayClient11set_artwork0B6_
FNDA:0,_RNCNvMNtCslUrB7RWuRKg_8airplay26clientNtB4_13AirPlayClient11set_shuffle0B6_
FNDA:0,_RNCNvMNtCslUrB7RWuRKg_8airplay26clientNtB4_13AirPlayClient11toggle_mute0B6_
FNDA:0,_RNCNvMNtCslUrB7RWuRKg_8airplay26clientNtB4_13AirPlayClient11volume_down0B6_
FNDA:0,_RNCNvMNtCslUrB7RWuRKg_8airplay26clientNtB4_13AirPlayClient12set_metadata0B6_
FNDA:0,_RNCNvMNtCslUrB7RWuRKg_8airplay26clientNtB4_13AirPlayClient12set_progress0B6_
FNDA:0,_RNCNvMNtCslUrB7RWuRKg_8airplay26clientNtB4_13AirPlayClient13forget_device0B6_
FNDA:0,_RNCNvMNtCslUrB7RWuRKg_8airplay26clientNtB4_13AirPlayClient13is_ptp_active0B6_
FNDA:0,_RNCNvMNtCslUrB7RWuRKg_8airplay26clientNtB4_13AirPlayClient15toggle_playback0B6_
FNDA:0,_RNCNvMNtCslUrB7RWuRKg_8airplay26clientNtB4_13AirPlayClient16connected_device0B6_
FNDA:0,_RNCNvMNtCslUrB7RWuRKg_8airplay26clientNtB4_13AirPlayClient17get_playback_info0B6_
FNDA:0,_RNCNvMNtCslUrB7RWuRKg_8airplay26clientNtB4_13AirPlayClient17remove_from_queue0B6_
FNDA:0,_RNCNvMNtCslUrB7RWuRKg_8airplay26clientNtB4_13AirPlayClient4mute0B6_
FNDA:0,_RNCNvMNtCslUrB7RWuRKg_8airplay26clientNtB4_13AirPlayClient4next0B6_
FNDA:0,_RNCNvMNtCslUrB7RWuRKg_8airplay26clientNtB4_13AirPlayClient4seek0B6_
FNDA:0,_RNCNvMNtCslUrB7RWuRKg_8airplay26clientNtB4_13AirPlayClient5queue0B6_
FNDA:0,_RNCNvMNtCslUrB7RWuRKg_8airplay26clientNtB4_13AirPlayClient5state0B6_
FNDA:0,_RNCNvMNtCslUrB7RWuRKg_8airplay26clientNtB4_13AirPlayClient6unmute0B6_
FNDA:0,_RNCNvMNtCslUrB7RWuRKg_8airplay26clientNtB4_13AirPlayClient8previous0B6_
FNDA:0,_RNCNvMNtCslUrB7RWuRKg_8airplay26clientNtB4_13AirPlayClient9play_next0B6_
FNDA:0,_RNCNvMNtCslUrB7RWuRKg_8airplay26clientNtB4_13AirPlayClient9ptp_clock0B6_
FNDA:0,_RNCNvMNtCslUrB7RWuRKg_8airplay26clientNtB4_13AirPlayClient9volume_up0B6_
FNDA:0,_RNCNvMs0_NtCslUrB7RWuRKg_8airplay26clientNtB7_20UnifiedAirPlayClient10disconnect0B9_
FNDA:0,_RNCNvMs0_NtCslUrB7RWuRKg_8airplay26clientNtB7_20UnifiedAirPlayClient10set_volume0B9_
FNDA:0,_RNCNvMs0_NtCslUrB7RWuRKg_8airplay26clientNtB7_20UnifiedAirPlayClient12stream_audio0B9_
FNDA:0,_RNCNvMs0_NtCslUrB7RWuRKg_8airplay26clientNtB7_20UnifiedAirPlayClient4play0B9_
FNDA:0,_RNCNvMs0_NtCslUrB7RWuRKg_8airplay26clientNtB7_20UnifiedAirPlayClient4stop0B9_
FNDA:0,_RNCNvMs0_NtCslUrB7RWuRKg_8airplay26clientNtB7_20UnifiedAirPlayClient5pause0B9_
FNDA:0,_RNCNvMs0_NtCslUrB7RWuRKg_8airplay26clientNtB7_20UnifiedAirPlayClient7connect0B9_
FNDA:5,_RNvMNtCslUrB7RWuRKg_8airplay26clientNtB2_13AirPlayClient10disconnect
FNDA:3,_RNvMNtCslUrB7RWuRKg_8airplay26clientNtB2_13AirPlayClient10set_repeat
FNDA:2,_RNvMNtCslUrB7RWuRKg_8airplay26clientNtB2_13AirPlayClient10set_volume
FNDA:2,_RNvMNtCslUrB7RWuRKg_8airplay26clientNtB2_13AirPlayClient11clear_queue
FNDA:0,_RNvMNtCslUrB7RWuRKg_8airplay26clientNtB2_13AirPlayClient11set_artwork
FNDA:2,_RNvMNtCslUrB7RWuRKg_8airplay26clientNtB2_13AirPlayClient11set_shuffle
FNDA:0,_RNvMNtCslUrB7RWuRKg_8airplay26clientNtB2_13AirPlayClient11toggle_mute
FNDA:0,_RNvMNtCslUrB7RWuRKg_8airplay26clientNtB2_13AirPlayClient11volume_down
FNDA:3,_RNvMNtCslUrB7RWuRKg_8airplay26clientNtB2_13AirPlayClient12add_to_queue
FNDA:25,_RNvMNtCslUrB7RWuRKg_8airplay26clientNtB2_13AirPlayClient12is_connected
FNDA:0,_RNvMNtCslUrB7RWuRKg_8airplay26clientNtB2_13AirPlayClient12set_metadata
FNDA:0,_RNvMNtCslUrB7RWuRKg_8airplay26clientNtB2_13AirPlayClient12set_progress
FNDA:0,_RNvMNtCslUrB7RWuRKg_8airplay26clientNtB2_13AirPlayClient13forget_device
FNDA:0,_RNvMNtCslUrB7RWuRKg_8airplay26clientNtB2_13AirPlayClient13is_ptp_active
FNDA:5,_RNvMNtCslUrB7RWuRKg_8airplay26clientNtB2_13AirPlayClient13start_monitor
FNDA:2,_RNvMNtCslUrB7RWuRKg_8airplay26clientNtB2_13AirPlayClient14default_client
FNDA:6,_RNvMNtCslUrB7RWuRKg_8airplay26clientNtB2_13AirPlayClient14playback_state
FNDA:1,_RNvMNtCslUrB7RWuRKg_8airplay26clientNtB2_13AirPlayClient15subscribe_state
FNDA:0,_RNvMNtCslUrB7RWuRKg_8airplay26clientNtB2_13AirPlayClient15toggle_playback
FNDA:0,_RNvMNtCslUrB7RWuRKg_8airplay26clientNtB2_13AirPlayClient16connected_device
FNDA:17,_RNvMNtCslUrB7RWuRKg_8airplay26clientNtB2_13AirPlayClient16ensure_connected
FNDA:5,_RNvMNtCslUrB7RWuRKg_8airplay26clientNtB2_13AirPlayClient16start_keep_alive
FNDA:3,_RNvMNtCslUrB7RWuRKg_8airplay26clientNtB2_13AirPlayClient16subscribe_events
FNDA:0,_RNvMNtCslUrB7RWuRKg_8airplay26clientNtB2_13AirPlayClient17get_playback_info
FNDA:0,_RNvMNtCslUrB7RWuRKg_8airplay26clientNtB2_13AirPlayClient17remove_from_queue
FNDA:0,_RNvMNtCslUrB7RWuRKg_8airplay26clientNtB2_13AirPlayClient20with_pairing_storage
FNDA:5,_RNvMNtCslUrB7RWuRKg_8airplay26clientNtB2_13AirPlayClient3new
FNDA:1,_RNvMNtCslUrB7RWuRKg_8airplay26clientNtB2_13AirPlayClient4mute
FNDA:1,_RNvMNtCslUrB7RWuRKg_8airplay26clientNtB2_13AirPlayClient4next
FNDA:2,_RNvMNtCslUrB7RWuRKg_8airplay26clientNtB2_13AirPlayClient4play
FNDA:0,_RNvMNtCslUrB7RWuRKg_8airplay26clientNtB2_13AirPlayClient4scan
FNDA:1,_RNvMNtCslUrB7RWuRKg_8airplay26clientNtB2_13AirPlayClient4seek
FNDA:0,_RNvMNtCslUrB7RWuRKg_8airplay26clientNtB2_13AirPlayClient4stop
FNDA:2,_RNvMNtCslUrB7RWuRKg_8airplay26clientNtB2_13AirPlayClient5pause
FNDA:2,_RNvMNtCslUrB7RWuRKg_8airplay26clientNtB2_13AirPlayClient5queue
FNDA:3,_RNvMNtCslUrB7RWuRKg_8airplay26clientNtB2_13AirPlayClient5state
FNDA:1,_RNvMNtCslUrB7RWuRKg_8airplay26clientNtB2_13AirPlayClient6unmute
FNDA:2,_RNvMNtCslUrB7RWuRKg_8airplay26clientNtB2_13AirPlayClient6volume
FNDA:6,_RNvMNtCslUrB7RWuRKg_8airplay26clientNtB2_13AirPlayClient7connect
FNDA:0,_RNvMNtCslUrB7RWuRKg_8airplay26clientNtB2_13AirPlayClient8discover
FNDA:2,_RNvMNtCslUrB7RWuRKg_8airplay26clientNtB2_13AirPlayClient8play_url
FNDA:0,_RNvMNtCslUrB7RWuRKg_8airplay26clientNtB2_13AirPlayClient8previous
FNDA:0,_RNvMNtCslUrB7RWuRKg_8airplay26clientNtB2_13AirPlayClient9play_next
FNDA:0,_RNvMNtCslUrB7RWuRKg_8airplay26clientNtB2_13AirPlayClient9ptp_clock
FNDA:0,_RNvMNtCslUrB7RWuRKg_8airplay26clientNtB2_13AirPlayClient9volume_up
FNDA:25,_RNvMs0_NtCslUrB7RWuRKg_8airplay26clientNtB5_20UnifiedAirPlayClient10disconnect
FNDA:1,_RNvMs0_NtCslUrB7RWuRKg_8airplay26clientNtB5_20UnifiedAirPlayClient10set_volume
FNDA:103,_RNvMs0_NtCslUrB7RWuRKg_8airplay26clientNtB5_20UnifiedAirPlayClient11session_mut
FNDA:24,_RNvMs0_NtCslUrB7RWuRKg_8airplay26clientNtB5_20UnifiedAirPlayClient11with_config
FNDA:43,_RNvMs0_NtCslUrB7RWuRKg_8airplay26clientNtB5_20UnifiedAirPlayClient12is_connected
FNDA:0,_RNvMs0_NtCslUrB7RWuRKg_8airplay26clientNtB5_20UnifiedAirPlayClient12stream_audio
FNDA:0,_RNvMs0_NtCslUrB7RWuRKg_8airplay26clientNtB5_20UnifiedAirPlayClient3new
FNDA:0,_RNvMs0_NtCslUrB7RWuRKg_8airplay26clientNtB5_20UnifiedAirPlayClient4play
FNDA:0,_RNvMs0_NtCslUrB7RWuRKg_8airplay26clientNtB5_20UnifiedAirPlayClient4stop
FNDA:0,_RNvMs0_NtCslUrB7RWuRKg_8airplay26clientNtB5_20UnifiedAirPlayClient5pause
FNDA:25,_RNvMs0_NtCslUrB7RWuRKg_8airplay26clientNtB5_20UnifiedAirPlayClient7connect
FNDA:0,_RNvMs0_NtCslUrB7RWuRKg_8airplay26clientNtB5_20UnifiedAirPlayClient7session
FNDA:0,_RNvMs0_NtCslUrB7RWuRKg_8airplay26clientNtB5_20UnifiedAirPlayClient8protocol
FNDA:0,_RNvXs1_NtCslUrB7RWuRKg_8airplay26clientNtB5_20UnifiedAirPlayClientNtNtCs3XFJfFEDSOQ_4core7default7Default7default
FNDA:5,_RNvXs_NtCslUrB7RWuRKg_8airplay26clientNtB4_12ClientConfigNtNtCs3XFJfFEDSOQ_4core7default7Default7default
FNDA:0,_RNCNCNvMNtCslUrB7RWuRKg_8airplay26clientNtB6_13AirPlayClient16ensure_connected00B8_
FNDA:0,_RNCNCNvMNtCslUrB7RWuRKg_8airplay26clientNtB6_13AirPlayClient4stop00B8_
FNDA:5,_RNCNvMNtCslUrB7RWuRKg_8airplay26clientNtB4_13AirPlayClient10disconnect0B6_
FNDA:2,_RNCNvMNtCslUrB7RWuRKg_8airplay26clientNtB4_13AirPlayClient10set_volume0B6_
FNDA:2,_RNCNvMNtCslUrB7RWuRKg_8airplay26clientNtB4_13AirPlayClient11clear_queue0B6_
FNDA:3,_RNCNvMNtCslUrB7RWuRKg_8airplay26clientNtB4_13AirPlayClient12add_to_queue0B6_
FNDA:25,_RNCNvMNtCslUrB7RWuRKg_8airplay26clientNtB4_13AirPlayClient12is_connected0B6_
FNDA:5,_RNCNvMNtCslUrB7RWuRKg_8airplay26clientNtB4_13AirPlayClient13start_monitor0B6_
FNDA:6,_RNCNvMNtCslUrB7RWuRKg_8airplay26clientNtB4_13AirPlayClient14playback_state0B6_
FNDA:17,_RNCNvMNtCslUrB7RWuRKg_8airplay26clientNtB4_13AirPlayClient16ensure_connected0B6_
FNDA:5,_RNCNvMNtCslUrB7RWuRKg_8airplay26clientNtB4_13AirPlayClient16start_keep_alive0B6_
FNDA:2,_RNCNvMNtCslUrB7RWuRKg_8airplay26clientNtB4_13AirPlayClient4play0B6_
FNDA:0,_RNCNvMNtCslUrB7RWuRKg_8airplay26clientNtB4_13AirPlayClient4scan0B6_
FNDA:0,_RNCNvMNtCslUrB7RWuRKg_8airplay26clientNtB4_13AirPlayClient4stop0B6_
FNDA:2,_RNCNvMNtCslUrB7RWuRKg_8airplay26clientNtB4_13AirPlayClient5pause0B6_
FNDA:2,_RNCNvMNtCslUrB7RWuRKg_8airplay26clientNtB4_13AirPlayClient6volume0B6_
FNDA:6,_RNCNvMNtCslUrB7RWuRKg_8airplay26clientNtB4_13AirPlayClient7connect0B6_
FNDA:2,_RNCNvMNtCslUrB7RWuRKg_8airplay26clientNtB4_13AirPlayClient8play_url0B6_
FNDA:22,_RNCNvMs0_NtCslUrB7RWuRKg_8airplay26clientNtB7_20UnifiedAirPlayClient12is_connected0B9_
FNDA:0,_RINvMNtCs41oluKY1Omx_8airplay26clientNtB3_13AirPlayClient12stream_audioNtNtNtB5_9streaming4file10FileSourceEB5_
FNDA:0,_RNCINvMNtCs41oluKY1Omx_8airplay26clientNtB5_13AirPlayClient12stream_audioNtNtNtB7_9streaming4file10FileSourceE0B7_
FNDA:0,_RNCNCINvMNtCs41oluKY1Omx_8airplay26clientNtB7_13AirPlayClient12stream_audioNtNtNtB9_9streaming4file10FileSourceE00B9_
FNDA:0,_RNCNCNCINvMNtCs41oluKY1Omx_8airplay26clientNtB9_13AirPlayClient12stream_audioNtNtNtBb_9streaming4file10FileSourceE000Bb_
FNDA:17,_RNCNCNvMNtCs41oluKY1Omx_8airplay26clientNtB6_13AirPlayClient16ensure_connected00B8_
FNDA:0,_RNCNCNvMNtCs41oluKY1Omx_8airplay26clientNtB6_13AirPlayClient4stop00B8_
FNDA:0,_RNCNCNvMs0_NtCs41oluKY1Omx_8airplay26clientNtB9_20UnifiedAirPlayClient7connect00Bb_
FNDA:0,_RNCNvMNtCs41oluKY1Omx_8airplay26clientNtB4_13AirPlayClient10disconnect0B6_
FNDA:3,_RNCNvMNtCs41oluKY1Omx_8airplay26clientNtB4_13AirPlayClient10set_repeat0B6_
FNDA:2,_RNCNvMNtCs41oluKY1Omx_8airplay26clientNtB4_13AirPlayClient10set_volume0B6_
FNDA:5,_RNCNvMNtCs41oluKY1Omx_8airplay26clientNtB4_13AirPlayClient11clear_queue0B6_
FNDA:2,_RNCNvMNtCs41oluKY1Omx_8airplay26clientNtB4_13AirPlayClient11set_shuffle0B6_
FNDA:7,_RNCNvMNtCs41oluKY1Omx_8airplay26clientNtB4_13AirPlayClient12add_to_queue0B6_
FNDA:24,_RNCNvMNtCs41oluKY1Omx_8airplay26clientNtB4_13AirPlayClient12is_connected0B6_
FNDA:0,_RNCNvMNtCs41oluKY1Omx_8airplay26clientNtB4_13AirPlayClient13start_monitor0B6_
FNDA:3,_RNCNvMNtCs41oluKY1Omx_8airplay26clientNtB4_13AirPlayClient14playback_state0B6_
FNDA:1,_RNCNvMNtCs41oluKY1Omx_8airplay26clientNtB4_13AirPlayClient16connected_device0B6_
FNDA:17,_RNCNvMNtCs41oluKY1Omx_8airplay26clientNtB4_13AirPlayClient16ensure_connected0B6_
FNDA:0,_RNCNvMNtCs41oluKY1Omx_8airplay26clientNtB4_13AirPlayClient16start_keep_alive0B6_
FNDA:1,_RNCNvMNtCs41oluKY1Omx_8airplay26clientNtB4_13AirPlayClient17remove_from_queue0B6_
FNDA:1,_RNCNvMNtCs41oluKY1Omx_8airplay26clientNtB4_13AirPlayClient4mute0B6_
FNDA:2,_RNCNvMNtCs41oluKY1Omx_8airplay26clientNtB4_13AirPlayClient4play0B6_
FNDA:0,_RNCNvMNtCs41oluKY1Omx_8airplay26clientNtB4_13AirPlayClient4scan0B6_
FNDA:1,_RNCNvMNtCs41oluKY1Omx_8airplay26clientNtB4_13AirPlayClient4seek0B6_
FNDA:1,_RNCNvMNtCs41oluKY1Omx_8airplay26clientNtB4_13AirPlayClient4stop0B6_
FNDA:1,_RNCNvMNtCs41oluKY1Omx_8airplay26clientNtB4_13AirPlayClient5pause0B6_
FNDA:11,_RNCNvMNtCs41oluKY1Omx_8airplay26clientNtB4_13AirPlayClient5queue0B6_
FNDA:1,_RNCNvMNtCs41oluKY1Omx_8airplay26clientNtB4_13AirPlayClient5state0B6_
FNDA:1,_RNCNvMNtCs41oluKY1Omx_8airplay26clientNtB4_13AirPlayClient6unmute0B6_
FNDA:3,_RNCNvMNtCs41oluKY1Omx_8airplay26clientNtB4_13AirPlayClient6volume0B6_
FNDA:3,_RNCNvMNtCs41oluKY1Omx_8airplay26clientNtB4_13AirPlayClient7connect0B6_
FNDA:3,_RNCNvMNtCs41oluKY1Omx_8airplay26clientNtB4_13AirPlayClient8play_url0B6_
FNDA:2,_RNCNvMs0_NtCs41oluKY1Omx_8airplay26clientNtB7_20UnifiedAirPlayClient10disconnect0B9_
FNDA:2,_RNCNvMs0_NtCs41oluKY1Omx_8airplay26clientNtB7_20UnifiedAirPlayClient12is_connected0B9_
FNDA:5,_RNCNvMs0_NtCs41oluKY1Omx_8airplay26clientNtB7_20UnifiedAirPlayClient12stream_audio0B9_
FNDA:7,_RNCNvMs0_NtCs41oluKY1Omx_8airplay26clientNtB7_20UnifiedAirPlayClient7connect0B9_
FNDA:0,_RNCNCNvMNtCs41oluKY1Omx_8airplay26clientNtB6_13AirPlayClient4next00B8_
FNDA:0,_RNCNCNvMNtCs41oluKY1Omx_8airplay26clientNtB6_13AirPlayClient8previous00B8_
FNDA:0,_RNCNvMNtCs41oluKY1Omx_8airplay26clientNtB4_13AirPlayClient11set_artwork0B6_
FNDA:0,_RNCNvMNtCs41oluKY1Omx_8airplay26clientNtB4_13AirPlayClient11toggle_mute0B6_
FNDA:0,_RNCNvMNtCs41oluKY1Omx_8airplay26clientNtB4_13AirPlayClient11volume_down0B6_
FNDA:0,_RNCNvMNtCs41oluKY1Omx_8airplay26clientNtB4_13AirPlayClient12set_metadata0B6_
FNDA:0,_RNCNvMNtCs41oluKY1Omx_8airplay26clientNtB4_13AirPlayClient12set_progress0B6_
FNDA:0,_RNCNvMNtCs41oluKY1Omx_8airplay26clientNtB4_13AirPlayClient13forget_device0B6_
FNDA:0,_RNCNvMNtCs41oluKY1Omx_8airplay26clientNtB4_13AirPlayClient13is_ptp_active0B6_
FNDA:0,_RNCNvMNtCs41oluKY1Omx_8airplay26clientNtB4_13AirPlayClient15toggle_playback0B6_
FNDA:0,_RNCNvMNtCs41oluKY1Omx_8airplay26clientNtB4_13AirPlayClient17get_playback_info0B6_
FNDA:0,_RNCNvMNtCs41oluKY1Omx_8airplay26clientNtB4_13AirPlayClient4next0B6_
FNDA:0,_RNCNvMNtCs41oluKY1Omx_8airplay26clientNtB4_13AirPlayClient8previous0B6_
FNDA:0,_RNCNvMNtCs41oluKY1Omx_8airplay26clientNtB4_13AirPlayClient9play_next0B6_
FNDA:0,_RNCNvMNtCs41oluKY1Omx_8airplay26clientNtB4_13AirPlayClient9ptp_clock0B6_
FNDA:0,_RNCNvMNtCs41oluKY1Omx_8airplay26clientNtB4_13AirPlayClient9volume_up0B6_
FNDA:0,_RNCNvMs0_NtCs41oluKY1Omx_8airplay26clientNtB7_20UnifiedAirPlayClient10set_volume0B9_
FNDA:0,_RNCNvMs0_NtCs41oluKY1Omx_8airplay26clientNtB7_20UnifiedAirPlayClient4play0B9_
FNDA:0,_RNCNvMs0_NtCs41oluKY1Omx_8airplay26clientNtB7_20UnifiedAirPlayClient4stop0B9_
FNDA:0,_RNCNvMs0_NtCs41oluKY1Omx_8airplay26clientNtB7_20UnifiedAirPlayClient5pause0B9_
FNDA:0,_RNvMNtCs41oluKY1Omx_8airplay26clientNtB2_13AirPlayClient11set_artwork
FNDA:0,_RNvMNtCs41oluKY1Omx_8airplay26clientNtB2_13AirPlayClient11toggle_mute
FNDA:0,_RNvMNtCs41oluKY1Omx_8airplay26clientNtB2_13AirPlayClient11volume_down
FNDA:0,_RNvMNtCs41oluKY1Omx_8airplay26clientNtB2_13AirPlayClient12set_metadata
FNDA:0,_RNvMNtCs41oluKY1Omx_8airplay26clientNtB2_13AirPlayClient12set_progress
FNDA:0,_RNvMNtCs41oluKY1Omx_8airplay26clientNtB2_13AirPlayClient13forget_device
FNDA:0,_RNvMNtCs41oluKY1Omx_8airplay26clientNtB2_13AirPlayClient13is_ptp_active
FNDA:0,_RNvMNtCs41oluKY1Omx_8airplay26clientNtB2_13AirPlayClient15subscribe_state
FNDA:0,_RNvMNtCs41oluKY1Omx_8airplay26clientNtB2_13AirPlayClient15toggle_playback
FNDA:0,_RNvMNtCs41oluKY1Omx_8airplay26clientNtB2_13AirPlayClient17get_playback_info
FNDA:0,_RNvMNtCs41oluKY1Omx_8airplay26clientNtB2_13AirPlayClient20with_pairing_storage
FNDA:0,_RNvMNtCs41oluKY1Omx_8airplay26clientNtB2_13AirPlayClient4next
FNDA:0,_RNvMNtCs41oluKY1Omx_8airplay26clientNtB2_13AirPlayClient8discover
FNDA:0,_RNvMNtCs41oluKY1Omx_8airplay26clientNtB2_13AirPlayClient8previous
FNDA:0,_RNvMNtCs41oluKY1Omx_8airplay26clientNtB2_13AirPlayClient9play_next
FNDA:0,_RNvMNtCs41oluKY1Omx_8airplay26clientNtB2_13AirPlayClient9ptp_clock
FNDA:0,_RNvMNtCs41oluKY1Omx_8airplay26clientNtB2_13AirPlayClient9volume_up
FNDA:0,_RNvMs0_NtCs41oluKY1Omx_8airplay26clientNtB5_20UnifiedAirPlayClient10set_volume
FNDA:0,_RNvMs0_NtCs41oluKY1Omx_8airplay26clientNtB5_20UnifiedAirPlayClient4play
FNDA:0,_RNvMs0_NtCs41oluKY1Omx_8airplay26clientNtB5_20UnifiedAirPlayClient4stop
FNDA:0,_RNvMs0_NtCs41oluKY1Omx_8airplay26clientNtB5_20UnifiedAirPlayClient5pause
FNDA:0,_RNvXs1_NtCs41oluKY1Omx_8airplay26clientNtB5_20UnifiedAirPlayClientNtNtCs3XFJfFEDSOQ_4core7default7Default7default
FNDA:0,_RNvMNtCs41oluKY1Omx_8airplay26clientNtB2_13AirPlayClient10disconnect
FNDA:3,_RNvMNtCs41oluKY1Omx_8airplay26clientNtB2_13AirPlayClient10set_repeat
FNDA:2,_RNvMNtCs41oluKY1Omx_8airplay26clientNtB2_13AirPlayClient10set_volume
FNDA:5,_RNvMNtCs41oluKY1Omx_8airplay26clientNtB2_13AirPlayClient11clear_queue
FNDA:2,_RNvMNtCs41oluKY1Omx_8airplay26clientNtB2_13AirPlayClient11set_shuffle
FNDA:7,_RNvMNtCs41oluKY1Omx_8airplay26clientNtB2_13AirPlayClient12add_to_queue
FNDA:24,_RNvMNtCs41oluKY1Omx_8airplay26clientNtB2_13AirPlayClient12is_connected
FNDA:0,_RNvMNtCs41oluKY1Omx_8airplay26clientNtB2_13AirPlayClient13start_monitor
FNDA:7,_RNvMNtCs41oluKY1Omx_8airplay26clientNtB2_13AirPlayClient14default_client
FNDA:3,_RNvMNtCs41oluKY1Omx_8airplay26clientNtB2_13AirPlayClient14playback_state
FNDA:1,_RNvMNtCs41oluKY1Omx_8airplay26clientNtB2_13AirPlayClient16connected_device
FNDA:17,_RNvMNtCs41oluKY1Omx_8airplay26clientNtB2_13AirPlayClient16ensure_connected
FNDA:0,_RNvMNtCs41oluKY1Omx_8airplay26clientNtB2_13AirPlayClient16start_keep_alive
FNDA:13,_RNvMNtCs41oluKY1Omx_8airplay26clientNtB2_13AirPlayClient16subscribe_events
FNDA:1,_RNvMNtCs41oluKY1Omx_8airplay26clientNtB2_13AirPlayClient17remove_from_queue
FNDA:25,_RNvMNtCs41oluKY1Omx_8airplay26clientNtB2_13AirPlayClient3new
FNDA:1,_RNvMNtCs41oluKY1Omx_8airplay26clientNtB2_13AirPlayClient4mute
FNDA:2,_RNvMNtCs41oluKY1Omx_8airplay26clientNtB2_13AirPlayClient4play
FNDA:0,_RNvMNtCs41oluKY1Omx_8airplay26clientNtB2_13AirPlayClient4scan
FNDA:1,_RNvMNtCs41oluKY1Omx_8airplay26clientNtB2_13AirPlayClient4seek
FNDA:1,_RNvMNtCs41oluKY1Omx_8airplay26clientNtB2_13AirPlayClient4stop
FNDA:1,_RNvMNtCs41oluKY1Omx_8airplay26clientNtB2_13AirPlayClient5pause
FNDA:11,_RNvMNtCs41oluKY1Omx_8airplay26clientNtB2_13AirPlayClient5queue
FNDA:1,_RNvMNtCs41oluKY1Omx_8airplay26clientNtB2_13AirPlayClient5state
FNDA:1,_RNvMNtCs41oluKY1Omx_8airplay26clientNtB2_13AirPlayClient6unmute
FNDA:3,_RNvMNtCs41oluKY1Omx_8airplay26clientNtB2_13AirPlayClient6volume
FNDA:3,_RNvMNtCs41oluKY1Omx_8airplay26clientNtB2_13AirPlayClient7connect
FNDA:3,_RNvMNtCs41oluKY1Omx_8airplay26clientNtB2_13AirPlayClient8play_url
FNDA:2,_RNvMs0_NtCs41oluKY1Omx_8airplay26clientNtB5_20UnifiedAirPlayClient10disconnect
FNDA:5,_RNvMs0_NtCs41oluKY1Omx_8airplay26clientNtB5_20UnifiedAirPlayClient11session_mut
FNDA:8,_RNvMs0_NtCs41oluKY1Omx_8airplay26clientNtB5_20UnifiedAirPlayClient11with_config
FNDA:5,_RNvMs0_NtCs41oluKY1Omx_8airplay26clientNtB5_20UnifiedAirPlayClient12is_connected
FNDA:5,_RNvMs0_NtCs41oluKY1Omx_8airplay26clientNtB5_20UnifiedAirPlayClient12stream_audio
FNDA:4,_RNvMs0_NtCs41oluKY1Omx_8airplay26clientNtB5_20UnifiedAirPlayClient3new
FNDA:7,_RNvMs0_NtCs41oluKY1Omx_8airplay26clientNtB5_20UnifiedAirPlayClient7connect
FNDA:1,_RNvMs0_NtCs41oluKY1Omx_8airplay26clientNtB5_20UnifiedAirPlayClient7session
FNDA:5,_RNvMs0_NtCs41oluKY1Omx_8airplay26clientNtB5_20UnifiedAirPlayClient8protocol
FNDA:8,_RNvXs_NtCs41oluKY1Omx_8airplay26clientNtB4_12ClientConfigNtNtCs3XFJfFEDSOQ_4core7default7Default7default
FNDA:1,_RNCNvMNtCslUrB7RWuRKg_8airplay26clientNtB4_13AirPlayClient5state0Cs8JMl5qJMkJ2_18client_integration
FNDA:0,_RNCNCNvMNtCslUrB7RWuRKg_8airplay26clientNtB6_13AirPlayClient4next00CsjZ7WIzFe7Th_18player_integration
FNDA:3,_RNCNvMNtCslUrB7RWuRKg_8airplay26clientNtB4_13AirPlayClient10set_repeat0CsjZ7WIzFe7Th_18player_integration
FNDA:2,_RNCNvMNtCslUrB7RWuRKg_8airplay26clientNtB4_13AirPlayClient11set_shuffle0CsjZ7WIzFe7Th_18player_integration
FNDA:1,_RNCNvMNtCslUrB7RWuRKg_8airplay26clientNtB4_13AirPlayClient4mute0CsjZ7WIzFe7Th_18player_integration
FNDA:1,_RNCNvMNtCslUrB7RWuRKg_8airplay26clientNtB4_13AirPlayClient4next0CsjZ7WIzFe7Th_18player_integration
FNDA:1,_RNCNvMNtCslUrB7RWuRKg_8airplay26clientNtB4_13AirPlayClient4seek0CsjZ7WIzFe7Th_18player_integration
FNDA:2,_RNCNvMNtCslUrB7RWuRKg_8airplay26clientNtB4_13AirPlayClient5queue0CsjZ7WIzFe7Th_18player_integration
FNDA:2,_RNCNvMNtCslUrB7RWuRKg_8airplay26clientNtB4_13AirPlayClient5state0CsjZ7WIzFe7Th_18player_integration
FNDA:1,_RNCNvMNtCslUrB7RWuRKg_8airplay26clientNtB4_13AirPlayClient6unmute0CsjZ7WIzFe7Th_18player_integration
FNDA:0,_RNCNCNvMs0_NtCslUrB7RWuRKg_8airplay26clientNtB9_20UnifiedAirPlayClient7connect00CsiLTL9l25OEE_25raop_extended_integration
FNDA:4,_RNCNvMs0_NtCslUrB7RWuRKg_8airplay26clientNtB7_20UnifiedAirPlayClient10disconnect0CsiLTL9l25OEE_25raop_extended_integration
FNDA:1,_RNCNvMs0_NtCslUrB7RWuRKg_8airplay26clientNtB7_20UnifiedAirPlayClient10set_volume0CsiLTL9l25OEE_25raop_extended_integration
FNDA:4,_RNCNvMs0_NtCslUrB7RWuRKg_8airplay26clientNtB7_20UnifiedAirPlayClient7connect0CsiLTL9l25OEE_25raop_extended_integration
FNDA:0,_RNCNCNvMs0_NtCslUrB7RWuRKg_8airplay26clientNtB9_20UnifiedAirPlayClient7connect00Cs5E0S2Mgu6cA_17raop_stress_tests
FNDA:21,_RNCNvMs0_NtCslUrB7RWuRKg_8airplay26clientNtB7_20UnifiedAirPlayClient10disconnect0Cs5E0S2Mgu6cA_17raop_stress_tests
FNDA:21,_RNCNvMs0_NtCslUrB7RWuRKg_8airplay26clientNtB7_20UnifiedAirPlayClient7connect0Cs5E0S2Mgu6cA_17raop_stress_tests
FNF:116
FNH:71
DA:87,30
DA:88,30
DA:89,30
DA:90,30
DA:91,30
DA:92,30
DA:93,30
DA:94,30
DA:96,30
DA:97,30
DA:98,30
DA:99,30
DA:100,30
DA:101,30
DA:102,30
DA:103,30
DA:104,30
DA:105,30
DA:106,30
DA:107,30
DA:111,0
DA:112,0
DA:113,0
DA:114,0
DA:116,0
DA:117,0
DA:118,0
DA:121,0
DA:122,0
DA:123,0
DA:125,0
DA:126,0
DA:130,9
DA:131,9
DA:132,9
DA:141,0
DA:142,0
DA:143,0
DA:150,0
DA:151,0
DA:152,0
DA:161,9
DA:162,9
DA:165,5
DA:166,5
DA:169,5
DA:170,5
DA:171,5
DA:172,5
DA:174,5
DA:175,8
DA:184,0
DA:185,0
DA:186,0
DA:188,5
DA:189,5
DA:190,5
DA:191,5
DA:192,5
DA:194,5
DA:195,6
DA:197,2
DA:198,1
DA:199,1
DA:200,1
DA:201,1
DA:202,1
DA:203,1
DA:205,1
DA:207,0
DA:208,0
DA:209,0
DA:212,0
DA:213,0
DA:216,0
DA:217,0
DA:222,1
DA:225,1
DA:226,5
DA:228,5
DA:229,5
DA:231,5
DA:233,5
DA:235,9
DA:238,4
DA:239,4
DA:240,1
DA:241,0
DA:242,0
DA:243,1
DA:244,1
DA:245,3
DA:247,3
DA:249,3
DA:251,3
DA:253,0
DA:254,0
DA:256,0
DA:263,0
DA:264,0
DA:268,0
DA:269,5
DA:276,5
DA:277,5
DA:279,5
DA:282,5
DA:284,5
DA:285,5
DA:286,5
DA:287,5
DA:288,5
DA:289,5
DA:291,5
DA:292,5
DA:295,49
DA:296,49
DA:297,49
DA:304,34
DA:305,34
DA:306,17
DA:307,17
DA:308,17
DA:309,17
DA:310,17
DA:311,17
DA:312,17
DA:313,17
DA:314,34
DA:317,1
DA:318,1
DA:319,1
DA:328,4
DA:329,4
DA:330,2
DA:331,2
DA:332,2
DA:333,4
DA:340,3
DA:341,3
DA:342,2
DA:343,2
DA:344,2
DA:345,3
DA:352,0
DA:353,0
DA:354,0
DA:355,0
DA:362,1
DA:363,1
DA:364,0
DA:365,0
DA:366,0
DA:367,0
DA:368,0
DA:369,0
DA:370,0
DA:371,0
DA:372,1
DA:379,1
DA:380,1
DA:381,1
DA:384,1
DA:385,1
DA:386,1
DA:389,1
DA:390,1
DA:391,1
DA:398,0
DA:399,0
DA:400,0
DA:402,0
DA:403,0
DA:404,0
DA:407,0
DA:408,0
DA:409,0
DA:416,2
DA:417,2
DA:418,1
DA:419,2
DA:422,9
DA:423,9
DA:424,9
DA:429,5
DA:430,5
DA:431,5
DA:438,4
DA:439,4
DA:440,2
DA:441,2
DA:442,2
DA:443,2
DA:444,2
DA:445,4
DA:452,0
DA:453,0
DA:454,0
DA:455,0
DA:456,0
DA:457,0
DA:464,0
DA:465,0
DA:466,0
DA:467,0
DA:468,0
DA:469,0
DA:476,2
DA:477,2
DA:478,1
DA:479,1
DA:480,1
DA:481,2
DA:488,2
DA:489,2
DA:490,1
DA:491,1
DA:492,1
DA:493,2
DA:500,0
DA:501,0
DA:502,0
DA:503,0
DA:504,0
DA:505,0
DA:512,0
DA:513,0
DA:514,0
DA:521,0
DA:522,0
DA:523,0
DA:530,0
DA:531,0
DA:532,0
DA:537,10
DA:538,10
DA:539,10
DA:540,10
DA:542,10
DA:543,10
DA:546,0
DA:547,0
DA:548,0
DA:549,0
DA:551,0
DA:552,0
DA:555,1
DA:556,1
DA:557,1
DA:558,1
DA:560,1
DA:563,7
DA:564,7
DA:565,7
DA:566,7
DA:569,13
DA:570,13
DA:571,13
DA:578,4
DA:579,4
DA:580,2
DA:581,1
DA:582,1
DA:584,1
DA:585,1
DA:587,2
DA:588,4
DA:595,6
DA:596,6
DA:597,3
DA:598,6
DA:607,5
DA:608,5
DA:610,2
DA:612,2
DA:613,2
DA:614,2
DA:616,2
DA:617,2
DA:618,2
DA:619,0
DA:621,2
DA:622,5
DA:631,0
DA:632,0
DA:636,0
DA:637,0
DA:638,0
DA:639,0
DA:640,0
DA:641,0
DA:642,0
DA:643,0
DA:644,0
DA:655,0
DA:656,0
DA:657,0
DA:658,0
DA:659,0
DA:664,0
DA:665,0
DA:666,0
DA:667,0
DA:668,0
DA:670,0
DA:671,0
DA:672,0
DA:673,0
DA:677,0
DA:678,0
DA:679,0
DA:680,0
DA:681,0
DA:684,0
DA:685,0
DA:686,0
DA:687,0
DA:689,0
DA:691,0
DA:692,0
DA:693,0
DA:697,0
DA:709,0
DA:710,0
DA:711,0
DA:714,0
DA:715,0
DA:716,0
DA:717,0
DA:718,0
DA:720,0
DA:721,0
DA:722,0
DA:723,0
DA:725,0
DA:726,0
DA:727,0
DA:728,0
DA:729,0
DA:730,0
DA:731,0
DA:733,0
DA:734,0
DA:735,0
DA:737,0
DA:740,0
DA:743,0
DA:744,0
DA:745,0
DA:746,0
DA:747,0
DA:748,0
DA:749,0
DA:751,0
DA:753,0
DA:754,0
DA:755,0
DA:757,0
DA:758,0
DA:759,0
DA:760,0
DA:764,0
DA:765,0
DA:766,0
DA:767,0
DA:768,0
DA:769,0
DA:773,0
DA:774,0
DA:776,0
DA:777,0
DA:778,0
DA:779,0
DA:782,0
DA:784,0
DA:787,0
DA:792,0
DA:798,16
DA:799,16
DA:800,16
DA:803,4
DA:804,4
DA:805,4
DA:809,1
DA:810,1
DA:811,1
DA:814,0
DA:815,0
DA:816,0
DA:819,0
DA:820,0
DA:821,0
DA:838,13
DA:839,13
DA:840,13
DA:841,13
DA:842,13
DA:843,13
DA:844,13
DA:845,13
DA:867,4
DA:868,4
DA:869,4
DA:873,32
DA:874,32
DA:875,32
DA:876,32
DA:877,32
DA:878,32
DA:879,32
DA:880,32
DA:887,32
DA:889,32
DA:890,0
DA:891,0
DA:892,0
DA:893,0
DA:894,0
DA:895,0
DA:898,32
DA:899,2
DA:900,2
DA:901,2
DA:902,2
DA:904,30
DA:905,30
DA:906,30
DA:911,32
DA:913,29
DA:914,29
DA:915,29
DA:917,29
DA:918,32
DA:925,27
DA:926,27
DA:927,27
DA:928,0
DA:929,27
DA:930,27
DA:931,27
DA:932,27
DA:933,27
DA:937,48
DA:938,48
DA:939,48
DA:943,5
DA:944,5
DA:945,5
DA:949,1
DA:950,1
DA:951,1
DA:955,108
DA:956,108
DA:957,108
DA:964,0
DA:965,0
DA:966,0
DA:968,0
DA:969,0
DA:970,0
DA:972,0
DA:979,0
DA:980,0
DA:981,0
DA:983,0
DA:984,0
DA:985,0
DA:987,0
DA:994,0
DA:995,0
DA:996,0
DA:998,0
DA:999,0
DA:1000,0
DA:1002,0
DA:1009,1
DA:1010,1
DA:1011,1
DA:1013,0
DA:1014,0
DA:1015,0
DA:1017,1
DA:1024,5
DA:1025,5
DA:1026,5
DA:1028,0
DA:1029,0
DA:1030,0
DA:1032,5
DA:1036,0
DA:1037,0
DA:1038,0
BRF:0
BRH:0
LF:546
LH:292
end_of_record
SF:/app/src/client/protocol.rs
FN:50,_RNvNtNtCslUrB7RWuRKg_8airplay26client8protocol15select_protocol
FN:95,_RNvNtNtCslUrB7RWuRKg_8airplay26client8protocol21check_raop_encryption
FN:95,_RNvNtNtCs41oluKY1Omx_8airplay26client8protocol21check_raop_encryption
FN:50,_RNvNtNtCs41oluKY1Omx_8airplay26client8protocol15select_protocol
FNDA:25,_RNvNtNtCslUrB7RWuRKg_8airplay26client8protocol15select_protocol
FNDA:0,_RNvNtNtCslUrB7RWuRKg_8airplay26client8protocol21check_raop_encryption
FNDA:0,_RNvNtNtCs41oluKY1Omx_8airplay26client8protocol21check_raop_encryption
FNDA:20,_RNvNtNtCs41oluKY1Omx_8airplay26client8protocol15select_protocol
FNF:2
FNH:1
DA:50,45
DA:51,45
DA:52,45
DA:53,45
DA:54,45
DA:56,3
DA:57,2
DA:59,1
DA:63,31
DA:64,30
DA:66,1
DA:70,7
DA:71,4
DA:72,3
DA:73,2
DA:75,1
DA:79,4
DA:80,3
DA:81,1
DA:82,1
DA:84,0
DA:88,45
DA:95,0
DA:96,0
DA:97,0
DA:98,0
DA:100,0
DA:103,0
DA:105,0
BRF:0
BRH:0
LF:29
LH:21
end_of_record
SF:/app/src/client/session.rs
FN:97,_RNCNCNvMNtNtCslUrB7RWuRKg_8airplay26client7sessionNtB6_15RaopSessionImpl12send_request00Ba_
FN:131,_RNCNCNvMNtNtCslUrB7RWuRKg_8airplay26client7sessionNtB6_15RaopSessionImpl12send_request0s1_0Ba_
FN:147,_RNCNCNvMNtNtCslUrB7RWuRKg_8airplay26client7sessionNtB6_15RaopSessionImpl12send_request0s2_0Ba_
FN:106,_RNCNCNvMNtNtCslUrB7RWuRKg_8airplay26client7sessionNtB6_15RaopSessionImpl12send_request0s_0Ba_
FN:198,_RNCNCNvMNtNtCslUrB7RWuRKg_8airplay26client7sessionNtB6_15RaopSessionImpl16setup_udp_socket00Ba_
FN:206,_RNCNCNvMNtNtCslUrB7RWuRKg_8airplay26client7sessionNtB6_15RaopSessionImpl16setup_udp_socket0s_0Ba_
FN:158,_RNCNCNvMNtNtCslUrB7RWuRKg_8airplay26client7sessionNtB6_15RaopSessionImpl21setup_audio_streaming00Ba_
FN:167,_RNCNCNvMNtNtCslUrB7RWuRKg_8airplay26client7sessionNtB6_15RaopSessionImpl21setup_audio_streaming0s_0Ba_
FN:386,_RNCNCNvXs0_NtNtCslUrB7RWuRKg_8airplay26client7sessionNtB9_15RaopSessionImplNtB9_14AirPlaySession12set_metadata00Bd_
FN:362,_RNCNCNvXs0_NtNtCslUrB7RWuRKg_8airplay26client7sessionNtB9_15RaopSessionImplNtB9_14AirPlaySession12stream_audio00Bd_
FN:317,_RNCNCNvXs0_NtNtCslUrB7RWuRKg_8airplay26client7sessionNtB9_15RaopSessionImplNtB9_14AirPlaySession5pause00Bd_
FN:223,_RNCNCNvXs0_NtNtCslUrB7RWuRKg_8airplay26client7sessionNtB9_15RaopSessionImplNtB9_14AirPlaySession7connect00Bd_
FN:244,_RNCNCNvXs0_NtNtCslUrB7RWuRKg_8airplay26client7sessionNtB9_15RaopSessionImplNtB9_14AirPlaySession7connect0s0_0Bd_
FN:252,_RNCNCNvXs0_NtNtCslUrB7RWuRKg_8airplay26client7sessionNtB9_15RaopSessionImplNtB9_14AirPlaySession7connect0s1_0Bd_
FN:263,_RNCNCNvXs0_NtNtCslUrB7RWuRKg_8airplay26client7sessionNtB9_15RaopSessionImplNtB9_14AirPlaySession7connect0s2_0Bd_
FN:273,_RNCNCNvXs0_NtNtCslUrB7RWuRKg_8airplay26client7sessionNtB9_15RaopSessionImplNtB9_14AirPlaySession7connect0s3_0Bd_
FN:235,_RNCNCNvXs0_NtNtCslUrB7RWuRKg_8airplay26client7sessionNtB9_15RaopSessionImplNtB9_14AirPlaySession7connect0s_0Bd_
FN:92,_RNCNvMNtNtCslUrB7RWuRKg_8airplay26client7sessionNtB4_15RaopSessionImpl12send_request0B8_
FN:193,_RNCNvMNtNtCslUrB7RWuRKg_8airplay26client7sessionNtB4_15RaopSessionImpl16setup_udp_socket0B8_
FN:152,_RNCNvMNtNtCslUrB7RWuRKg_8airplay26client7sessionNtB4_15RaopSessionImpl21setup_audio_streaming0B8_
FN:92,_RNvMNtNtCslUrB7RWuRKg_8airplay26client7sessionNtB2_15RaopSessionImpl12send_request
FN:189,_RNvMNtNtCslUrB7RWuRKg_8airplay26client7sessionNtB2_15RaopSessionImpl16setup_udp_socket
FN:152,_RNvMNtNtCslUrB7RWuRKg_8airplay26client7sessionNtB2_15RaopSessionImpl21setup_audio_streaming
FN:76,_RNvMNtNtCslUrB7RWuRKg_8airplay26client7sessionNtB2_15RaopSessionImpl3new
FN:445,_RNvMs_NtNtCslUrB7RWuRKg_8airplay26client7sessionNtB4_19AirPlay2SessionImpl3new
FN:283,_RNvXs0_NtNtCslUrB7RWuRKg_8airplay26client7sessionNtB5_15RaopSessionImplNtB5_14AirPlaySession10disconnect
FN:351,_RNvXs0_NtNtCslUrB7RWuRKg_8airplay26client7sessionNtB5_15RaopSessionImplNtB5_14AirPlaySession10get_volume
FN:331,_RNvXs0_NtNtCslUrB7RWuRKg_8airplay26client7sessionNtB5_15RaopSessionImplNtB5_14AirPlaySession10set_volume
FN:412,_RNvXs0_NtNtCslUrB7RWuRKg_8airplay26client7sessionNtB5_15RaopSessionImplNtB5_14AirPlaySession11set_artwork
FN:298,_RNvXs0_NtNtCslUrB7RWuRKg_8airplay26client7sessionNtB5_15RaopSessionImplNtB5_14AirPlaySession12is_connected
FN:377,_RNvXs0_NtNtCslUrB7RWuRKg_8airplay26client7sessionNtB5_15RaopSessionImplNtB5_14AirPlaySession12set_metadata
FN:355,_RNvXs0_NtNtCslUrB7RWuRKg_8airplay26client7sessionNtB5_15RaopSessionImplNtB5_14AirPlaySession12stream_audio
FN:427,_RNvXs0_NtNtCslUrB7RWuRKg_8airplay26client7sessionNtB5_15RaopSessionImplNtB5_14AirPlaySession14playback_state
FN:431,_RNvXs0_NtNtCslUrB7RWuRKg_8airplay26client7sessionNtB5_15RaopSessionImplNtB5_14AirPlaySession16protocol_version
FN:302,_RNvXs0_NtNtCslUrB7RWuRKg_8airplay26client7sessionNtB5_15RaopSessionImplNtB5_14AirPlaySession4play
FN:325,_RNvXs0_NtNtCslUrB7RWuRKg_8airplay26client7sessionNtB5_15RaopSessionImplNtB5_14AirPlaySession4stop
FN:370,_RNvXs0_NtNtCslUrB7RWuRKg_8airplay26client7sessionNtB5_15RaopSessionImplNtB5_14AirPlaySession5flush
FN:310,_RNvXs0_NtNtCslUrB7RWuRKg_8airplay26client7sessionNtB5_15RaopSessionImplNtB5_14AirPlaySession5pause
FN:216,_RNvXs0_NtNtCslUrB7RWuRKg_8airplay26client7sessionNtB5_15RaopSessionImplNtB5_14AirPlaySession7connect
FN:459,_RNvXs1_NtNtCslUrB7RWuRKg_8airplay26client7sessionNtB5_19AirPlay2SessionImplNtB5_14AirPlaySession10disconnect
FN:496,_RNvXs1_NtNtCslUrB7RWuRKg_8airplay26client7sessionNtB5_19AirPlay2SessionImplNtB5_14AirPlaySession10get_volume
FN:492,_RNvXs1_NtNtCslUrB7RWuRKg_8airplay26client7sessionNtB5_19AirPlay2SessionImplNtB5_14AirPlaySession10set_volume
FN:519,_RNvXs1_NtNtCslUrB7RWuRKg_8airplay26client7sessionNtB5_19AirPlay2SessionImplNtB5_14AirPlaySession11set_artwork
FN:463,_RNvXs1_NtNtCslUrB7RWuRKg_8airplay26client7sessionNtB5_19AirPlay2SessionImplNtB5_14AirPlaySession12is_connected
FN:514,_RNvXs1_NtNtCslUrB7RWuRKg_8airplay26client7sessionNtB5_19AirPlay2SessionImplNtB5_14AirPlaySession12set_metadata
FN:500,_RNvXs1_NtNtCslUrB7RWuRKg_8airplay26client7sessionNtB5_19AirPlay2SessionImplNtB5_14AirPlaySession12stream_audio
FN:524,_RNvXs1_NtNtCslUrB7RWuRKg_8airplay26client7sessionNtB5_19AirPlay2SessionImplNtB5_14AirPlaySession14playback_state
FN:528,_RNvXs1_NtNtCslUrB7RWuRKg_8airplay26client7sessionNtB5_19AirPlay2SessionImplNtB5_14AirPlaySession16protocol_version
FN:480,_RNvXs1_NtNtCslUrB7RWuRKg_8airplay26client7sessionNtB5_19AirPlay2SessionImplNtB5_14AirPlaySession4play
FN:488,_RNvXs1_NtNtCslUrB7RWuRKg_8airplay26client7sessionNtB5_19AirPlay2SessionImplNtB5_14AirPlaySession4stop
FN:509,_RNvXs1_NtNtCslUrB7RWuRKg_8airplay26client7sessionNtB5_19AirPlay2SessionImplNtB5_14AirPlaySession5flush
FN:484,_RNvXs1_NtNtCslUrB7RWuRKg_8airplay26client7sessionNtB5_19AirPlay2SessionImplNtB5_14AirPlaySession5pause
FN:455,_RNvXs1_NtNtCslUrB7RWuRKg_8airplay26client7sessionNtB5_19AirPlay2SessionImplNtB5_14AirPlaySession7connect
FN:97,_RNCNCNvMNtNtCs41oluKY1Omx_8airplay26client7sessionNtB6_15RaopSessionImpl12send_request00Ba_
FN:131,_RNCNCNvMNtNtCs41oluKY1Omx_8airplay26client7sessionNtB6_15RaopSessionImpl12send_request0s1_0Ba_
FN:147,_RNCNCNvMNtNtCs41oluKY1Omx_8airplay26client7sessionNtB6_15RaopSessionImpl12send_request0s2_0Ba_
FN:106,_RNCNCNvMNtNtCs41oluKY1Omx_8airplay26client7sessionNtB6_15RaopSessionImpl12send_request0s_0Ba_
FN:198,_RNCNCNvMNtNtCs41oluKY1Omx_8airplay26client7sessionNtB6_15RaopSessionImpl16setup_udp_socket00Ba_
FN:206,_RNCNCNvMNtNtCs41oluKY1Omx_8airplay26client7sessionNtB6_15RaopSessionImpl16setup_udp_socket0s_0Ba_
FN:158,_RNCNCNvMNtNtCs41oluKY1Omx_8airplay26client7sessionNtB6_15RaopSessionImpl21setup_audio_streaming00Ba_
FN:167,_RNCNCNvMNtNtCs41oluKY1Omx_8airplay26client7sessionNtB6_15RaopSessionImpl21setup_audio_streaming0s_0Ba_
FN:386,_RNCNCNvXs0_NtNtCs41oluKY1Omx_8airplay26client7sessionNtB9_15RaopSessionImplNtB9_14AirPlaySession12set_metadata00Bd_
FN:362,_RNCNCNvXs0_NtNtCs41oluKY1Omx_8airplay26client7sessionNtB9_15RaopSessionImplNtB9_14AirPlaySession12stream_audio00Bd_
FN:317,_RNCNCNvXs0_NtNtCs41oluKY1Omx_8airplay26client7sessionNtB9_15RaopSessionImplNtB9_14AirPlaySession5pause00Bd_
FN:223,_RNCNCNvXs0_NtNtCs41oluKY1Omx_8airplay26client7sessionNtB9_15RaopSessionImplNtB9_14AirPlaySession7connect00Bd_
FN:244,_RNCNCNvXs0_NtNtCs41oluKY1Omx_8airplay26client7sessionNtB9_15RaopSessionImplNtB9_14AirPlaySession7connect0s0_0Bd_
FN:252,_RNCNCNvXs0_NtNtCs41oluKY1Omx_8airplay26client7sessionNtB9_15RaopSessionImplNtB9_14AirPlaySession7connect0s1_0Bd_
FN:263,_RNCNCNvXs0_NtNtCs41oluKY1Omx_8airplay26client7sessionNtB9_15RaopSessionImplNtB9_14AirPlaySession7connect0s2_0Bd_
FN:273,_RNCNCNvXs0_NtNtCs41oluKY1Omx_8airplay26client7sessionNtB9_15RaopSessionImplNtB9_14AirPlaySession7connect0s3_0Bd_
FN:235,_RNCNCNvXs0_NtNtCs41oluKY1Omx_8airplay26client7sessionNtB9_15RaopSessionImplNtB9_14AirPlaySession7connect0s_0Bd_
FN:92,_RNCNvMNtNtCs41oluKY1Omx_8airplay26client7sessionNtB4_15RaopSessionImpl12send_request0B8_
FN:193,_RNCNvMNtNtCs41oluKY1Omx_8airplay26client7sessionNtB4_15RaopSessionImpl16setup_udp_socket0B8_
FN:152,_RNCNvMNtNtCs41oluKY1Omx_8airplay26client7sessionNtB4_15RaopSessionImpl21setup_audio_streaming0B8_
FN:92,_RNvMNtNtCs41oluKY1Omx_8airplay26client7sessionNtB2_15RaopSessionImpl12send_request
FN:189,_RNvMNtNtCs41oluKY1Omx_8airplay26client7sessionNtB2_15RaopSessionImpl16setup_udp_socket
FN:152,_RNvMNtNtCs41oluKY1Omx_8airplay26client7sessionNtB2_15RaopSessionImpl21setup_audio_streaming
FN:76,_RNvMNtNtCs41oluKY1Omx_8airplay26client7sessionNtB2_15RaopSessionImpl3new
FN:445,_RNvMs_NtNtCs41oluKY1Omx_8airplay26client7sessionNtB4_19AirPlay2SessionImpl3new
FN:283,_RNvXs0_NtNtCs41oluKY1Omx_8airplay26client7sessionNtB5_15RaopSessionImplNtB5_14AirPlaySession10disconnect
FN:351,_RNvXs0_NtNtCs41oluKY1Omx_8airplay26client7sessionNtB5_15RaopSessionImplNtB5_14AirPlaySession10get_volume
FN:331,_RNvXs0_NtNtCs41oluKY1Omx_8airplay26client7sessionNtB5_15RaopSessionImplNtB5_14AirPlaySession10set_volume
FN:412,_RNvXs0_NtNtCs41oluKY1Omx_8airplay26client7sessionNtB5_15RaopSessionImplNtB5_14AirPlaySession11set_artwork
FN:298,_RNvXs0_NtNtCs41oluKY1Omx_8airplay26client7sessionNtB5_15RaopSessionImplNtB5_14AirPlaySession12is_connected
FN:377,_RNvXs0_NtNtCs41oluKY1Omx_8airplay26client7sessionNtB5_15RaopSessionImplNtB5_14AirPlaySession12set_metadata
FN:355,_RNvXs0_NtNtCs41oluKY1Omx_8airplay26client7sessionNtB5_15RaopSessionImplNtB5_14AirPlaySession12stream_audio
FN:427,_RNvXs0_NtNtCs41oluKY1Omx_8airplay26client7sessionNtB5_15RaopSessionImplNtB5_14AirPlaySession14playback_state
FN:431,_RNvXs0_NtNtCs41oluKY1Omx_8airplay26client7sessionNtB5_15RaopSessionImplNtB5_14AirPlaySession16protocol_version
FN:302,_RNvXs0_NtNtCs41oluKY1Omx_8airplay26client7sessionNtB5_15RaopSessionImplNtB5_14AirPlaySession4play
FN:325,_RNvXs0_NtNtCs41oluKY1Omx_8airplay26client7sessionNtB5_15RaopSessionImplNtB5_14AirPlaySession4stop
FN:370,_RNvXs0_NtNtCs41oluKY1Omx_8airplay26client7sessionNtB5_15RaopSessionImplNtB5_14AirPlaySession5flush
FN:310,_RNvXs0_NtNtCs41oluKY1Omx_8airplay26client7sessionNtB5_15RaopSessionImplNtB5_14AirPlaySession5pause
FN:216,_RNvXs0_NtNtCs41oluKY1Omx_8airplay26client7sessionNtB5_15RaopSessionImplNtB5_14AirPlaySession7connect
FN:459,_RNvXs1_NtNtCs41oluKY1Omx_8airplay26client7sessionNtB5_19AirPlay2SessionImplNtB5_14AirPlaySession10disconnect
FN:496,_RNvXs1_NtNtCs41oluKY1Omx_8airplay26client7sessionNtB5_19AirPlay2SessionImplNtB5_14AirPlaySession10get_volume
FN:492,_RNvXs1_NtNtCs41oluKY1Omx_8airplay26client7sessionNtB5_19AirPlay2SessionImplNtB5_14AirPlaySession10set_volume
FN:519,_RNvXs1_NtNtCs41oluKY1Omx_8airplay26client7sessionNtB5_19AirPlay2SessionImplNtB5_14AirPlaySession11set_artwork
FN:463,_RNvXs1_NtNtCs41oluKY1Omx_8airplay26client7sessionNtB5_19AirPlay2SessionImplNtB5_14AirPlaySession12is_connected
FN:514,_RNvXs1_NtNtCs41oluKY1Omx_8airplay26client7sessionNtB5_19AirPlay2SessionImplNtB5_14AirPlaySession12set_metadata
FN:500,_RNvXs1_NtNtCs41oluKY1Omx_8airplay26client7sessionNtB5_19AirPlay2SessionImplNtB5_14AirPlaySession12stream_audio
FN:524,_RNvXs1_NtNtCs41oluKY1Omx_8airplay26client7sessionNtB5_19AirPlay2SessionImplNtB5_14AirPlaySession14playback_state
FN:528,_RNvXs1_NtNtCs41oluKY1Omx_8airplay26client7sessionNtB5_19AirPlay2SessionImplNtB5_14AirPlaySession16protocol_version
FN:480,_RNvXs1_NtNtCs41oluKY1Omx_8airplay26client7sessionNtB5_19AirPlay2SessionImplNtB5_14AirPlaySession4play
FN:488,_RNvXs1_NtNtCs41oluKY1Omx_8airplay26client7sessionNtB5_19AirPlay2SessionImplNtB5_14AirPlaySession4stop
FN:509,_RNvXs1_NtNtCs41oluKY1Omx_8airplay26client7sessionNtB5_19AirPlay2SessionImplNtB5_14AirPlaySession5flush
FN:484,_RNvXs1_NtNtCs41oluKY1Omx_8airplay26client7sessionNtB5_19AirPlay2SessionImplNtB5_14AirPlaySession5pause
FN:455,_RNvXs1_NtNtCs41oluKY1Omx_8airplay26client7sessionNtB5_19AirPlay2SessionImplNtB5_14AirPlaySession7connect
FNDA:0,_RNCNCNvMNtNtCslUrB7RWuRKg_8airplay26client7sessionNtB6_15RaopSessionImpl12send_request00Ba_
FNDA:0,_RNCNCNvMNtNtCslUrB7RWuRKg_8airplay26client7sessionNtB6_15RaopSessionImpl12send_request0s1_0Ba_
FNDA:0,_RNCNCNvMNtNtCslUrB7RWuRKg_8airplay26client7sessionNtB6_15RaopSessionImpl12send_request0s2_0Ba_
FNDA:0,_RNCNCNvMNtNtCslUrB7RWuRKg_8airplay26client7sessionNtB6_15RaopSessionImpl12send_request0s_0Ba_
FNDA:0,_RNCNCNvMNtNtCslUrB7RWuRKg_8airplay26client7sessionNtB6_15RaopSessionImpl16setup_udp_socket00Ba_
FNDA:0,_RNCNCNvMNtNtCslUrB7RWuRKg_8airplay26client7sessionNtB6_15RaopSessionImpl16setup_udp_socket0s_0Ba_
FNDA:0,_RNCNCNvMNtNtCslUrB7RWuRKg_8airplay26client7sessionNtB6_15RaopSessionImpl21setup_audio_streaming00Ba_
FNDA:0,_RNCNCNvMNtNtCslUrB7RWuRKg_8airplay26client7sessionNtB6_15RaopSessionImpl21setup_audio_streaming0s_0Ba_
FNDA:0,_RNCNCNvXs0_NtNtCslUrB7RWuRKg_8airplay26client7sessionNtB9_15RaopSessionImplNtB9_14AirPlaySession12set_metadata00Bd_
FNDA:0,_RNCNCNvXs0_NtNtCslUrB7RWuRKg_8airplay26client7sessionNtB9_15RaopSessionImplNtB9_14AirPlaySession12stream_audio00Bd_
FNDA:0,_RNCNCNvXs0_NtNtCslUrB7RWuRKg_8airplay26client7sessionNtB9_15RaopSessionImplNtB9_14AirPlaySession5pause00Bd_
FNDA:0,_RNCNCNvXs0_NtNtCslUrB7RWuRKg_8airplay26client7sessionNtB9_15RaopSessionImplNtB9_14AirPlaySession7connect00Bd_
FNDA:0,_RNCNCNvXs0_NtNtCslUrB7RWuRKg_8airplay26client7sessionNtB9_15RaopSessionImplNtB9_14AirPlaySession7connect0s0_0Bd_
FNDA:0,_RNCNCNvXs0_NtNtCslUrB7RWuRKg_8airplay26client7sessionNtB9_15RaopSessionImplNtB9_14AirPlaySession7connect0s1_0Bd_
FNDA:0,_RNCNCNvXs0_NtNtCslUrB7RWuRKg_8airplay26client7sessionNtB9_15RaopSessionImplNtB9_14AirPlaySession7connect0s2_0Bd_
FNDA:0,_RNCNCNvXs0_NtNtCslUrB7RWuRKg_8airplay26client7sessionNtB9_15RaopSessionImplNtB9_14AirPlaySession7connect0s3_0Bd_
FNDA:0,_RNCNCNvXs0_NtNtCslUrB7RWuRKg_8airplay26client7sessionNtB9_15RaopSessionImplNtB9_14AirPlaySession7connect0s_0Bd_
FNDA:228,_RNCNvMNtNtCslUrB7RWuRKg_8airplay26client7sessionNtB4_15RaopSessionImpl12send_request0B8_
FNDA:50,_RNCNvMNtNtCslUrB7RWuRKg_8airplay26client7sessionNtB4_15RaopSessionImpl16setup_udp_socket0B8_
FNDA:25,_RNCNvMNtNtCslUrB7RWuRKg_8airplay26client7sessionNtB4_15RaopSessionImpl21setup_audio_streaming0B8_
FNDA:228,_RNvMNtNtCslUrB7RWuRKg_8airplay26client7sessionNtB2_15RaopSessionImpl12send_request
FNDA:50,_RNvMNtNtCslUrB7RWuRKg_8airplay26client7sessionNtB2_15RaopSessionImpl16setup_udp_socket
FNDA:25,_RNvMNtNtCslUrB7RWuRKg_8airplay26client7sessionNtB2_15RaopSessionImpl21setup_audio_streaming
FNDA:25,_RNvMNtNtCslUrB7RWuRKg_8airplay26client7sessionNtB2_15RaopSessionImpl3new
FNDA:0,_RNvMs_NtNtCslUrB7RWuRKg_8airplay26client7sessionNtB4_19AirPlay2SessionImpl3new
FNDA:25,_RNvXs0_NtNtCslUrB7RWuRKg_8airplay26client7sessionNtB5_15RaopSessionImplNtB5_14AirPlaySession10disconnect
FNDA:0,_RNvXs0_NtNtCslUrB7RWuRKg_8airplay26client7sessionNtB5_15RaopSessionImplNtB5_14AirPlaySession10get_volume
FNDA:1,_RNvXs0_NtNtCslUrB7RWuRKg_8airplay26client7sessionNtB5_15RaopSessionImplNtB5_14AirPlaySession10set_volume
FNDA:1,_RNvXs0_NtNtCslUrB7RWuRKg_8airplay26client7sessionNtB5_15RaopSessionImplNtB5_14AirPlaySession11set_artwork
FNDA:22,_RNvXs0_NtNtCslUrB7RWuRKg_8airplay26client7sessionNtB5_15RaopSessionImplNtB5_14AirPlaySession12is_connected
FNDA:101,_RNvXs0_NtNtCslUrB7RWuRKg_8airplay26client7sessionNtB5_15RaopSessionImplNtB5_14AirPlaySession12set_metadata
FNDA:0,_RNvXs0_NtNtCslUrB7RWuRKg_8airplay26client7sessionNtB5_15RaopSessionImplNtB5_14AirPlaySession12stream_audio
FNDA:0,_RNvXs0_NtNtCslUrB7RWuRKg_8airplay26client7sessionNtB5_15RaopSessionImplNtB5_14AirPlaySession14playback_state
FNDA:0,_RNvXs0_NtNtCslUrB7RWuRKg_8airplay26client7sessionNtB5_15RaopSessionImplNtB5_14AirPlaySession16protocol_version
FNDA:0,_RNvXs0_NtNtCslUrB7RWuRKg_8airplay26client7sessionNtB5_15RaopSessionImplNtB5_14AirPlaySession4play
FNDA:0,_RNvXs0_NtNtCslUrB7RWuRKg_8airplay26client7sessionNtB5_15RaopSessionImplNtB5_14AirPlaySession4stop
FNDA:0,_RNvXs0_NtNtCslUrB7RWuRKg_8airplay26client7sessionNtB5_15RaopSessionImplNtB5_14AirPlaySession5flush
FNDA:0,_RNvXs0_NtNtCslUrB7RWuRKg_8airplay26client7sessionNtB5_15RaopSessionImplNtB5_14AirPlaySession5pause
FNDA:25,_RNvXs0_NtNtCslUrB7RWuRKg_8airplay26client7sessionNtB5_15RaopSessionImplNtB5_14AirPlaySession7connect
FNDA:0,_RNvXs1_NtNtCslUrB7RWuRKg_8airplay26client7sessionNtB5_19AirPlay2SessionImplNtB5_14AirPlaySession10disconnect
FNDA:0,_RNvXs1_NtNtCslUrB7RWuRKg_8airplay26client7sessionNtB5_19AirPlay2SessionImplNtB5_14AirPlaySession10get_volume
FNDA:0,_RNvXs1_NtNtCslUrB7RWuRKg_8airplay26client7sessionNtB5_19AirPlay2SessionImplNtB5_14AirPlaySession10set_volume
FNDA:0,_RNvXs1_NtNtCslUrB7RWuRKg_8airplay26client7sessionNtB5_19AirPlay2SessionImplNtB5_14AirPlaySession11set_artwork
FNDA:0,_RNvXs1_NtNtCslUrB7RWuRKg_8airplay26client7sessionNtB5_19AirPlay2SessionImplNtB5_14AirPlaySession12is_connected
FNDA:0,_RNvXs1_NtNtCslUrB7RWuRKg_8airplay26client7sessionNtB5_19AirPlay2SessionImplNtB5_14AirPlaySession12set_metadata
FNDA:0,_RNvXs1_NtNtCslUrB7RWuRKg_8airplay26client7sessionNtB5_19AirPlay2SessionImplNtB5_14AirPlaySession12stream_audio
FNDA:0,_RNvXs1_NtNtCslUrB7RWuRKg_8airplay26client7sessionNtB5_19AirPlay2SessionImplNtB5_14AirPlaySession14playback_state
FNDA:0,_RNvXs1_NtNtCslUrB7RWuRKg_8airplay26client7sessionNtB5_19AirPlay2SessionImplNtB5_14AirPlaySession16protocol_version
FNDA:0,_RNvXs1_NtNtCslUrB7RWuRKg_8airplay26client7sessionNtB5_19AirPlay2SessionImplNtB5_14AirPlaySession4play
FNDA:0,_RNvXs1_NtNtCslUrB7RWuRKg_8airplay26client7sessionNtB5_19AirPlay2SessionImplNtB5_14AirPlaySession4stop
FNDA:0,_RNvXs1_NtNtCslUrB7RWuRKg_8airplay26client7sessionNtB5_19AirPlay2SessionImplNtB5_14AirPlaySession5flush
FNDA:0,_RNvXs1_NtNtCslUrB7RWuRKg_8airplay26client7sessionNtB5_19AirPlay2SessionImplNtB5_14AirPlaySession5pause
FNDA:0,_RNvXs1_NtNtCslUrB7RWuRKg_8airplay26client7sessionNtB5_19AirPlay2SessionImplNtB5_14AirPlaySession7connect
FNDA:0,_RNCNCNvMNtNtCs41oluKY1Omx_8airplay26client7sessionNtB6_15RaopSessionImpl12send_request00Ba_
FNDA:0,_RNCNCNvMNtNtCs41oluKY1Omx_8airplay26client7sessionNtB6_15RaopSessionImpl12send_request0s1_0Ba_
FNDA:0,_RNCNCNvMNtNtCs41oluKY1Omx_8airplay26client7sessionNtB6_15RaopSessionImpl12send_request0s2_0Ba_
FNDA:0,_RNCNCNvMNtNtCs41oluKY1Omx_8airplay26client7sessionNtB6_15RaopSessionImpl12send_request0s_0Ba_
FNDA:0,_RNCNCNvMNtNtCs41oluKY1Omx_8airplay26client7sessionNtB6_15RaopSessionImpl16setup_udp_socket00Ba_
FNDA:0,_RNCNCNvMNtNtCs41oluKY1Omx_8airplay26client7sessionNtB6_15RaopSessionImpl16setup_udp_socket0s_0Ba_
FNDA:0,_RNCNCNvMNtNtCs41oluKY1Omx_8airplay26client7sessionNtB6_15RaopSessionImpl21setup_audio_streaming00Ba_
FNDA:0,_RNCNCNvMNtNtCs41oluKY1Omx_8airplay26client7sessionNtB6_15RaopSessionImpl21setup_audio_streaming0s_0Ba_
FNDA:0,_RNCNCNvXs0_NtNtCs41oluKY1Omx_8airplay26client7sessionNtB9_15RaopSessionImplNtB9_14AirPlaySession12set_metadata00Bd_
FNDA:0,_RNCNCNvXs0_NtNtCs41oluKY1Omx_8airplay26client7sessionNtB9_15RaopSessionImplNtB9_14AirPlaySession12stream_audio00Bd_
FNDA:0,_RNCNCNvXs0_NtNtCs41oluKY1Omx_8airplay26client7sessionNtB9_15RaopSessionImplNtB9_14AirPlaySession5pause00Bd_
FNDA:1,_RNCNCNvXs0_NtNtCs41oluKY1Omx_8airplay26client7sessionNtB9_15RaopSessionImplNtB9_14AirPlaySession7connect00Bd_
FNDA:0,_RNCNCNvXs0_NtNtCs41oluKY1Omx_8airplay26client7sessionNtB9_15RaopSessionImplNtB9_14AirPlaySession7connect0s0_0Bd_
FNDA:0,_RNCNCNvXs0_NtNtCs41oluKY1Omx_8airplay26client7sessionNtB9_15RaopSessionImplNtB9_14AirPlaySession7connect0s1_0Bd_
FNDA:0,_RNCNCNvXs0_NtNtCs41oluKY1Omx_8airplay26client7sessionNtB9_15RaopSessionImplNtB9_14AirPlaySession7connect0s2_0Bd_
FNDA:0,_RNCNCNvXs0_NtNtCs41oluKY1Omx_8airplay26client7sessionNtB9_15RaopSessionImplNtB9_14AirPlaySession7connect0s3_0Bd_
FNDA:0,_RNCNCNvXs0_NtNtCs41oluKY1Omx_8airplay26client7sessionNtB9_15RaopSessionImplNtB9_14AirPlaySession7connect0s_0Bd_
FNDA:18,_RNCNvMNtNtCs41oluKY1Omx_8airplay26client7sessionNtB4_15RaopSessionImpl12send_request0B8_
FNDA:8,_RNCNvMNtNtCs41oluKY1Omx_8airplay26client7sessionNtB4_15RaopSessionImpl16setup_udp_socket0B8_
FNDA:4,_RNCNvMNtNtCs41oluKY1Omx_8airplay26client7sessionNtB4_15RaopSessionImpl21setup_audio_streaming0B8_
FNDA:18,_RNvMNtNtCs41oluKY1Omx_8airplay26client7sessionNtB2_15RaopSessionImpl12send_request
FNDA:8,_RNvMNtNtCs41oluKY1Omx_8airplay26client7sessionNtB2_15RaopSessionImpl16setup_udp_socket
FNDA:4,_RNvMNtNtCs41oluKY1Omx_8airplay26client7sessionNtB2_15RaopSessionImpl21setup_audio_streaming
FNDA:5,_RNvMNtNtCs41oluKY1Omx_8airplay26client7sessionNtB2_15RaopSessionImpl3new
FNDA:2,_RNvMs_NtNtCs41oluKY1Omx_8airplay26client7sessionNtB4_19AirPlay2SessionImpl3new
FNDA:2,_RNvXs0_NtNtCs41oluKY1Omx_8airplay26client7sessionNtB5_15RaopSessionImplNtB5_14AirPlaySession10disconnect
FNDA:0,_RNvXs0_NtNtCs41oluKY1Omx_8airplay26client7sessionNtB5_15RaopSessionImplNtB5_14AirPlaySession10get_volume
FNDA:0,_RNvXs0_NtNtCs41oluKY1Omx_8airplay26client7sessionNtB5_15RaopSessionImplNtB5_14AirPlaySession10set_volume
FNDA:0,_RNvXs0_NtNtCs41oluKY1Omx_8airplay26client7sessionNtB5_15RaopSessionImplNtB5_14AirPlaySession11set_artwork
FNDA:2,_RNvXs0_NtNtCs41oluKY1Omx_8airplay26client7sessionNtB5_15RaopSessionImplNtB5_14AirPlaySession12is_connected
FNDA:0,_RNvXs0_NtNtCs41oluKY1Omx_8airplay26client7sessionNtB5_15RaopSessionImplNtB5_14AirPlaySession12set_metadata
FNDA:5,_RNvXs0_NtNtCs41oluKY1Omx_8airplay26client7sessionNtB5_15RaopSessionImplNtB5_14AirPlaySession12stream_audio
FNDA:0,_RNvXs0_NtNtCs41oluKY1Omx_8airplay26client7sessionNtB5_15RaopSessionImplNtB5_14AirPlaySession14playback_state
FNDA:1,_RNvXs0_NtNtCs41oluKY1Omx_8airplay26client7sessionNtB5_15RaopSessionImplNtB5_14AirPlaySession16protocol_version
FNDA:0,_RNvXs0_NtNtCs41oluKY1Omx_8airplay26client7sessionNtB5_15RaopSessionImplNtB5_14AirPlaySession4play
FNDA:0,_RNvXs0_NtNtCs41oluKY1Omx_8airplay26client7sessionNtB5_15RaopSessionImplNtB5_14AirPlaySession4stop
FNDA:0,_RNvXs0_NtNtCs41oluKY1Omx_8airplay26client7sessionNtB5_15RaopSessionImplNtB5_14AirPlaySession5flush
FNDA:0,_RNvXs0_NtNtCs41oluKY1Omx_8airplay26client7sessionNtB5_15RaopSessionImplNtB5_14AirPlaySession5pause
FNDA:5,_RNvXs0_NtNtCs41oluKY1Omx_8airplay26client7sessionNtB5_15RaopSessionImplNtB5_14AirPlaySession7connect
FNDA:0,_RNvXs1_NtNtCs41oluKY1Omx_8airplay26client7sessionNtB5_19AirPlay2SessionImplNtB5_14AirPlaySession10disconnect
FNDA:0,_RNvXs1_NtNtCs41oluKY1Omx_8airplay26client7sessionNtB5_19AirPlay2SessionImplNtB5_14AirPlaySession10get_volume
FNDA:0,_RNvXs1_NtNtCs41oluKY1Omx_8airplay26client7sessionNtB5_19AirPlay2SessionImplNtB5_14AirPlaySession10set_volume
FNDA:0,_RNvXs1_NtNtCs41oluKY1Omx_8airplay26client7sessionNtB5_19AirPlay2SessionImplNtB5_14AirPlaySession11set_artwork
FNDA:0,_RNvXs1_NtNtCs41oluKY1Omx_8airplay26client7sessionNtB5_19AirPlay2SessionImplNtB5_14AirPlaySession12is_connected
FNDA:0,_RNvXs1_NtNtCs41oluKY1Omx_8airplay26client7sessionNtB5_19AirPlay2SessionImplNtB5_14AirPlaySession12set_metadata
FNDA:0,_RNvXs1_NtNtCs41oluKY1Omx_8airplay26client7sessionNtB5_19AirPlay2SessionImplNtB5_14AirPlaySession12stream_audio
FNDA:0,_RNvXs1_NtNtCs41oluKY1Omx_8airplay26client7sessionNtB5_19AirPlay2SessionImplNtB5_14AirPlaySession14playback_state
FNDA:0,_RNvXs1_NtNtCs41oluKY1Omx_8airplay26client7sessionNtB5_19AirPlay2SessionImplNtB5_14AirPlaySession16protocol_version
FNDA:0,_RNvXs1_NtNtCs41oluKY1Omx_8airplay26client7sessionNtB5_19AirPlay2SessionImplNtB5_14AirPlaySession4play
FNDA:0,_RNvXs1_NtNtCs41oluKY1Omx_8airplay26client7sessionNtB5_19AirPlay2SessionImplNtB5_14AirPlaySession4stop
FNDA:0,_RNvXs1_NtNtCs41oluKY1Omx_8airplay26client7sessionNtB5_19AirPlay2SessionImplNtB5_14AirPlaySession5flush
FNDA:0,_RNvXs1_NtNtCs41oluKY1Omx_8airplay26client7sessionNtB5_19AirPlay2SessionImplNtB5_14AirPlaySession5pause
FNDA:2,_RNvXs1_NtNtCs41oluKY1Omx_8airplay26client7sessionNtB5_19AirPlay2SessionImplNtB5_14AirPlaySession7connect
FNF:53
FNH:18
DA:76,30
DA:77,30
DA:78,30
DA:79,30
DA:80,30
DA:81,30
DA:82,30
DA:83,30
DA:84,30
DA:85,30
DA:86,30
DA:87,30
DA:88,30
DA:89,30
DA:90,30
DA:92,246
DA:93,246
DA:94,246
DA:95,246
DA:96,246
DA:97,0
DA:98,0
DA:101,246
DA:102,246
DA:103,246
DA:104,246
DA:105,246
DA:106,0
DA:107,0
DA:108,0
DA:109,0
DA:114,492
DA:115,246
DA:116,246
DA:117,0
DA:118,0
DA:119,0
DA:120,0
DA:125,246
DA:126,246
DA:127,246
DA:128,246
DA:129,246
DA:130,246
DA:131,0
DA:132,0
DA:133,0
DA:134,0
DA:136,246
DA:137,0
DA:138,0
DA:139,0
DA:140,0
DA:141,0
DA:142,246
DA:144,246
DA:145,246
DA:146,246
DA:147,0
DA:148,0
DA:150,246
DA:152,29
DA:154,29
DA:155,29
DA:156,29
DA:157,29
DA:158,0
DA:159,0
DA:160,0
DA:161,0
DA:163,29
DA:164,29
DA:165,29
DA:166,29
DA:167,0
DA:168,0
DA:169,0
DA:170,0
DA:172,29
DA:173,29
DA:174,29
DA:175,29
DA:176,29
DA:177,29
DA:179,29
DA:180,29
DA:182,29
DA:183,29
DA:184,29
DA:186,29
DA:187,29
DA:189,58
DA:190,58
DA:191,58
DA:192,58
DA:193,58
DA:194,58
DA:195,58
DA:196,58
DA:197,58
DA:198,0
DA:199,0
DA:200,0
DA:201,0
DA:202,58
DA:203,58
DA:204,58
DA:205,58
DA:206,0
DA:207,0
DA:208,0
DA:209,0
DA:210,58
DA:211,58
DA:216,30
DA:223,1
DA:224,1
DA:225,1
DA:226,1
DA:235,0
DA:236,0
DA:237,0
DA:244,0
DA:245,0
DA:246,0
DA:252,0
DA:253,0
DA:254,0
DA:263,0
DA:264,0
DA:265,0
DA:273,0
DA:274,0
DA:275,0
DA:281,30
DA:283,27
DA:296,27
DA:298,24
DA:299,24
DA:300,24
DA:302,0
DA:308,0
DA:310,0
DA:317,0
DA:318,0
DA:319,0
DA:323,0
DA:325,0
DA:329,0
DA:331,1
DA:349,1
DA:351,0
DA:353,0
DA:355,5
DA:362,0
DA:363,0
DA:364,0
DA:365,0
DA:368,5
DA:370,0
DA:375,0
DA:377,101
DA:386,0
DA:387,0
DA:388,0
DA:389,0
DA:390,0
DA:391,0
DA:400,0
DA:403,0
DA:410,101
DA:412,1
DA:425,1
DA:427,0
DA:429,0
DA:431,1
DA:432,1
DA:433,1
DA:445,2
DA:446,2
DA:447,2
DA:448,2
DA:449,2
DA:450,2
DA:455,2
DA:457,2
DA:459,0
DA:461,0
DA:463,0
DA:477,0
DA:478,0
DA:480,0
DA:482,0
DA:484,0
DA:486,0
DA:488,0
DA:490,0
DA:492,0
DA:494,0
DA:496,0
DA:498,0
DA:500,0
DA:507,0
DA:509,0
DA:512,0
DA:514,0
DA:517,0
DA:519,0
DA:522,0
DA:524,0
DA:526,0
DA:528,0
DA:529,0
DA:530,0
BRF:0
BRH:0
LF:225
LH:110
end_of_record
SF:/app/src/connection/manager.rs
FN:271,_RNCNCNvMNtNtCslUrB7RWuRKg_8airplay210connection7managerNtB6_17ConnectionManager14remove_pairing00Ba_
FN:1719,_RNCNCNvMNtNtCslUrB7RWuRKg_8airplay210connection7managerNtB6_17ConnectionManager25send_set_rate_anchor_time00Ba_
FN:2322,_RNCNvMNtNtCslUrB7RWuRKg_8airplay210connection7managerNtB4_17ConnectionManager13is_ptp_active0B8_
FN:269,_RNCNvMNtNtCslUrB7RWuRKg_8airplay210connection7managerNtB4_17ConnectionManager14remove_pairing0B8_
FN:2317,_RNCNvMNtNtCslUrB7RWuRKg_8airplay210connection7managerNtB4_17ConnectionManager15device_clock_id0B8_
FN:2327,_RNCNvMNtNtCslUrB7RWuRKg_8airplay210connection7managerNtB4_17ConnectionManager19is_ptp_synchronized0B8_
FN:1654,_RNCNvMNtNtCslUrB7RWuRKg_8airplay210connection7managerNtB4_17ConnectionManager25send_set_rate_anchor_time0B8_
FN:123,_RNCNvMNtNtCslUrB7RWuRKg_8airplay210connection7managerNtB4_17ConnectionManager5stats0B8_
FN:2312,_RNCNvMNtNtCslUrB7RWuRKg_8airplay210connection7managerNtB4_17ConnectionManager9ptp_clock0B8_
FN:1178,_RNCNCNCNvMNtNtCslUrB7RWuRKg_8airplay210connection7managerNtB8_17ConnectionManager13setup_session0se_00Bc_
FN:1191,_RNCNCNCNvMNtNtCslUrB7RWuRKg_8airplay210connection7managerNtB8_17ConnectionManager13setup_session0se_0s_0Bc_
FN:335,_RNCNCNvMNtNtCslUrB7RWuRKg_8airplay210connection7managerNtB6_17ConnectionManager10auth_setup00Ba_
FN:346,_RNCNCNvMNtNtCslUrB7RWuRKg_8airplay210connection7managerNtB6_17ConnectionManager10auth_setup0s_0Ba_
FN:511,_RNCNCNvMNtNtCslUrB7RWuRKg_8airplay210connection7managerNtB6_17ConnectionManager10pair_setup00Ba_
FN:540,_RNCNCNvMNtNtCslUrB7RWuRKg_8airplay210connection7managerNtB6_17ConnectionManager10pair_setup0s0_0Ba_
FN:563,_RNCNCNvMNtNtCslUrB7RWuRKg_8airplay210connection7managerNtB6_17ConnectionManager10pair_setup0s1_0Ba_
FN:522,_RNCNCNvMNtNtCslUrB7RWuRKg_8airplay210connection7managerNtB6_17ConnectionManager10pair_setup0s_0Ba_
FN:664,_RNCNCNvMNtNtCslUrB7RWuRKg_8airplay210connection7managerNtB6_17ConnectionManager11pair_verify00Ba_
FN:685,_RNCNCNvMNtNtCslUrB7RWuRKg_8airplay210connection7managerNtB6_17ConnectionManager11pair_verify0s0_0Ba_
FN:702,_RNCNCNvMNtNtCslUrB7RWuRKg_8airplay210connection7managerNtB6_17ConnectionManager11pair_verify0s1_0Ba_
FN:675,_RNCNCNvMNtNtCslUrB7RWuRKg_8airplay210connection7managerNtB6_17ConnectionManager11pair_verify0s_0Ba_
FN:1892,_RNCNCNvMNtNtCslUrB7RWuRKg_8airplay210connection7managerNtB6_17ConnectionManager12send_command00Ba_
FN:1906,_RNCNCNvMNtNtCslUrB7RWuRKg_8airplay210connection7managerNtB6_17ConnectionManager12send_command0s0_0Ba_
FN:1918,_RNCNCNvMNtNtCslUrB7RWuRKg_8airplay210connection7managerNtB6_17ConnectionManager12send_command0s1_0Ba_
FN:1965,_RNCNCNvMNtNtCslUrB7RWuRKg_8airplay210connection7managerNtB6_17ConnectionManager12send_command0s2_0Ba_
FN:1900,_RNCNCNvMNtNtCslUrB7RWuRKg_8airplay210connection7managerNtB6_17ConnectionManager12send_command0s_0Ba_
FN:294,_RNCNCNvMNtNtCslUrB7RWuRKg_8airplay210connection7managerNtB6_17ConnectionManager12send_options00Ba_
FN:314,_RNCNCNvMNtNtCslUrB7RWuRKg_8airplay210connection7managerNtB6_17ConnectionManager12send_options0s0_0Ba_
FN:307,_RNCNCNvMNtNtCslUrB7RWuRKg_8airplay210connection7managerNtB6_17ConnectionManager12send_options0s_0Ba_
FN:750,_RNCNCNvMNtNtCslUrB7RWuRKg_8airplay210connection7managerNtB6_17ConnectionManager13setup_session00Ba_
FN:807,_RNCNCNvMNtNtCslUrB7RWuRKg_8airplay210connection7managerNtB6_17ConnectionManager13setup_session0s0_0Ba_
FN:812,_RNCNCNvMNtNtCslUrB7RWuRKg_8airplay210connection7managerNtB6_17ConnectionManager13setup_session0s1_0Ba_
FN:832,_RNCNCNvMNtNtCslUrB7RWuRKg_8airplay210connection7managerNtB6_17ConnectionManager13setup_session0s2_0Ba_
FN:869,_RNCNCNvMNtNtCslUrB7RWuRKg_8airplay210connection7managerNtB6_17ConnectionManager13setup_session0s3_0Ba_
FN:874,_RNCNCNvMNtNtCslUrB7RWuRKg_8airplay210connection7managerNtB6_17ConnectionManager13setup_session0s4_0Ba_
FN:884,_RNCNCNvMNtNtCslUrB7RWuRKg_8airplay210connection7managerNtB6_17ConnectionManager13setup_session0s5_0Ba_
FN:914,_RNCNCNvMNtNtCslUrB7RWuRKg_8airplay210connection7managerNtB6_17ConnectionManager13setup_session0s6_0Ba_
FN:944,_RNCNCNvMNtNtCslUrB7RWuRKg_8airplay210connection7managerNtB6_17ConnectionManager13setup_session0s7_0Ba_
FN:958,_RNCNCNvMNtNtCslUrB7RWuRKg_8airplay210connection7managerNtB6_17ConnectionManager13setup_session0s8_0Ba_
FN:1069,_RNCNCNvMNtNtCslUrB7RWuRKg_8airplay210connection7managerNtB6_17ConnectionManager13setup_session0s9_0Ba_
FN:801,_RNCNCNvMNtNtCslUrB7RWuRKg_8airplay210connection7managerNtB6_17ConnectionManager13setup_session0s_0Ba_
FN:1111,_RNCNCNvMNtNtCslUrB7RWuRKg_8airplay210connection7managerNtB6_17ConnectionManager13setup_session0sa_0Ba_
FN:1143,_RNCNCNvMNtNtCslUrB7RWuRKg_8airplay210connection7managerNtB6_17ConnectionManager13setup_session0sb_0Ba_
FN:1157,_RNCNCNvMNtNtCslUrB7RWuRKg_8airplay210connection7managerNtB6_17ConnectionManager13setup_session0sc_0Ba_
FN:1174,_RNCNCNvMNtNtCslUrB7RWuRKg_8airplay210connection7managerNtB6_17ConnectionManager13setup_session0sd_0Ba_
FN:1174,_RNCNCNvMNtNtCslUrB7RWuRKg_8airplay210connection7managerNtB6_17ConnectionManager13setup_session0se_0Ba_
FN:1258,_RNCNCNvMNtNtCslUrB7RWuRKg_8airplay210connection7managerNtB6_17ConnectionManager13setup_session0sf_0Ba_
FN:1753,_RNCNCNvMNtNtCslUrB7RWuRKg_8airplay210connection7managerNtB6_17ConnectionManager14send_rtp_audio00Ba_
FN:1587,_RNCNCNvMNtNtCslUrB7RWuRKg_8airplay210connection7managerNtB6_17ConnectionManager14send_set_peers00Ba_
FN:1602,_RNCNCNvMNtNtCslUrB7RWuRKg_8airplay210connection7managerNtB6_17ConnectionManager14send_set_peers0s0_0Ba_
FN:1613,_RNCNCNvMNtNtCslUrB7RWuRKg_8airplay210connection7managerNtB6_17ConnectionManager14send_set_peers0s1_0Ba_
FN:1592,_RNCNCNvMNtNtCslUrB7RWuRKg_8airplay210connection7managerNtB6_17ConnectionManager14send_set_peers0s_0Ba_
FN:2138,_RNCNCNvMNtNtCslUrB7RWuRKg_8airplay210connection7managerNtB6_17ConnectionManager14should_use_ptp00Ba_
FN:607,_RNCNCNvMNtNtCslUrB7RWuRKg_8airplay210connection7managerNtB6_17ConnectionManager14transient_pair00Ba_
FN:638,_RNCNCNvMNtNtCslUrB7RWuRKg_8airplay210connection7managerNtB6_17ConnectionManager14transient_pair0s0_0Ba_
FN:619,_RNCNCNvMNtNtCslUrB7RWuRKg_8airplay210connection7managerNtB6_17ConnectionManager14transient_pair0s_0Ba_
FN:196,_RNCNCNvMNtNtCslUrB7RWuRKg_8airplay210connection7managerNtB6_17ConnectionManager16connect_internal00Ba_
FN:223,_RNCNCNvMNtNtCslUrB7RWuRKg_8airplay210connection7managerNtB6_17ConnectionManager16connect_internal0s0_0Ba_
FN:222,_RNCNCNvMNtNtCslUrB7RWuRKg_8airplay210connection7managerNtB6_17ConnectionManager16connect_internal0s_0Ba_
FN:2032,_RNCNCNvMNtNtCslUrB7RWuRKg_8airplay210connection7managerNtB6_17ConnectionManager16send_get_command00Ba_
FN:2259,_RNCNCNvMNtNtCslUrB7RWuRKg_8airplay210connection7managerNtB6_17ConnectionManager16start_ptp_master00Ba_
FN:1380,_RNCNCNvMNtNtCslUrB7RWuRKg_8airplay210connection7managerNtB6_17ConnectionManager17send_pairing_data00Ba_
FN:1420,_RNCNCNvMNtNtCslUrB7RWuRKg_8airplay210connection7managerNtB6_17ConnectionManager17send_pairing_data0s_0Ba_
FN:1993,_RNCNCNvMNtNtCslUrB7RWuRKg_8airplay210connection7managerNtB6_17ConnectionManager17send_post_command00Ba_
FN:2012,_RNCNCNvMNtNtCslUrB7RWuRKg_8airplay210connection7managerNtB6_17ConnectionManager17send_post_command0s0_0Ba_
FN:1999,_RNCNCNvMNtNtCslUrB7RWuRKg_8airplay210connection7managerNtB6_17ConnectionManager17send_post_command0s_0Ba_
FN:1459,_RNCNCNvMNtNtCslUrB7RWuRKg_8airplay210connection7managerNtB6_17ConnectionManager17send_rtsp_request00Ba_
FN:1548,_RNCNCNvMNtNtCslUrB7RWuRKg_8airplay210connection7managerNtB6_17ConnectionManager17send_rtsp_request0s0_0Ba_
FN:1564,_RNCNCNvMNtNtCslUrB7RWuRKg_8airplay210connection7managerNtB6_17ConnectionManager17send_rtsp_request0s1_0Ba_
FN:1502,_RNCNCNvMNtNtCslUrB7RWuRKg_8airplay210connection7managerNtB6_17ConnectionManager17send_rtsp_request0s_0Ba_
FN:1826,_RNCNCNvMNtNtCslUrB7RWuRKg_8airplay210connection7managerNtB6_17ConnectionManager18send_time_announce00Ba_
FN:1868,_RNCNCNvMNtNtCslUrB7RWuRKg_8airplay210connection7managerNtB6_17ConnectionManager18send_time_announce0s_0Ba_
FN:1798,_RNCNCNvMNtNtCslUrB7RWuRKg_8airplay210connection7managerNtB6_17ConnectionManager20get_ptp_network_time00Ba_
FN:1636,_RNCNCNvMNtNtCslUrB7RWuRKg_8airplay210connection7managerNtB6_17ConnectionManager6record00Ba_
FN:323,_RNCNvMNtNtCslUrB7RWuRKg_8airplay210connection7managerNtB4_17ConnectionManager10auth_setup0B8_
FN:2053,_RNCNvMNtNtCslUrB7RWuRKg_8airplay210connection7managerNtB4_17ConnectionManager10disconnect0B8_
FN:495,_RNCNvMNtNtCslUrB7RWuRKg_8airplay210connection7managerNtB4_17ConnectionManager10pair_setup0B8_
FN:663,_RNCNvMNtNtCslUrB7RWuRKg_8airplay210connection7managerNtB4_17ConnectionManager11pair_verify0B8_
FN:355,_RNCNvMNtNtCslUrB7RWuRKg_8airplay210connection7managerNtB4_17ConnectionManager12authenticate0B8_
FN:1886,_RNCNvMNtNtCslUrB7RWuRKg_8airplay210connection7managerNtB4_17ConnectionManager12send_command0B8_
FN:288,_RNCNvMNtNtCslUrB7RWuRKg_8airplay210connection7managerNtB4_17ConnectionManager12send_options0B8_
FN:720,_RNCNvMNtNtCslUrB7RWuRKg_8airplay210connection7managerNtB4_17ConnectionManager13setup_session0B8_
FN:128,_RNCNvMNtNtCslUrB7RWuRKg_8airplay210connection7managerNtB4_17ConnectionManager14encryption_key0B8_
FN:1745,_RNCNvMNtNtCslUrB7RWuRKg_8airplay210connection7managerNtB4_17ConnectionManager14send_rtp_audio0B8_
FN:1580,_RNCNvMNtNtCslUrB7RWuRKg_8airplay210connection7managerNtB4_17ConnectionManager14send_set_peers0B8_
FN:2129,_RNCNvMNtNtCslUrB7RWuRKg_8airplay210connection7managerNtB4_17ConnectionManager14should_use_ptp0B8_
FN:597,_RNCNvMNtNtCslUrB7RWuRKg_8airplay210connection7managerNtB4_17ConnectionManager14transient_pair0B8_
FN:399,_RNCNvMNtNtCslUrB7RWuRKg_8airplay210connection7managerNtB4_17ConnectionManager15try_stored_keys0B8_
FN:187,_RNCNvMNtNtCslUrB7RWuRKg_8airplay210connection7managerNtB4_17ConnectionManager16connect_internal0B8_
FN:2026,_RNCNvMNtNtCslUrB7RWuRKg_8airplay210connection7managerNtB4_17ConnectionManager16send_get_command0B8_
FN:2186,_RNCNvMNtNtCslUrB7RWuRKg_8airplay210connection7managerNtB4_17ConnectionManager16start_ptp_master0B8_
FN:1321,_RNCNvMNtNtCslUrB7RWuRKg_8airplay210connection7managerNtB4_17ConnectionManager17send_pairing_data0B8_
FN:1987,_RNCNvMNtNtCslUrB7RWuRKg_8airplay210connection7managerNtB4_17ConnectionManager17send_post_command0B8_
FN:1451,_RNCNvMNtNtCslUrB7RWuRKg_8airplay210connection7managerNtB4_17ConnectionManager17send_rtsp_request0B8_
FN:1812,_RNCNvMNtNtCslUrB7RWuRKg_8airplay210connection7managerNtB4_17ConnectionManager18send_time_announce0B8_
FN:420,_RNCNvMNtNtCslUrB7RWuRKg_8airplay210connection7managerNtB4_17ConnectionManager18try_configured_pin0B8_
FN:1777,_RNCNvMNtNtCslUrB7RWuRKg_8airplay210connection7managerNtB4_17ConnectionManager20get_ptp_network_time0B8_
FN:2152,_RNCNvMNtNtCslUrB7RWuRKg_8airplay210connection7managerNtB4_17ConnectionManager21bind_ephemeral_socket0B8_
FN:375,_RNCNvMNtNtCslUrB7RWuRKg_8airplay210connection7managerNtB4_17ConnectionManager21try_transient_pairing0B8_
FN:2067,_RNCNvMNtNtCslUrB7RWuRKg_8airplay210connection7managerNtB4_17ConnectionManager22disconnect_with_reason0B8_
FN:475,_RNCNvMNtNtCslUrB7RWuRKg_8airplay210connection7managerNtB4_17ConnectionManager22handle_pairing_success0B8_
FN:437,_RNCNvMNtNtCslUrB7RWuRKg_8airplay210connection7managerNtB4_17ConnectionManager23try_brute_force_pairing0B8_
FN:113,_RNCNvMNtNtCslUrB7RWuRKg_8airplay210connection7managerNtB4_17ConnectionManager5state0B8_
FN:118,_RNCNvMNtNtCslUrB7RWuRKg_8airplay210connection7managerNtB4_17ConnectionManager6device0B8_
FN:1629,_RNCNvMNtNtCslUrB7RWuRKg_8airplay210connection7managerNtB4_17ConnectionManager6record0B8_
FN:141,_RNCNvMNtNtCslUrB7RWuRKg_8airplay210connection7managerNtB4_17ConnectionManager7connect0B8_
FN:2302,_RNCNvMNtNtCslUrB7RWuRKg_8airplay210connection7managerNtB4_17ConnectionManager8stop_ptp0B8_
FN:2101,_RNCNvMNtNtCslUrB7RWuRKg_8airplay210connection7managerNtB4_17ConnectionManager9set_state0B8_
FN:323,_RNvMNtNtCslUrB7RWuRKg_8airplay210connection7managerNtB2_17ConnectionManager10auth_setup
FN:2053,_RNvMNtNtCslUrB7RWuRKg_8airplay210connection7managerNtB2_17ConnectionManager10disconnect
FN:491,_RNvMNtNtCslUrB7RWuRKg_8airplay210connection7managerNtB2_17ConnectionManager10pair_setup
FN:2118,_RNvMNtNtCslUrB7RWuRKg_8airplay210connection7managerNtB2_17ConnectionManager10send_event
FN:659,_RNvMNtNtCslUrB7RWuRKg_8airplay210connection7managerNtB2_17ConnectionManager11pair_verify
FN:355,_RNvMNtNtCslUrB7RWuRKg_8airplay210connection7managerNtB2_17ConnectionManager12authenticate
FN:1881,_RNvMNtNtCslUrB7RWuRKg_8airplay210connection7managerNtB2_17ConnectionManager12send_command
FN:288,_RNvMNtNtCslUrB7RWuRKg_8airplay210connection7managerNtB2_17ConnectionManager12send_options
FN:2322,_RNvMNtNtCslUrB7RWuRKg_8airplay210connection7managerNtB2_17ConnectionManager13is_ptp_active
FN:720,_RNvMNtNtCslUrB7RWuRKg_8airplay210connection7managerNtB2_17ConnectionManager13setup_session
FN:128,_RNvMNtNtCslUrB7RWuRKg_8airplay210connection7managerNtB2_17ConnectionManager14encryption_key
FN:269,_RNvMNtNtCslUrB7RWuRKg_8airplay210connection7managerNtB2_17ConnectionManager14remove_pairing
FN:1745,_RNvMNtNtCslUrB7RWuRKg_8airplay210connection7managerNtB2_17ConnectionManager14send_rtp_audio
FN:1580,_RNvMNtNtCslUrB7RWuRKg_8airplay210connection7managerNtB2_17ConnectionManager14send_set_peers
FN:2129,_RNvMNtNtCslUrB7RWuRKg_8airplay210connection7managerNtB2_17ConnectionManager14should_use_ptp
FN:597,_RNvMNtNtCslUrB7RWuRKg_8airplay210connection7managerNtB2_17ConnectionManager14transient_pair
FN:2317,_RNvMNtNtCslUrB7RWuRKg_8airplay210connection7managerNtB2_17ConnectionManager15device_clock_id
FN:399,_RNvMNtNtCslUrB7RWuRKg_8airplay210connection7managerNtB2_17ConnectionManager15try_stored_keys
FN:187,_RNvMNtNtCslUrB7RWuRKg_8airplay210connection7managerNtB2_17ConnectionManager16connect_internal
FN:2026,_RNvMNtNtCslUrB7RWuRKg_8airplay210connection7managerNtB2_17ConnectionManager16send_get_command
FN:2180,_RNvMNtNtCslUrB7RWuRKg_8airplay210connection7managerNtB2_17ConnectionManager16start_ptp_master
FN:1321,_RNvMNtNtCslUrB7RWuRKg_8airplay210connection7managerNtB2_17ConnectionManager17send_pairing_data
FN:1982,_RNvMNtNtCslUrB7RWuRKg_8airplay210connection7managerNtB2_17ConnectionManager17send_post_command
FN:1451,_RNvMNtNtCslUrB7RWuRKg_8airplay210connection7managerNtB2_17ConnectionManager17send_rtsp_request
FN:1808,_RNvMNtNtCslUrB7RWuRKg_8airplay210connection7managerNtB2_17ConnectionManager18send_time_announce
FN:416,_RNvMNtNtCslUrB7RWuRKg_8airplay210connection7managerNtB2_17ConnectionManager18try_configured_pin
FN:2327,_RNvMNtNtCslUrB7RWuRKg_8airplay210connection7managerNtB2_17ConnectionManager19is_ptp_synchronized
FN:1777,_RNvMNtNtCslUrB7RWuRKg_8airplay210connection7managerNtB2_17ConnectionManager20get_ptp_network_time
FN:107,_RNvMNtNtCslUrB7RWuRKg_8airplay210connection7managerNtB2_17ConnectionManager20with_pairing_storage
FN:2152,_RNvMNtNtCslUrB7RWuRKg_8airplay210connection7managerNtB2_17ConnectionManager21bind_ephemeral_socket
FN:2336,_RNvMNtNtCslUrB7RWuRKg_8airplay210connection7managerNtB2_17ConnectionManager21parse_transport_ports
FN:375,_RNvMNtNtCslUrB7RWuRKg_8airplay210connection7managerNtB2_17ConnectionManager21try_transient_pairing
FN:2064,_RNvMNtNtCslUrB7RWuRKg_8airplay210connection7managerNtB2_17ConnectionManager22disconnect_with_reason
FN:470,_RNvMNtNtCslUrB7RWuRKg_8airplay210connection7managerNtB2_17ConnectionManager22handle_pairing_success
FN:437,_RNvMNtNtCslUrB7RWuRKg_8airplay210connection7managerNtB2_17ConnectionManager23try_brute_force_pairing
FN:1654,_RNvMNtNtCslUrB7RWuRKg_8airplay210connection7managerNtB2_17ConnectionManager25send_set_rate_anchor_time
FN:80,_RNvMNtNtCslUrB7RWuRKg_8airplay210connection7managerNtB2_17ConnectionManager3new
FN:113,_RNvMNtNtCslUrB7RWuRKg_8airplay210connection7managerNtB2_17ConnectionManager5state
FN:123,_RNvMNtNtCslUrB7RWuRKg_8airplay210connection7managerNtB2_17ConnectionManager5stats
FN:118,_RNvMNtNtCslUrB7RWuRKg_8airplay210connection7managerNtB2_17ConnectionManager6device
FN:1629,_RNvMNtNtCslUrB7RWuRKg_8airplay210connection7managerNtB2_17ConnectionManager6record
FN:141,_RNvMNtNtCslUrB7RWuRKg_8airplay210connection7managerNtB2_17ConnectionManager7connect
FN:2302,_RNvMNtNtCslUrB7RWuRKg_8airplay210connection7managerNtB2_17ConnectionManager8stop_ptp
FN:2312,_RNvMNtNtCslUrB7RWuRKg_8airplay210connection7managerNtB2_17ConnectionManager9ptp_clock
FN:2101,_RNvMNtNtCslUrB7RWuRKg_8airplay210connection7managerNtB2_17ConnectionManager9set_state
FN:2124,_RNvMNtNtCslUrB7RWuRKg_8airplay210connection7managerNtB2_17ConnectionManager9subscribe
FN:271,_RNCNCNvMNtNtCs41oluKY1Omx_8airplay210connection7managerNtB6_17ConnectionManager14remove_pairing00Ba_
FN:269,_RNCNvMNtNtCs41oluKY1Omx_8airplay210connection7managerNtB4_17ConnectionManager14remove_pairing0B8_
FN:123,_RNCNvMNtNtCs41oluKY1Omx_8airplay210connection7managerNtB4_17ConnectionManager5stats0B8_
FN:269,_RNvMNtNtCs41oluKY1Omx_8airplay210connection7managerNtB2_17ConnectionManager14remove_pairing
FN:107,_RNvMNtNtCs41oluKY1Omx_8airplay210connection7managerNtB2_17ConnectionManager20with_pairing_storage
FN:123,_RNvMNtNtCs41oluKY1Omx_8airplay210connection7managerNtB2_17ConnectionManager5stats
FN:323,_RNvMNtNtCs41oluKY1Omx_8airplay210connection7managerNtB2_17ConnectionManager10auth_setup
FN:2053,_RNvMNtNtCs41oluKY1Omx_8airplay210connection7managerNtB2_17ConnectionManager10disconnect
FN:491,_RNvMNtNtCs41oluKY1Omx_8airplay210connection7managerNtB2_17ConnectionManager10pair_setup
FN:2118,_RNvMNtNtCs41oluKY1Omx_8airplay210connection7managerNtB2_17ConnectionManager10send_event
FN:659,_RNvMNtNtCs41oluKY1Omx_8airplay210connection7managerNtB2_17ConnectionManager11pair_verify
FN:355,_RNvMNtNtCs41oluKY1Omx_8airplay210connection7managerNtB2_17ConnectionManager12authenticate
FN:1881,_RNvMNtNtCs41oluKY1Omx_8airplay210connection7managerNtB2_17ConnectionManager12send_command
FN:288,_RNvMNtNtCs41oluKY1Omx_8airplay210connection7managerNtB2_17ConnectionManager12send_options
FN:2322,_RNvMNtNtCs41oluKY1Omx_8airplay210connection7managerNtB2_17ConnectionManager13is_ptp_active
FN:720,_RNvMNtNtCs41oluKY1Omx_8airplay210connection7managerNtB2_17ConnectionManager13setup_session
FN:128,_RNvMNtNtCs41oluKY1Omx_8airplay210connection7managerNtB2_17ConnectionManager14encryption_key
FN:1745,_RNvMNtNtCs41oluKY1Omx_8airplay210connection7managerNtB2_17ConnectionManager14send_rtp_audio
FN:1580,_RNvMNtNtCs41oluKY1Omx_8airplay210connection7managerNtB2_17ConnectionManager14send_set_peers
FN:2129,_RNvMNtNtCs41oluKY1Omx_8airplay210connection7managerNtB2_17ConnectionManager14should_use_ptp
FN:597,_RNvMNtNtCs41oluKY1Omx_8airplay210connection7managerNtB2_17ConnectionManager14transient_pair
FN:2317,_RNvMNtNtCs41oluKY1Omx_8airplay210connection7managerNtB2_17ConnectionManager15device_clock_id
FN:399,_RNvMNtNtCs41oluKY1Omx_8airplay210connection7managerNtB2_17ConnectionManager15try_stored_keys
FN:187,_RNvMNtNtCs41oluKY1Omx_8airplay210connection7managerNtB2_17ConnectionManager16connect_internal
FN:2026,_RNvMNtNtCs41oluKY1Omx_8airplay210connection7managerNtB2_17ConnectionManager16send_get_command
FN:2180,_RNvMNtNtCs41oluKY1Omx_8airplay210connection7managerNtB2_17ConnectionManager16start_ptp_master
FN:1321,_RNvMNtNtCs41oluKY1Omx_8airplay210connection7managerNtB2_17ConnectionManager17send_pairing_data
FN:1982,_RNvMNtNtCs41oluKY1Omx_8airplay210connection7managerNtB2_17ConnectionManager17send_post_command
FN:1451,_RNvMNtNtCs41oluKY1Omx_8airplay210connection7managerNtB2_17ConnectionManager17send_rtsp_request
FN:1808,_RNvMNtNtCs41oluKY1Omx_8airplay210connection7managerNtB2_17ConnectionManager18send_time_announce
FN:416,_RNvMNtNtCs41oluKY1Omx_8airplay210connection7managerNtB2_17ConnectionManager18try_configured_pin
FN:2327,_RNvMNtNtCs41oluKY1Omx_8airplay210connection7managerNtB2_17ConnectionManager19is_ptp_synchronized
FN:1777,_RNvMNtNtCs41oluKY1Omx_8airplay210connection7managerNtB2_17ConnectionManager20get_ptp_network_time
FN:2152,_RNvMNtNtCs41oluKY1Omx_8airplay210connection7managerNtB2_17ConnectionManager21bind_ephemeral_socket
FN:2336,_RNvMNtNtCs41oluKY1Omx_8airplay210connection7managerNtB2_17ConnectionManager21parse_transport_ports
FN:375,_RNvMNtNtCs41oluKY1Omx_8airplay210connection7managerNtB2_17ConnectionManager21try_transient_pairing
FN:2064,_RNvMNtNtCs41oluKY1Omx_8airplay210connection7managerNtB2_17ConnectionManager22disconnect_with_reason
FN:470,_RNvMNtNtCs41oluKY1Omx_8airplay210connection7managerNtB2_17ConnectionManager22handle_pairing_success
FN:437,_RNvMNtNtCs41oluKY1Omx_8airplay210connection7managerNtB2_17ConnectionManager23try_brute_force_pairing
FN:1654,_RNvMNtNtCs41oluKY1Omx_8airplay210connection7managerNtB2_17ConnectionManager25send_set_rate_anchor_time
FN:80,_RNvMNtNtCs41oluKY1Omx_8airplay210connection7managerNtB2_17ConnectionManager3new
FN:113,_RNvMNtNtCs41oluKY1Omx_8airplay210connection7managerNtB2_17ConnectionManager5state
FN:118,_RNvMNtNtCs41oluKY1Omx_8airplay210connection7managerNtB2_17ConnectionManager6device
FN:1629,_RNvMNtNtCs41oluKY1Omx_8airplay210connection7managerNtB2_17ConnectionManager6record
FN:141,_RNvMNtNtCs41oluKY1Omx_8airplay210connection7managerNtB2_17ConnectionManager7connect
FN:2302,_RNvMNtNtCs41oluKY1Omx_8airplay210connection7managerNtB2_17ConnectionManager8stop_ptp
FN:2312,_RNvMNtNtCs41oluKY1Omx_8airplay210connection7managerNtB2_17ConnectionManager9ptp_clock
FN:2101,_RNvMNtNtCs41oluKY1Omx_8airplay210connection7managerNtB2_17ConnectionManager9set_state
FN:2124,_RNvMNtNtCs41oluKY1Omx_8airplay210connection7managerNtB2_17ConnectionManager9subscribe
FN:1178,_RNCNCNCNvMNtNtCs41oluKY1Omx_8airplay210connection7managerNtB8_17ConnectionManager13setup_session0se_00Bc_
FN:1191,_RNCNCNCNvMNtNtCs41oluKY1Omx_8airplay210connection7managerNtB8_17ConnectionManager13setup_session0se_0s_0Bc_
FN:335,_RNCNCNvMNtNtCs41oluKY1Omx_8airplay210connection7managerNtB6_17ConnectionManager10auth_setup00Ba_
FN:346,_RNCNCNvMNtNtCs41oluKY1Omx_8airplay210connection7managerNtB6_17ConnectionManager10auth_setup0s_0Ba_
FN:511,_RNCNCNvMNtNtCs41oluKY1Omx_8airplay210connection7managerNtB6_17ConnectionManager10pair_setup00Ba_
FN:540,_RNCNCNvMNtNtCs41oluKY1Omx_8airplay210connection7managerNtB6_17ConnectionManager10pair_setup0s0_0Ba_
FN:563,_RNCNCNvMNtNtCs41oluKY1Omx_8airplay210connection7managerNtB6_17ConnectionManager10pair_setup0s1_0Ba_
FN:522,_RNCNCNvMNtNtCs41oluKY1Omx_8airplay210connection7managerNtB6_17ConnectionManager10pair_setup0s_0Ba_
FN:664,_RNCNCNvMNtNtCs41oluKY1Omx_8airplay210connection7managerNtB6_17ConnectionManager11pair_verify00Ba_
FN:685,_RNCNCNvMNtNtCs41oluKY1Omx_8airplay210connection7managerNtB6_17ConnectionManager11pair_verify0s0_0Ba_
FN:702,_RNCNCNvMNtNtCs41oluKY1Omx_8airplay210connection7managerNtB6_17ConnectionManager11pair_verify0s1_0Ba_
FN:675,_RNCNCNvMNtNtCs41oluKY1Omx_8airplay210connection7managerNtB6_17ConnectionManager11pair_verify0s_0Ba_
FN:1892,_RNCNCNvMNtNtCs41oluKY1Omx_8airplay210connection7managerNtB6_17ConnectionManager12send_command00Ba_
FN:1906,_RNCNCNvMNtNtCs41oluKY1Omx_8airplay210connection7managerNtB6_17ConnectionManager12send_command0s0_0Ba_
FN:1918,_RNCNCNvMNtNtCs41oluKY1Omx_8airplay210connection7managerNtB6_17ConnectionManager12send_command0s1_0Ba_
FN:1965,_RNCNCNvMNtNtCs41oluKY1Omx_8airplay210connection7managerNtB6_17ConnectionManager12send_command0s2_0Ba_
FN:1900,_RNCNCNvMNtNtCs41oluKY1Omx_8airplay210connection7managerNtB6_17ConnectionManager12send_command0s_0Ba_
FN:294,_RNCNCNvMNtNtCs41oluKY1Omx_8airplay210connection7managerNtB6_17ConnectionManager12send_options00Ba_
FN:314,_RNCNCNvMNtNtCs41oluKY1Omx_8airplay210connection7managerNtB6_17ConnectionManager12send_options0s0_0Ba_
FN:307,_RNCNCNvMNtNtCs41oluKY1Omx_8airplay210connection7managerNtB6_17ConnectionManager12send_options0s_0Ba_
FN:750,_RNCNCNvMNtNtCs41oluKY1Omx_8airplay210connection7managerNtB6_17ConnectionManager13setup_session00Ba_
FN:807,_RNCNCNvMNtNtCs41oluKY1Omx_8airplay210connection7managerNtB6_17ConnectionManager13setup_session0s0_0Ba_
FN:812,_RNCNCNvMNtNtCs41oluKY1Omx_8airplay210connection7managerNtB6_17ConnectionManager13setup_session0s1_0Ba_
FN:832,_RNCNCNvMNtNtCs41oluKY1Omx_8airplay210connection7managerNtB6_17ConnectionManager13setup_session0s2_0Ba_
FN:869,_RNCNCNvMNtNtCs41oluKY1Omx_8airplay210connection7managerNtB6_17ConnectionManager13setup_session0s3_0Ba_
FN:874,_RNCNCNvMNtNtCs41oluKY1Omx_8airplay210connection7managerNtB6_17ConnectionManager13setup_session0s4_0Ba_
FN:884,_RNCNCNvMNtNtCs41oluKY1Omx_8airplay210connection7managerNtB6_17ConnectionManager13setup_session0s5_0Ba_
FN:914,_RNCNCNvMNtNtCs41oluKY1Omx_8airplay210connection7managerNtB6_17ConnectionManager13setup_session0s6_0Ba_
FN:944,_RNCNCNvMNtNtCs41oluKY1Omx_8airplay210connection7managerNtB6_17ConnectionManager13setup_session0s7_0Ba_
FN:958,_RNCNCNvMNtNtCs41oluKY1Omx_8airplay210connection7managerNtB6_17ConnectionManager13setup_session0s8_0Ba_
FN:1069,_RNCNCNvMNtNtCs41oluKY1Omx_8airplay210connection7managerNtB6_17ConnectionManager13setup_session0s9_0Ba_
FN:801,_RNCNCNvMNtNtCs41oluKY1Omx_8airplay210connection7managerNtB6_17ConnectionManager13setup_session0s_0Ba_
FN:1111,_RNCNCNvMNtNtCs41oluKY1Omx_8airplay210connection7managerNtB6_17ConnectionManager13setup_session0sa_0Ba_
FN:1143,_RNCNCNvMNtNtCs41oluKY1Omx_8airplay210connection7managerNtB6_17ConnectionManager13setup_session0sb_0Ba_
FN:1157,_RNCNCNvMNtNtCs41oluKY1Omx_8airplay210connection7managerNtB6_17ConnectionManager13setup_session0sc_0Ba_
FN:1174,_RNCNCNvMNtNtCs41oluKY1Omx_8airplay210connection7managerNtB6_17ConnectionManager13setup_session0sd_0Ba_
FN:1174,_RNCNCNvMNtNtCs41oluKY1Omx_8airplay210connection7managerNtB6_17ConnectionManager13setup_session0se_0Ba_
FN:1258,_RNCNCNvMNtNtCs41oluKY1Omx_8airplay210connection7managerNtB6_17ConnectionManager13setup_session0sf_0Ba_
FN:1753,_RNCNCNvMNtNtCs41oluKY1Omx_8airplay210connection7managerNtB6_17ConnectionManager14send_rtp_audio00Ba_
FN:1587,_RNCNCNvMNtNtCs41oluKY1Omx_8airplay210connection7managerNtB6_17ConnectionManager14send_set_peers00Ba_
FN:1602,_RNCNCNvMNtNtCs41oluKY1Omx_8airplay210connection7managerNtB6_17ConnectionManager14send_set_peers0s0_0Ba_
FN:1613,_RNCNCNvMNtNtCs41oluKY1Omx_8airplay210connection7managerNtB6_17ConnectionManager14send_set_peers0s1_0Ba_
FN:1592,_RNCNCNvMNtNtCs41oluKY1Omx_8airplay210connection7managerNtB6_17ConnectionManager14send_set_peers0s_0Ba_
FN:2138,_RNCNCNvMNtNtCs41oluKY1Omx_8airplay210connection7managerNtB6_17ConnectionManager14should_use_ptp00Ba_
FN:607,_RNCNCNvMNtNtCs41oluKY1Omx_8airplay210connection7managerNtB6_17ConnectionManager14transient_pair00Ba_
FN:638,_RNCNCNvMNtNtCs41oluKY1Omx_8airplay210connection7managerNtB6_17ConnectionManager14transient_pair0s0_0Ba_
FN:619,_RNCNCNvMNtNtCs41oluKY1Omx_8airplay210connection7managerNtB6_17ConnectionManager14transient_pair0s_0Ba_
FN:196,_RNCNCNvMNtNtCs41oluKY1Omx_8airplay210connection7managerNtB6_17ConnectionManager16connect_internal00Ba_
FN:223,_RNCNCNvMNtNtCs41oluKY1Omx_8airplay210connection7managerNtB6_17ConnectionManager16connect_internal0s0_0Ba_
FN:222,_RNCNCNvMNtNtCs41oluKY1Omx_8airplay210connection7managerNtB6_17ConnectionManager16connect_internal0s_0Ba_
FN:2032,_RNCNCNvMNtNtCs41oluKY1Omx_8airplay210connection7managerNtB6_17ConnectionManager16send_get_command00Ba_
FN:2259,_RNCNCNvMNtNtCs41oluKY1Omx_8airplay210connection7managerNtB6_17ConnectionManager16start_ptp_master00Ba_
FN:1380,_RNCNCNvMNtNtCs41oluKY1Omx_8airplay210connection7managerNtB6_17ConnectionManager17send_pairing_data00Ba_
FN:1420,_RNCNCNvMNtNtCs41oluKY1Omx_8airplay210connection7managerNtB6_17ConnectionManager17send_pairing_data0s_0Ba_
FN:1993,_RNCNCNvMNtNtCs41oluKY1Omx_8airplay210connection7managerNtB6_17ConnectionManager17send_post_command00Ba_
FN:2012,_RNCNCNvMNtNtCs41oluKY1Omx_8airplay210connection7managerNtB6_17ConnectionManager17send_post_command0s0_0Ba_
FN:1999,_RNCNCNvMNtNtCs41oluKY1Omx_8airplay210connection7managerNtB6_17ConnectionManager17send_post_command0s_0Ba_
FN:1459,_RNCNCNvMNtNtCs41oluKY1Omx_8airplay210connection7managerNtB6_17ConnectionManager17send_rtsp_request00Ba_
FN:1548,_RNCNCNvMNtNtCs41oluKY1Omx_8airplay210connection7managerNtB6_17ConnectionManager17send_rtsp_request0s0_0Ba_
FN:1564,_RNCNCNvMNtNtCs41oluKY1Omx_8airplay210connection7managerNtB6_17ConnectionManager17send_rtsp_request0s1_0Ba_
FN:1502,_RNCNCNvMNtNtCs41oluKY1Omx_8airplay210connection7managerNtB6_17ConnectionManager17send_rtsp_request0s_0Ba_
FN:1826,_RNCNCNvMNtNtCs41oluKY1Omx_8airplay210connection7managerNtB6_17ConnectionManager18send_time_announce00Ba_
FN:1868,_RNCNCNvMNtNtCs41oluKY1Omx_8airplay210connection7managerNtB6_17ConnectionManager18send_time_announce0s_0Ba_
FN:1798,_RNCNCNvMNtNtCs41oluKY1Omx_8airplay210connection7managerNtB6_17ConnectionManager20get_ptp_network_time00Ba_
FN:1719,_RNCNCNvMNtNtCs41oluKY1Omx_8airplay210connection7managerNtB6_17ConnectionManager25send_set_rate_anchor_time00Ba_
FN:1636,_RNCNCNvMNtNtCs41oluKY1Omx_8airplay210connection7managerNtB6_17ConnectionManager6record00Ba_
FN:323,_RNCNvMNtNtCs41oluKY1Omx_8airplay210connection7managerNtB4_17ConnectionManager10auth_setup0B8_
FN:2053,_RNCNvMNtNtCs41oluKY1Omx_8airplay210connection7managerNtB4_17ConnectionManager10disconnect0B8_
FN:495,_RNCNvMNtNtCs41oluKY1Omx_8airplay210connection7managerNtB4_17ConnectionManager10pair_setup0B8_
FN:663,_RNCNvMNtNtCs41oluKY1Omx_8airplay210connection7managerNtB4_17ConnectionManager11pair_verify0B8_
FN:355,_RNCNvMNtNtCs41oluKY1Omx_8airplay210connection7managerNtB4_17ConnectionManager12authenticate0B8_
FN:1886,_RNCNvMNtNtCs41oluKY1Omx_8airplay210connection7managerNtB4_17ConnectionManager12send_command0B8_
FN:288,_RNCNvMNtNtCs41oluKY1Omx_8airplay210connection7managerNtB4_17ConnectionManager12send_options0B8_
FN:2322,_RNCNvMNtNtCs41oluKY1Omx_8airplay210connection7managerNtB4_17ConnectionManager13is_ptp_active0B8_
FN:720,_RNCNvMNtNtCs41oluKY1Omx_8airplay210connection7managerNtB4_17ConnectionManager13setup_session0B8_
FN:128,_RNCNvMNtNtCs41oluKY1Omx_8airplay210connection7managerNtB4_17ConnectionManager14encryption_key0B8_
FN:1745,_RNCNvMNtNtCs41oluKY1Omx_8airplay210connection7managerNtB4_17ConnectionManager14send_rtp_audio0B8_
FN:1580,_RNCNvMNtNtCs41oluKY1Omx_8airplay210connection7managerNtB4_17ConnectionManager14send_set_peers0B8_
FN:2129,_RNCNvMNtNtCs41oluKY1Omx_8airplay210connection7managerNtB4_17ConnectionManager14should_use_ptp0B8_
FN:597,_RNCNvMNtNtCs41oluKY1Omx_8airplay210connection7managerNtB4_17ConnectionManager14transient_pair0B8_
FN:2317,_RNCNvMNtNtCs41oluKY1Omx_8airplay210connection7managerNtB4_17ConnectionManager15device_clock_id0B8_
FN:399,_RNCNvMNtNtCs41oluKY1Omx_8airplay210connection7managerNtB4_17ConnectionManager15try_stored_keys0B8_
FN:187,_RNCNvMNtNtCs41oluKY1Omx_8airplay210connection7managerNtB4_17ConnectionManager16connect_internal0B8_
FN:2026,_RNCNvMNtNtCs41oluKY1Omx_8airplay210connection7managerNtB4_17ConnectionManager16send_get_command0B8_
FN:2186,_RNCNvMNtNtCs41oluKY1Omx_8airplay210connection7managerNtB4_17ConnectionManager16start_ptp_master0B8_
FN:1321,_RNCNvMNtNtCs41oluKY1Omx_8airplay210connection7managerNtB4_17ConnectionManager17send_pairing_data0B8_
FN:1987,_RNCNvMNtNtCs41oluKY1Omx_8airplay210connection7managerNtB4_17ConnectionManager17send_post_command0B8_
FN:1451,_RNCNvMNtNtCs41oluKY1Omx_8airplay210connection7managerNtB4_17ConnectionManager17send_rtsp_request0B8_
FN:1812,_RNCNvMNtNtCs41oluKY1Omx_8airplay210connection7managerNtB4_17ConnectionManager18send_time_announce0B8_
FN:420,_RNCNvMNtNtCs41oluKY1Omx_8airplay210connection7managerNtB4_17ConnectionManager18try_configured_pin0B8_
FN:2327,_RNCNvMNtNtCs41oluKY1Omx_8airplay210connection7managerNtB4_17ConnectionManager19is_ptp_synchronized0B8_
FN:1777,_RNCNvMNtNtCs41oluKY1Omx_8airplay210connection7managerNtB4_17ConnectionManager20get_ptp_network_time0B8_
FN:2152,_RNCNvMNtNtCs41oluKY1Omx_8airplay210connection7managerNtB4_17ConnectionManager21bind_ephemeral_socket0B8_
FN:375,_RNCNvMNtNtCs41oluKY1Omx_8airplay210connection7managerNtB4_17ConnectionManager21try_transient_pairing0B8_
FN:2067,_RNCNvMNtNtCs41oluKY1Omx_8airplay210connection7managerNtB4_17ConnectionManager22disconnect_with_reason0B8_
FN:475,_RNCNvMNtNtCs41oluKY1Omx_8airplay210connection7managerNtB4_17ConnectionManager22handle_pairing_success0B8_
FN:437,_RNCNvMNtNtCs41oluKY1Omx_8airplay210connection7managerNtB4_17ConnectionManager23try_brute_force_pairing0B8_
FN:1654,_RNCNvMNtNtCs41oluKY1Omx_8airplay210connection7managerNtB4_17ConnectionManager25send_set_rate_anchor_time0B8_
FN:113,_RNCNvMNtNtCs41oluKY1Omx_8airplay210connection7managerNtB4_17ConnectionManager5state0B8_
FN:118,_RNCNvMNtNtCs41oluKY1Omx_8airplay210connection7managerNtB4_17ConnectionManager6device0B8_
FN:1629,_RNCNvMNtNtCs41oluKY1Omx_8airplay210connection7managerNtB4_17ConnectionManager6record0B8_
FN:141,_RNCNvMNtNtCs41oluKY1Omx_8airplay210connection7managerNtB4_17ConnectionManager7connect0B8_
FN:2302,_RNCNvMNtNtCs41oluKY1Omx_8airplay210connection7managerNtB4_17ConnectionManager8stop_ptp0B8_
FN:2312,_RNCNvMNtNtCs41oluKY1Omx_8airplay210connection7managerNtB4_17ConnectionManager9ptp_clock0B8_
FN:2101,_RNCNvMNtNtCs41oluKY1Omx_8airplay210connection7managerNtB4_17ConnectionManager9set_state0B8_
FNDA:0,_RNCNCNvMNtNtCslUrB7RWuRKg_8airplay210connection7managerNtB6_17ConnectionManager14remove_pairing00Ba_
FNDA:0,_RNCNCNvMNtNtCslUrB7RWuRKg_8airplay210connection7managerNtB6_17ConnectionManager25send_set_rate_anchor_time00Ba_
FNDA:0,_RNCNvMNtNtCslUrB7RWuRKg_8airplay210connection7managerNtB4_17ConnectionManager13is_ptp_active0B8_
FNDA:0,_RNCNvMNtNtCslUrB7RWuRKg_8airplay210connection7managerNtB4_17ConnectionManager14remove_pairing0B8_
FNDA:0,_RNCNvMNtNtCslUrB7RWuRKg_8airplay210connection7managerNtB4_17ConnectionManager15device_clock_id0B8_
FNDA:0,_RNCNvMNtNtCslUrB7RWuRKg_8airplay210connection7managerNtB4_17ConnectionManager19is_ptp_synchronized0B8_
FNDA:0,_RNCNvMNtNtCslUrB7RWuRKg_8airplay210connection7managerNtB4_17ConnectionManager25send_set_rate_anchor_time0B8_
FNDA:0,_RNCNvMNtNtCslUrB7RWuRKg_8airplay210connection7managerNtB4_17ConnectionManager5stats0B8_
FNDA:0,_RNCNvMNtNtCslUrB7RWuRKg_8airplay210connection7managerNtB4_17ConnectionManager9ptp_clock0B8_
FNDA:0,_RNCNCNCNvMNtNtCslUrB7RWuRKg_8airplay210connection7managerNtB8_17ConnectionManager13setup_session0se_00Bc_
FNDA:0,_RNCNCNCNvMNtNtCslUrB7RWuRKg_8airplay210connection7managerNtB8_17ConnectionManager13setup_session0se_0s_0Bc_
FNDA:0,_RNCNCNvMNtNtCslUrB7RWuRKg_8airplay210connection7managerNtB6_17ConnectionManager10auth_setup00Ba_
FNDA:5,_RNCNCNvMNtNtCslUrB7RWuRKg_8airplay210connection7managerNtB6_17ConnectionManager10auth_setup0s_0Ba_
FNDA:0,_RNCNCNvMNtNtCslUrB7RWuRKg_8airplay210connection7managerNtB6_17ConnectionManager10pair_setup00Ba_
FNDA:0,_RNCNCNvMNtNtCslUrB7RWuRKg_8airplay210connection7managerNtB6_17ConnectionManager10pair_setup0s0_0Ba_
FNDA:0,_RNCNCNvMNtNtCslUrB7RWuRKg_8airplay210connection7managerNtB6_17ConnectionManager10pair_setup0s1_0Ba_
FNDA:0,_RNCNCNvMNtNtCslUrB7RWuRKg_8airplay210connection7managerNtB6_17ConnectionManager10pair_setup0s_0Ba_
FNDA:0,_RNCNCNvMNtNtCslUrB7RWuRKg_8airplay210connection7managerNtB6_17ConnectionManager11pair_verify00Ba_
FNDA:0,_RNCNCNvMNtNtCslUrB7RWuRKg_8airplay210connection7managerNtB6_17ConnectionManager11pair_verify0s0_0Ba_
FNDA:0,_RNCNCNvMNtNtCslUrB7RWuRKg_8airplay210connection7managerNtB6_17ConnectionManager11pair_verify0s1_0Ba_
FNDA:0,_RNCNCNvMNtNtCslUrB7RWuRKg_8airplay210connection7managerNtB6_17ConnectionManager11pair_verify0s_0Ba_
FNDA:0,_RNCNCNvMNtNtCslUrB7RWuRKg_8airplay210connection7managerNtB6_17ConnectionManager12send_command00Ba_
FNDA:0,_RNCNCNvMNtNtCslUrB7RWuRKg_8airplay210connection7managerNtB6_17ConnectionManager12send_command0s0_0Ba_
FNDA:0,_RNCNCNvMNtNtCslUrB7RWuRKg_8airplay210connection7managerNtB6_17ConnectionManager12send_command0s1_0Ba_
FNDA:0,_RNCNCNvMNtNtCslUrB7RWuRKg_8airplay210connection7managerNtB6_17ConnectionManager12send_command0s2_0Ba_
FNDA:2,_RNCNCNvMNtNtCslUrB7RWuRKg_8airplay210connection7managerNtB6_17ConnectionManager12send_command0s_0Ba_
FNDA:0,_RNCNCNvMNtNtCslUrB7RWuRKg_8airplay210connection7managerNtB6_17ConnectionManager12send_options00Ba_
FNDA:0,_RNCNCNvMNtNtCslUrB7RWuRKg_8airplay210connection7managerNtB6_17ConnectionManager12send_options0s0_0Ba_
FNDA:0,_RNCNCNvMNtNtCslUrB7RWuRKg_8airplay210connection7managerNtB6_17ConnectionManager12send_options0s_0Ba_
FNDA:0,_RNCNCNvMNtNtCslUrB7RWuRKg_8airplay210connection7managerNtB6_17ConnectionManager13setup_session00Ba_
FNDA:0,_RNCNCNvMNtNtCslUrB7RWuRKg_8airplay210connection7managerNtB6_17ConnectionManager13setup_session0s0_0Ba_
FNDA:0,_RNCNCNvMNtNtCslUrB7RWuRKg_8airplay210connection7managerNtB6_17ConnectionManager13setup_session0s1_0Ba_
FNDA:0,_RNCNCNvMNtNtCslUrB7RWuRKg_8airplay210connection7managerNtB6_17ConnectionManager13setup_session0s2_0Ba_
FNDA:3,_RNCNCNvMNtNtCslUrB7RWuRKg_8airplay210connection7managerNtB6_17ConnectionManager13setup_session0s3_0Ba_
FNDA:0,_RNCNCNvMNtNtCslUrB7RWuRKg_8airplay210connection7managerNtB6_17ConnectionManager13setup_session0s4_0Ba_
FNDA:3,_RNCNCNvMNtNtCslUrB7RWuRKg_8airplay210connection7managerNtB6_17ConnectionManager13setup_session0s5_0Ba_
FNDA:0,_RNCNCNvMNtNtCslUrB7RWuRKg_8airplay210connection7managerNtB6_17ConnectionManager13setup_session0s6_0Ba_
FNDA:0,_RNCNCNvMNtNtCslUrB7RWuRKg_8airplay210connection7managerNtB6_17ConnectionManager13setup_session0s7_0Ba_
FNDA:0,_RNCNCNvMNtNtCslUrB7RWuRKg_8airplay210connection7managerNtB6_17ConnectionManager13setup_session0s8_0Ba_
FNDA:0,_RNCNCNvMNtNtCslUrB7RWuRKg_8airplay210connection7managerNtB6_17ConnectionManager13setup_session0s9_0Ba_
FNDA:0,_RNCNCNvMNtNtCslUrB7RWuRKg_8airplay210connection7managerNtB6_17ConnectionManager13setup_session0s_0Ba_
FNDA:0,_RNCNCNvMNtNtCslUrB7RWuRKg_8airplay210connection7managerNtB6_17ConnectionManager13setup_session0sa_0Ba_
FNDA:0,_RNCNCNvMNtNtCslUrB7RWuRKg_8airplay210connection7managerNtB6_17ConnectionManager13setup_session0sb_0Ba_
FNDA:0,_RNCNCNvMNtNtCslUrB7RWuRKg_8airplay210connection7managerNtB6_17ConnectionManager13setup_session0sc_0Ba_
FNDA:0,_RNCNCNvMNtNtCslUrB7RWuRKg_8airplay210connection7managerNtB6_17ConnectionManager13setup_session0sd_0Ba_
FNDA:0,_RNCNCNvMNtNtCslUrB7RWuRKg_8airplay210connection7managerNtB6_17ConnectionManager13setup_session0se_0Ba_
FNDA:0,_RNCNCNvMNtNtCslUrB7RWuRKg_8airplay210connection7managerNtB6_17ConnectionManager13setup_session0sf_0Ba_
FNDA:0,_RNCNCNvMNtNtCslUrB7RWuRKg_8airplay210connection7managerNtB6_17ConnectionManager14send_rtp_audio00Ba_
FNDA:2,_RNCNCNvMNtNtCslUrB7RWuRKg_8airplay210connection7managerNtB6_17ConnectionManager14send_set_peers00Ba_
FNDA:0,_RNCNCNvMNtNtCslUrB7RWuRKg_8airplay210connection7managerNtB6_17ConnectionManager14send_set_peers0s0_0Ba_
FNDA:0,_RNCNCNvMNtNtCslUrB7RWuRKg_8airplay210connection7managerNtB6_17ConnectionManager14send_set_peers0s1_0Ba_
FNDA:0,_RNCNCNvMNtNtCslUrB7RWuRKg_8airplay210connection7managerNtB6_17ConnectionManager14send_set_peers0s_0Ba_
FNDA:5,_RNCNCNvMNtNtCslUrB7RWuRKg_8airplay210connection7managerNtB6_17ConnectionManager14should_use_ptp00Ba_
FNDA:0,_RNCNCNvMNtNtCslUrB7RWuRKg_8airplay210connection7managerNtB6_17ConnectionManager14transient_pair00Ba_
FNDA:0,_RNCNCNvMNtNtCslUrB7RWuRKg_8airplay210connection7managerNtB6_17ConnectionManager14transient_pair0s0_0Ba_
FNDA:0,_RNCNCNvMNtNtCslUrB7RWuRKg_8airplay210connection7managerNtB6_17ConnectionManager14transient_pair0s_0Ba_
FNDA:0,_RNCNCNvMNtNtCslUrB7RWuRKg_8airplay210connection7managerNtB6_17ConnectionManager16connect_internal00Ba_
FNDA:0,_RNCNCNvMNtNtCslUrB7RWuRKg_8airplay210connection7managerNtB6_17ConnectionManager16connect_internal0s0_0Ba_
FNDA:0,_RNCNCNvMNtNtCslUrB7RWuRKg_8airplay210connection7managerNtB6_17ConnectionManager16connect_internal0s_0Ba_
FNDA:0,_RNCNCNvMNtNtCslUrB7RWuRKg_8airplay210connection7managerNtB6_17ConnectionManager16send_get_command00Ba_
FNDA:2,_RNCNCNvMNtNtCslUrB7RWuRKg_8airplay210connection7managerNtB6_17ConnectionManager16start_ptp_master00Ba_
FNDA:0,_RNCNCNvMNtNtCslUrB7RWuRKg_8airplay210connection7managerNtB6_17ConnectionManager17send_pairing_data00Ba_
FNDA:0,_RNCNCNvMNtNtCslUrB7RWuRKg_8airplay210connection7managerNtB6_17ConnectionManager17send_pairing_data0s_0Ba_
FNDA:0,_RNCNCNvMNtNtCslUrB7RWuRKg_8airplay210connection7managerNtB6_17ConnectionManager17send_post_command00Ba_
FNDA:0,_RNCNCNvMNtNtCslUrB7RWuRKg_8airplay210connection7managerNtB6_17ConnectionManager17send_post_command0s0_0Ba_
FNDA:6,_RNCNCNvMNtNtCslUrB7RWuRKg_8airplay210connection7managerNtB6_17ConnectionManager17send_post_command0s_0Ba_
FNDA:0,_RNCNCNvMNtNtCslUrB7RWuRKg_8airplay210connection7managerNtB6_17ConnectionManager17send_rtsp_request00Ba_
FNDA:0,_RNCNCNvMNtNtCslUrB7RWuRKg_8airplay210connection7managerNtB6_17ConnectionManager17send_rtsp_request0s0_0Ba_
FNDA:0,_RNCNCNvMNtNtCslUrB7RWuRKg_8airplay210connection7managerNtB6_17ConnectionManager17send_rtsp_request0s1_0Ba_
FNDA:0,_RNCNCNvMNtNtCslUrB7RWuRKg_8airplay210connection7managerNtB6_17ConnectionManager17send_rtsp_request0s_0Ba_
FNDA:0,_RNCNCNvMNtNtCslUrB7RWuRKg_8airplay210connection7managerNtB6_17ConnectionManager18send_time_announce00Ba_
FNDA:0,_RNCNCNvMNtNtCslUrB7RWuRKg_8airplay210connection7managerNtB6_17ConnectionManager18send_time_announce0s_0Ba_
FNDA:0,_RNCNCNvMNtNtCslUrB7RWuRKg_8airplay210connection7managerNtB6_17ConnectionManager20get_ptp_network_time00Ba_
FNDA:0,_RNCNCNvMNtNtCslUrB7RWuRKg_8airplay210connection7managerNtB6_17ConnectionManager6record00Ba_
FNDA:5,_RNCNvMNtNtCslUrB7RWuRKg_8airplay210connection7managerNtB4_17ConnectionManager10auth_setup0B8_
FNDA:5,_RNCNvMNtNtCslUrB7RWuRKg_8airplay210connection7managerNtB4_17ConnectionManager10disconnect0B8_
FNDA:0,_RNCNvMNtNtCslUrB7RWuRKg_8airplay210connection7managerNtB4_17ConnectionManager10pair_setup0B8_
FNDA:0,_RNCNvMNtNtCslUrB7RWuRKg_8airplay210connection7managerNtB4_17ConnectionManager11pair_verify0B8_
FNDA:5,_RNCNvMNtNtCslUrB7RWuRKg_8airplay210connection7managerNtB4_17ConnectionManager12authenticate0B8_
FNDA:11,_RNCNvMNtNtCslUrB7RWuRKg_8airplay210connection7managerNtB4_17ConnectionManager12send_command0B8_
FNDA:6,_RNCNvMNtNtCslUrB7RWuRKg_8airplay210connection7managerNtB4_17ConnectionManager12send_options0B8_
FNDA:5,_RNCNvMNtNtCslUrB7RWuRKg_8airplay210connection7managerNtB4_17ConnectionManager13setup_session0B8_
FNDA:5,_RNCNvMNtNtCslUrB7RWuRKg_8airplay210connection7managerNtB4_17ConnectionManager14encryption_key0B8_
FNDA:0,_RNCNvMNtNtCslUrB7RWuRKg_8airplay210connection7managerNtB4_17ConnectionManager14send_rtp_audio0B8_
FNDA:2,_RNCNvMNtNtCslUrB7RWuRKg_8airplay210connection7managerNtB4_17ConnectionManager14send_set_peers0B8_
FNDA:5,_RNCNvMNtNtCslUrB7RWuRKg_8airplay210connection7managerNtB4_17ConnectionManager14should_use_ptp0B8_
FNDA:5,_RNCNvMNtNtCslUrB7RWuRKg_8airplay210connection7managerNtB4_17ConnectionManager14transient_pair0B8_
FNDA:5,_RNCNvMNtNtCslUrB7RWuRKg_8airplay210connection7managerNtB4_17ConnectionManager15try_stored_keys0B8_
FNDA:6,_RNCNvMNtNtCslUrB7RWuRKg_8airplay210connection7managerNtB4_17ConnectionManager16connect_internal0B8_
FNDA:14,_RNCNvMNtNtCslUrB7RWuRKg_8airplay210connection7managerNtB4_17ConnectionManager16send_get_command0B8_
FNDA:2,_RNCNvMNtNtCslUrB7RWuRKg_8airplay210connection7managerNtB4_17ConnectionManager16start_ptp_master0B8_
FNDA:10,_RNCNvMNtNtCslUrB7RWuRKg_8airplay210connection7managerNtB4_17ConnectionManager17send_pairing_data0B8_
FNDA:11,_RNCNvMNtNtCslUrB7RWuRKg_8airplay210connection7managerNtB4_17ConnectionManager17send_post_command0B8_
FNDA:66,_RNCNvMNtNtCslUrB7RWuRKg_8airplay210connection7managerNtB4_17ConnectionManager17send_rtsp_request0B8_
FNDA:0,_RNCNvMNtNtCslUrB7RWuRKg_8airplay210connection7managerNtB4_17ConnectionManager18send_time_announce0B8_
FNDA:0,_RNCNvMNtNtCslUrB7RWuRKg_8airplay210connection7managerNtB4_17ConnectionManager18try_configured_pin0B8_
FNDA:2,_RNCNvMNtNtCslUrB7RWuRKg_8airplay210connection7managerNtB4_17ConnectionManager20get_ptp_network_time0B8_
FNDA:19,_RNCNvMNtNtCslUrB7RWuRKg_8airplay210connection7managerNtB4_17ConnectionManager21bind_ephemeral_socket0B8_
FNDA:5,_RNCNvMNtNtCslUrB7RWuRKg_8airplay210connection7managerNtB4_17ConnectionManager21try_transient_pairing0B8_
FNDA:5,_RNCNvMNtNtCslUrB7RWuRKg_8airplay210connection7managerNtB4_17ConnectionManager22disconnect_with_reason0B8_
FNDA:0,_RNCNvMNtNtCslUrB7RWuRKg_8airplay210connection7managerNtB4_17ConnectionManager22handle_pairing_success0B8_
FNDA:0,_RNCNvMNtNtCslUrB7RWuRKg_8airplay210connection7managerNtB4_17ConnectionManager23try_brute_force_pairing0B8_
FNDA:38,_RNCNvMNtNtCslUrB7RWuRKg_8airplay210connection7managerNtB4_17ConnectionManager5state0B8_
FNDA:0,_RNCNvMNtNtCslUrB7RWuRKg_8airplay210connection7managerNtB4_17ConnectionManager6device0B8_
FNDA:3,_RNCNvMNtNtCslUrB7RWuRKg_8airplay210connection7managerNtB4_17ConnectionManager6record0B8_
FNDA:6,_RNCNvMNtNtCslUrB7RWuRKg_8airplay210connection7managerNtB4_17ConnectionManager7connect0B8_
FNDA:5,_RNCNvMNtNtCslUrB7RWuRKg_8airplay210connection7managerNtB4_17ConnectionManager8stop_ptp0B8_
FNDA:32,_RNCNvMNtNtCslUrB7RWuRKg_8airplay210connection7managerNtB4_17ConnectionManager9set_state0B8_
FNDA:5,_RNvMNtNtCslUrB7RWuRKg_8airplay210connection7managerNtB2_17ConnectionManager10auth_setup
FNDA:5,_RNvMNtNtCslUrB7RWuRKg_8airplay210connection7managerNtB2_17ConnectionManager10disconnect
FNDA:0,_RNvMNtNtCslUrB7RWuRKg_8airplay210connection7managerNtB2_17ConnectionManager10pair_setup
FNDA:42,_RNvMNtNtCslUrB7RWuRKg_8airplay210connection7managerNtB2_17ConnectionManager10send_event
FNDA:0,_RNvMNtNtCslUrB7RWuRKg_8airplay210connection7managerNtB2_17ConnectionManager11pair_verify
FNDA:5,_RNvMNtNtCslUrB7RWuRKg_8airplay210connection7managerNtB2_17ConnectionManager12authenticate
FNDA:11,_RNvMNtNtCslUrB7RWuRKg_8airplay210connection7managerNtB2_17ConnectionManager12send_command
FNDA:6,_RNvMNtNtCslUrB7RWuRKg_8airplay210connection7managerNtB2_17ConnectionManager12send_options
FNDA:0,_RNvMNtNtCslUrB7RWuRKg_8airplay210connection7managerNtB2_17ConnectionManager13is_ptp_active
FNDA:5,_RNvMNtNtCslUrB7RWuRKg_8airplay210connection7managerNtB2_17ConnectionManager13setup_session
FNDA:5,_RNvMNtNtCslUrB7RWuRKg_8airplay210connection7managerNtB2_17ConnectionManager14encryption_key
FNDA:0,_RNvMNtNtCslUrB7RWuRKg_8airplay210connection7managerNtB2_17ConnectionManager14remove_pairing
FNDA:0,_RNvMNtNtCslUrB7RWuRKg_8airplay210connection7managerNtB2_17ConnectionManager14send_rtp_audio
FNDA:2,_RNvMNtNtCslUrB7RWuRKg_8airplay210connection7managerNtB2_17ConnectionManager14send_set_peers
FNDA:5,_RNvMNtNtCslUrB7RWuRKg_8airplay210connection7managerNtB2_17ConnectionManager14should_use_ptp
FNDA:5,_RNvMNtNtCslUrB7RWuRKg_8airplay210connection7managerNtB2_17ConnectionManager14transient_pair
FNDA:0,_RNvMNtNtCslUrB7RWuRKg_8airplay210connection7managerNtB2_17ConnectionManager15device_clock_id
FNDA:5,_RNvMNtNtCslUrB7RWuRKg_8airplay210connection7managerNtB2_17ConnectionManager15try_stored_keys
FNDA:6,_RNvMNtNtCslUrB7RWuRKg_8airplay210connection7managerNtB2_17ConnectionManager16connect_internal
FNDA:14,_RNvMNtNtCslUrB7RWuRKg_8airplay210connection7managerNtB2_17ConnectionManager16send_get_command
FNDA:2,_RNvMNtNtCslUrB7RWuRKg_8airplay210connection7managerNtB2_17ConnectionManager16start_ptp_master
FNDA:10,_RNvMNtNtCslUrB7RWuRKg_8airplay210connection7managerNtB2_17ConnectionManager17send_pairing_data
FNDA:11,_RNvMNtNtCslUrB7RWuRKg_8airplay210connection7managerNtB2_17ConnectionManager17send_post_command
FNDA:66,_RNvMNtNtCslUrB7RWuRKg_8airplay210connection7managerNtB2_17ConnectionManager17send_rtsp_request
FNDA:0,_RNvMNtNtCslUrB7RWuRKg_8airplay210connection7managerNtB2_17ConnectionManager18send_time_announce
FNDA:0,_RNvMNtNtCslUrB7RWuRKg_8airplay210connection7managerNtB2_17ConnectionManager18try_configured_pin
FNDA:0,_RNvMNtNtCslUrB7RWuRKg_8airplay210connection7managerNtB2_17ConnectionManager19is_ptp_synchronized
FNDA:2,_RNvMNtNtCslUrB7RWuRKg_8airplay210connection7managerNtB2_17ConnectionManager20get_ptp_network_time
FNDA:0,_RNvMNtNtCslUrB7RWuRKg_8airplay210connection7managerNtB2_17ConnectionManager20with_pairing_storage
FNDA:19,_RNvMNtNtCslUrB7RWuRKg_8airplay210connection7managerNtB2_17ConnectionManager21bind_ephemeral_socket
FNDA:5,_RNvMNtNtCslUrB7RWuRKg_8airplay210connection7managerNtB2_17ConnectionManager21parse_transport_ports
FNDA:5,_RNvMNtNtCslUrB7RWuRKg_8airplay210connection7managerNtB2_17ConnectionManager21try_transient_pairing
FNDA:5,_RNvMNtNtCslUrB7RWuRKg_8airplay210connection7managerNtB2_17ConnectionManager22disconnect_with_reason
FNDA:0,_RNvMNtNtCslUrB7RWuRKg_8airplay210connection7managerNtB2_17ConnectionManager22handle_pairing_success
FNDA:0,_RNvMNtNtCslUrB7RWuRKg_8airplay210connection7managerNtB2_17ConnectionManager23try_brute_force_pairing
FNDA:0,_RNvMNtNtCslUrB7RWuRKg_8airplay210connection7managerNtB2_17ConnectionManager25send_set_rate_anchor_time
FNDA:5,_RNvMNtNtCslUrB7RWuRKg_8airplay210connection7managerNtB2_17ConnectionManager3new
FNDA:38,_RNvMNtNtCslUrB7RWuRKg_8airplay210connection7managerNtB2_17ConnectionManager5state
FNDA:0,_RNvMNtNtCslUrB7RWuRKg_8airplay210connection7managerNtB2_17ConnectionManager5stats
FNDA:0,_RNvMNtNtCslUrB7RWuRKg_8airplay210connection7managerNtB2_17ConnectionManager6device
FNDA:3,_RNvMNtNtCslUrB7RWuRKg_8airplay210connection7managerNtB2_17ConnectionManager6record
FNDA:6,_RNvMNtNtCslUrB7RWuRKg_8airplay210connection7managerNtB2_17ConnectionManager7connect
FNDA:5,_RNvMNtNtCslUrB7RWuRKg_8airplay210connection7managerNtB2_17ConnectionManager8stop_ptp
FNDA:0,_RNvMNtNtCslUrB7RWuRKg_8airplay210connection7managerNtB2_17ConnectionManager9ptp_clock
FNDA:32,_RNvMNtNtCslUrB7RWuRKg_8airplay210connection7managerNtB2_17ConnectionManager9set_state
FNDA:5,_RNvMNtNtCslUrB7RWuRKg_8airplay210connection7managerNtB2_17ConnectionManager9subscribe
FNDA:0,_RNCNCNvMNtNtCs41oluKY1Omx_8airplay210connection7managerNtB6_17ConnectionManager14remove_pairing00Ba_
FNDA:0,_RNCNvMNtNtCs41oluKY1Omx_8airplay210connection7managerNtB4_17ConnectionManager14remove_pairing0B8_
FNDA:0,_RNCNvMNtNtCs41oluKY1Omx_8airplay210connection7managerNtB4_17ConnectionManager5stats0B8_
FNDA:0,_RNvMNtNtCs41oluKY1Omx_8airplay210connection7managerNtB2_17ConnectionManager14remove_pairing
FNDA:0,_RNvMNtNtCs41oluKY1Omx_8airplay210connection7managerNtB2_17ConnectionManager20with_pairing_storage
FNDA:0,_RNvMNtNtCs41oluKY1Omx_8airplay210connection7managerNtB2_17ConnectionManager5stats
FNDA:0,_RNvMNtNtCs41oluKY1Omx_8airplay210connection7managerNtB2_17ConnectionManager10auth_setup
FNDA:0,_RNvMNtNtCs41oluKY1Omx_8airplay210connection7managerNtB2_17ConnectionManager10disconnect
FNDA:0,_RNvMNtNtCs41oluKY1Omx_8airplay210connection7managerNtB2_17ConnectionManager10pair_setup
FNDA:9,_RNvMNtNtCs41oluKY1Omx_8airplay210connection7managerNtB2_17ConnectionManager10send_event
FNDA:0,_RNvMNtNtCs41oluKY1Omx_8airplay210connection7managerNtB2_17ConnectionManager11pair_verify
FNDA:0,_RNvMNtNtCs41oluKY1Omx_8airplay210connection7managerNtB2_17ConnectionManager12authenticate
FNDA:1,_RNvMNtNtCs41oluKY1Omx_8airplay210connection7managerNtB2_17ConnectionManager12send_command
FNDA:0,_RNvMNtNtCs41oluKY1Omx_8airplay210connection7managerNtB2_17ConnectionManager12send_options
FNDA:6,_RNvMNtNtCs41oluKY1Omx_8airplay210connection7managerNtB2_17ConnectionManager13is_ptp_active
FNDA:0,_RNvMNtNtCs41oluKY1Omx_8airplay210connection7managerNtB2_17ConnectionManager13setup_session
FNDA:0,_RNvMNtNtCs41oluKY1Omx_8airplay210connection7managerNtB2_17ConnectionManager14encryption_key
FNDA:0,_RNvMNtNtCs41oluKY1Omx_8airplay210connection7managerNtB2_17ConnectionManager14send_rtp_audio
FNDA:0,_RNvMNtNtCs41oluKY1Omx_8airplay210connection7managerNtB2_17ConnectionManager14send_set_peers
FNDA:0,_RNvMNtNtCs41oluKY1Omx_8airplay210connection7managerNtB2_17ConnectionManager14should_use_ptp
FNDA:0,_RNvMNtNtCs41oluKY1Omx_8airplay210connection7managerNtB2_17ConnectionManager14transient_pair
FNDA:0,_RNvMNtNtCs41oluKY1Omx_8airplay210connection7managerNtB2_17ConnectionManager15device_clock_id
FNDA:0,_RNvMNtNtCs41oluKY1Omx_8airplay210connection7managerNtB2_17ConnectionManager15try_stored_keys
FNDA:3,_RNvMNtNtCs41oluKY1Omx_8airplay210connection7managerNtB2_17ConnectionManager16connect_internal
FNDA:0,_RNvMNtNtCs41oluKY1Omx_8airplay210connection7managerNtB2_17ConnectionManager16send_get_command
FNDA:0,_RNvMNtNtCs41oluKY1Omx_8airplay210connection7managerNtB2_17ConnectionManager16start_ptp_master
FNDA:0,_RNvMNtNtCs41oluKY1Omx_8airplay210connection7managerNtB2_17ConnectionManager17send_pairing_data
FNDA:0,_RNvMNtNtCs41oluKY1Omx_8airplay210connection7managerNtB2_17ConnectionManager17send_post_command
FNDA:0,_RNvMNtNtCs41oluKY1Omx_8airplay210connection7managerNtB2_17ConnectionManager17send_rtsp_request
FNDA:0,_RNvMNtNtCs41oluKY1Omx_8airplay210connection7managerNtB2_17ConnectionManager18send_time_announce
FNDA:0,_RNvMNtNtCs41oluKY1Omx_8airplay210connection7managerNtB2_17ConnectionManager18try_configured_pin
FNDA:0,_RNvMNtNtCs41oluKY1Omx_8airplay210connection7managerNtB2_17ConnectionManager19is_ptp_synchronized
FNDA:0,_RNvMNtNtCs41oluKY1Omx_8airplay210connection7managerNtB2_17ConnectionManager20get_ptp_network_time
FNDA:0,_RNvMNtNtCs41oluKY1Omx_8airplay210connection7managerNtB2_17ConnectionManager21bind_ephemeral_socket
FNDA:0,_RNvMNtNtCs41oluKY1Omx_8airplay210connection7managerNtB2_17ConnectionManager21parse_transport_ports
FNDA:0,_RNvMNtNtCs41oluKY1Omx_8airplay210connection7managerNtB2_17ConnectionManager21try_transient_pairing
FNDA:0,_RNvMNtNtCs41oluKY1Omx_8airplay210connection7managerNtB2_17ConnectionManager22disconnect_with_reason
FNDA:0,_RNvMNtNtCs41oluKY1Omx_8airplay210connection7managerNtB2_17ConnectionManager22handle_pairing_success
FNDA:0,_RNvMNtNtCs41oluKY1Omx_8airplay210connection7managerNtB2_17ConnectionManager23try_brute_force_pairing
FNDA:0,_RNvMNtNtCs41oluKY1Omx_8airplay210connection7managerNtB2_17ConnectionManager25send_set_rate_anchor_time
FNDA:35,_RNvMNtNtCs41oluKY1Omx_8airplay210connection7managerNtB2_17ConnectionManager3new
FNDA:24,_RNvMNtNtCs41oluKY1Omx_8airplay210connection7managerNtB2_17ConnectionManager5state
FNDA:17,_RNvMNtNtCs41oluKY1Omx_8airplay210connection7managerNtB2_17ConnectionManager6device
FNDA:0,_RNvMNtNtCs41oluKY1Omx_8airplay210connection7managerNtB2_17ConnectionManager6record
FNDA:3,_RNvMNtNtCs41oluKY1Omx_8airplay210connection7managerNtB2_17ConnectionManager7connect
FNDA:0,_RNvMNtNtCs41oluKY1Omx_8airplay210connection7managerNtB2_17ConnectionManager8stop_ptp
FNDA:2,_RNvMNtNtCs41oluKY1Omx_8airplay210connection7managerNtB2_17ConnectionManager9ptp_clock
FNDA:6,_RNvMNtNtCs41oluKY1Omx_8airplay210connection7managerNtB2_17ConnectionManager9set_state
FNDA:0,_RNvMNtNtCs41oluKY1Omx_8airplay210connection7managerNtB2_17ConnectionManager9subscribe
FNDA:0,_RNCNCNCNvMNtNtCs41oluKY1Omx_8airplay210connection7managerNtB8_17ConnectionManager13setup_session0se_00Bc_
FNDA:0,_RNCNCNCNvMNtNtCs41oluKY1Omx_8airplay210connection7managerNtB8_17ConnectionManager13setup_session0se_0s_0Bc_
FNDA:0,_RNCNCNvMNtNtCs41oluKY1Omx_8airplay210connection7managerNtB6_17ConnectionManager10auth_setup00Ba_
FNDA:0,_RNCNCNvMNtNtCs41oluKY1Omx_8airplay210connection7managerNtB6_17ConnectionManager10auth_setup0s_0Ba_
FNDA:0,_RNCNCNvMNtNtCs41oluKY1Omx_8airplay210connection7managerNtB6_17ConnectionManager10pair_setup00Ba_
FNDA:0,_RNCNCNvMNtNtCs41oluKY1Omx_8airplay210connection7managerNtB6_17ConnectionManager10pair_setup0s0_0Ba_
FNDA:0,_RNCNCNvMNtNtCs41oluKY1Omx_8airplay210connection7managerNtB6_17ConnectionManager10pair_setup0s1_0Ba_
FNDA:0,_RNCNCNvMNtNtCs41oluKY1Omx_8airplay210connection7managerNtB6_17ConnectionManager10pair_setup0s_0Ba_
FNDA:0,_RNCNCNvMNtNtCs41oluKY1Omx_8airplay210connection7managerNtB6_17ConnectionManager11pair_verify00Ba_
FNDA:0,_RNCNCNvMNtNtCs41oluKY1Omx_8airplay210connection7managerNtB6_17ConnectionManager11pair_verify0s0_0Ba_
FNDA:0,_RNCNCNvMNtNtCs41oluKY1Omx_8airplay210connection7managerNtB6_17ConnectionManager11pair_verify0s1_0Ba_
FNDA:0,_RNCNCNvMNtNtCs41oluKY1Omx_8airplay210connection7managerNtB6_17ConnectionManager11pair_verify0s_0Ba_
FNDA:1,_RNCNCNvMNtNtCs41oluKY1Omx_8airplay210connection7managerNtB6_17ConnectionManager12send_command00Ba_
FNDA:0,_RNCNCNvMNtNtCs41oluKY1Omx_8airplay210connection7managerNtB6_17ConnectionManager12send_command0s0_0Ba_
FNDA:0,_RNCNCNvMNtNtCs41oluKY1Omx_8airplay210connection7managerNtB6_17ConnectionManager12send_command0s1_0Ba_
FNDA:0,_RNCNCNvMNtNtCs41oluKY1Omx_8airplay210connection7managerNtB6_17ConnectionManager12send_command0s2_0Ba_
FNDA:0,_RNCNCNvMNtNtCs41oluKY1Omx_8airplay210connection7managerNtB6_17ConnectionManager12send_command0s_0Ba_
FNDA:0,_RNCNCNvMNtNtCs41oluKY1Omx_8airplay210connection7managerNtB6_17ConnectionManager12send_options00Ba_
FNDA:0,_RNCNCNvMNtNtCs41oluKY1Omx_8airplay210connection7managerNtB6_17ConnectionManager12send_options0s0_0Ba_
FNDA:0,_RNCNCNvMNtNtCs41oluKY1Omx_8airplay210connection7managerNtB6_17ConnectionManager12send_options0s_0Ba_
FNDA:0,_RNCNCNvMNtNtCs41oluKY1Omx_8airplay210connection7managerNtB6_17ConnectionManager13setup_session00Ba_
FNDA:0,_RNCNCNvMNtNtCs41oluKY1Omx_8airplay210connection7managerNtB6_17ConnectionManager13setup_session0s0_0Ba_
FNDA:0,_RNCNCNvMNtNtCs41oluKY1Omx_8airplay210connection7managerNtB6_17ConnectionManager13setup_session0s1_0Ba_
FNDA:0,_RNCNCNvMNtNtCs41oluKY1Omx_8airplay210connection7managerNtB6_17ConnectionManager13setup_session0s2_0Ba_
FNDA:0,_RNCNCNvMNtNtCs41oluKY1Omx_8airplay210connection7managerNtB6_17ConnectionManager13setup_session0s3_0Ba_
FNDA:0,_RNCNCNvMNtNtCs41oluKY1Omx_8airplay210connection7managerNtB6_17ConnectionManager13setup_session0s4_0Ba_
FNDA:0,_RNCNCNvMNtNtCs41oluKY1Omx_8airplay210connection7managerNtB6_17ConnectionManager13setup_session0s5_0Ba_
FNDA:0,_RNCNCNvMNtNtCs41oluKY1Omx_8airplay210connection7managerNtB6_17ConnectionManager13setup_session0s6_0Ba_
FNDA:0,_RNCNCNvMNtNtCs41oluKY1Omx_8airplay210connection7managerNtB6_17ConnectionManager13setup_session0s7_0Ba_
FNDA:0,_RNCNCNvMNtNtCs41oluKY1Omx_8airplay210connection7managerNtB6_17ConnectionManager13setup_session0s8_0Ba_
FNDA:0,_RNCNCNvMNtNtCs41oluKY1Omx_8airplay210connection7managerNtB6_17ConnectionManager13setup_session0s9_0Ba_
FNDA:0,_RNCNCNvMNtNtCs41oluKY1Omx_8airplay210connection7managerNtB6_17ConnectionManager13setup_session0s_0Ba_
FNDA:0,_RNCNCNvMNtNtCs41oluKY1Omx_8airplay210connection7managerNtB6_17ConnectionManager13setup_session0sa_0Ba_
FNDA:0,_RNCNCNvMNtNtCs41oluKY1Omx_8airplay210connection7managerNtB6_17ConnectionManager13setup_session0sb_0Ba_
FNDA:0,_RNCNCNvMNtNtCs41oluKY1Omx_8airplay210connection7managerNtB6_17ConnectionManager13setup_session0sc_0Ba_
FNDA:0,_RNCNCNvMNtNtCs41oluKY1Omx_8airplay210connection7managerNtB6_17ConnectionManager13setup_session0sd_0Ba_
FNDA:0,_RNCNCNvMNtNtCs41oluKY1Omx_8airplay210connection7managerNtB6_17ConnectionManager13setup_session0se_0Ba_
FNDA:0,_RNCNCNvMNtNtCs41oluKY1Omx_8airplay210connection7managerNtB6_17ConnectionManager13setup_session0sf_0Ba_
FNDA:0,_RNCNCNvMNtNtCs41oluKY1Omx_8airplay210connection7managerNtB6_17ConnectionManager14send_rtp_audio00Ba_
FNDA:0,_RNCNCNvMNtNtCs41oluKY1Omx_8airplay210connection7managerNtB6_17ConnectionManager14send_set_peers00Ba_
FNDA:0,_RNCNCNvMNtNtCs41oluKY1Omx_8airplay210connection7managerNtB6_17ConnectionManager14send_set_peers0s0_0Ba_
FNDA:0,_RNCNCNvMNtNtCs41oluKY1Omx_8airplay210connection7managerNtB6_17ConnectionManager14send_set_peers0s1_0Ba_
FNDA:0,_RNCNCNvMNtNtCs41oluKY1Omx_8airplay210connection7managerNtB6_17ConnectionManager14send_set_peers0s_0Ba_
FNDA:0,_RNCNCNvMNtNtCs41oluKY1Omx_8airplay210connection7managerNtB6_17ConnectionManager14should_use_ptp00Ba_
FNDA:0,_RNCNCNvMNtNtCs41oluKY1Omx_8airplay210connection7managerNtB6_17ConnectionManager14transient_pair00Ba_
FNDA:0,_RNCNCNvMNtNtCs41oluKY1Omx_8airplay210connection7managerNtB6_17ConnectionManager14transient_pair0s0_0Ba_
FNDA:0,_RNCNCNvMNtNtCs41oluKY1Omx_8airplay210connection7managerNtB6_17ConnectionManager14transient_pair0s_0Ba_
FNDA:3,_RNCNCNvMNtNtCs41oluKY1Omx_8airplay210connection7managerNtB6_17ConnectionManager16connect_internal00Ba_
FNDA:0,_RNCNCNvMNtNtCs41oluKY1Omx_8airplay210connection7managerNtB6_17ConnectionManager16connect_internal0s0_0Ba_
FNDA:0,_RNCNCNvMNtNtCs41oluKY1Omx_8airplay210connection7managerNtB6_17ConnectionManager16connect_internal0s_0Ba_
FNDA:0,_RNCNCNvMNtNtCs41oluKY1Omx_8airplay210connection7managerNtB6_17ConnectionManager16send_get_command00Ba_
FNDA:0,_RNCNCNvMNtNtCs41oluKY1Omx_8airplay210connection7managerNtB6_17ConnectionManager16start_ptp_master00Ba_
FNDA:0,_RNCNCNvMNtNtCs41oluKY1Omx_8airplay210connection7managerNtB6_17ConnectionManager17send_pairing_data00Ba_
FNDA:0,_RNCNCNvMNtNtCs41oluKY1Omx_8airplay210connection7managerNtB6_17ConnectionManager17send_pairing_data0s_0Ba_
FNDA:0,_RNCNCNvMNtNtCs41oluKY1Omx_8airplay210connection7managerNtB6_17ConnectionManager17send_post_command00Ba_
FNDA:0,_RNCNCNvMNtNtCs41oluKY1Omx_8airplay210connection7managerNtB6_17ConnectionManager17send_post_command0s0_0Ba_
FNDA:0,_RNCNCNvMNtNtCs41oluKY1Omx_8airplay210connection7managerNtB6_17ConnectionManager17send_post_command0s_0Ba_
FNDA:0,_RNCNCNvMNtNtCs41oluKY1Omx_8airplay210connection7managerNtB6_17ConnectionManager17send_rtsp_request00Ba_
FNDA:0,_RNCNCNvMNtNtCs41oluKY1Omx_8airplay210connection7managerNtB6_17ConnectionManager17send_rtsp_request0s0_0Ba_
FNDA:0,_RNCNCNvMNtNtCs41oluKY1Omx_8airplay210connection7managerNtB6_17ConnectionManager17send_rtsp_request0s1_0Ba_
FNDA:0,_RNCNCNvMNtNtCs41oluKY1Omx_8airplay210connection7managerNtB6_17ConnectionManager17send_rtsp_request0s_0Ba_
FNDA:0,_RNCNCNvMNtNtCs41oluKY1Omx_8airplay210connection7managerNtB6_17ConnectionManager18send_time_announce00Ba_
FNDA:0,_RNCNCNvMNtNtCs41oluKY1Omx_8airplay210connection7managerNtB6_17ConnectionManager18send_time_announce0s_0Ba_
FNDA:0,_RNCNCNvMNtNtCs41oluKY1Omx_8airplay210connection7managerNtB6_17ConnectionManager20get_ptp_network_time00Ba_
FNDA:0,_RNCNCNvMNtNtCs41oluKY1Omx_8airplay210connection7managerNtB6_17ConnectionManager25send_set_rate_anchor_time00Ba_
FNDA:0,_RNCNCNvMNtNtCs41oluKY1Omx_8airplay210connection7managerNtB6_17ConnectionManager6record00Ba_
FNDA:0,_RNCNvMNtNtCs41oluKY1Omx_8airplay210connection7managerNtB4_17ConnectionManager10auth_setup0B8_
FNDA:0,_RNCNvMNtNtCs41oluKY1Omx_8airplay210connection7managerNtB4_17ConnectionManager10disconnect0B8_
FNDA:0,_RNCNvMNtNtCs41oluKY1Omx_8airplay210connection7managerNtB4_17ConnectionManager10pair_setup0B8_
FNDA:0,_RNCNvMNtNtCs41oluKY1Omx_8airplay210connection7managerNtB4_17ConnectionManager11pair_verify0B8_
FNDA:0,_RNCNvMNtNtCs41oluKY1Omx_8airplay210connection7managerNtB4_17ConnectionManager12authenticate0B8_
FNDA:1,_RNCNvMNtNtCs41oluKY1Omx_8airplay210connection7managerNtB4_17ConnectionManager12send_command0B8_
FNDA:0,_RNCNvMNtNtCs41oluKY1Omx_8airplay210connection7managerNtB4_17ConnectionManager12send_options0B8_
FNDA:6,_RNCNvMNtNtCs41oluKY1Omx_8airplay210connection7managerNtB4_17ConnectionManager13is_ptp_active0B8_
FNDA:0,_RNCNvMNtNtCs41oluKY1Omx_8airplay210connection7managerNtB4_17ConnectionManager13setup_session0B8_
FNDA:0,_RNCNvMNtNtCs41oluKY1Omx_8airplay210connection7managerNtB4_17ConnectionManager14encryption_key0B8_
FNDA:0,_RNCNvMNtNtCs41oluKY1Omx_8airplay210connection7managerNtB4_17ConnectionManager14send_rtp_audio0B8_
FNDA:0,_RNCNvMNtNtCs41oluKY1Omx_8airplay210connection7managerNtB4_17ConnectionManager14send_set_peers0B8_
FNDA:0,_RNCNvMNtNtCs41oluKY1Omx_8airplay210connection7managerNtB4_17ConnectionManager14should_use_ptp0B8_
FNDA:0,_RNCNvMNtNtCs41oluKY1Omx_8airplay210connection7managerNtB4_17ConnectionManager14transient_pair0B8_
FNDA:0,_RNCNvMNtNtCs41oluKY1Omx_8airplay210connection7managerNtB4_17ConnectionManager15device_clock_id0B8_
FNDA:0,_RNCNvMNtNtCs41oluKY1Omx_8airplay210connection7managerNtB4_17ConnectionManager15try_stored_keys0B8_
FNDA:3,_RNCNvMNtNtCs41oluKY1Omx_8airplay210connection7managerNtB4_17ConnectionManager16connect_internal0B8_
FNDA:0,_RNCNvMNtNtCs41oluKY1Omx_8airplay210connection7managerNtB4_17ConnectionManager16send_get_command0B8_
FNDA:0,_RNCNvMNtNtCs41oluKY1Omx_8airplay210connection7managerNtB4_17ConnectionManager16start_ptp_master0B8_
FNDA:0,_RNCNvMNtNtCs41oluKY1Omx_8airplay210connection7managerNtB4_17ConnectionManager17send_pairing_data0B8_
FNDA:0,_RNCNvMNtNtCs41oluKY1Omx_8airplay210connection7managerNtB4_17ConnectionManager17send_post_command0B8_
FNDA:0,_RNCNvMNtNtCs41oluKY1Omx_8airplay210connection7managerNtB4_17ConnectionManager17send_rtsp_request0B8_
FNDA:0,_RNCNvMNtNtCs41oluKY1Omx_8airplay210connection7managerNtB4_17ConnectionManager18send_time_announce0B8_
FNDA:0,_RNCNvMNtNtCs41oluKY1Omx_8airplay210connection7managerNtB4_17ConnectionManager18try_configured_pin0B8_
FNDA:0,_RNCNvMNtNtCs41oluKY1Omx_8airplay210connection7managerNtB4_17ConnectionManager19is_ptp_synchronized0B8_
FNDA:0,_RNCNvMNtNtCs41oluKY1Omx_8airplay210connection7managerNtB4_17ConnectionManager20get_ptp_network_time0B8_
FNDA:0,_RNCNvMNtNtCs41oluKY1Omx_8airplay210connection7managerNtB4_17ConnectionManager21bind_ephemeral_socket0B8_
FNDA:0,_RNCNvMNtNtCs41oluKY1Omx_8airplay210connection7managerNtB4_17ConnectionManager21try_transient_pairing0B8_
FNDA:0,_RNCNvMNtNtCs41oluKY1Omx_8airplay210connection7managerNtB4_17ConnectionManager22disconnect_with_reason0B8_
FNDA:0,_RNCNvMNtNtCs41oluKY1Omx_8airplay210connection7managerNtB4_17ConnectionManager22handle_pairing_success0B8_
FNDA:0,_RNCNvMNtNtCs41oluKY1Omx_8airplay210connection7managerNtB4_17ConnectionManager23try_brute_force_pairing0B8_
FNDA:0,_RNCNvMNtNtCs41oluKY1Omx_8airplay210connection7managerNtB4_17ConnectionManager25send_set_rate_anchor_time0B8_
FNDA:24,_RNCNvMNtNtCs41oluKY1Omx_8airplay210connection7managerNtB4_17ConnectionManager5state0B8_
FNDA:17,_RNCNvMNtNtCs41oluKY1Omx_8airplay210connection7managerNtB4_17ConnectionManager6device0B8_
FNDA:0,_RNCNvMNtNtCs41oluKY1Omx_8airplay210connection7managerNtB4_17ConnectionManager6record0B8_
FNDA:3,_RNCNvMNtNtCs41oluKY1Omx_8airplay210connection7managerNtB4_17ConnectionManager7connect0B8_
FNDA:0,_RNCNvMNtNtCs41oluKY1Omx_8airplay210connection7managerNtB4_17ConnectionManager8stop_ptp0B8_
FNDA:2,_RNCNvMNtNtCs41oluKY1Omx_8airplay210connection7managerNtB4_17ConnectionManager9ptp_clock0B8_
FNDA:6,_RNCNvMNtNtCs41oluKY1Omx_8airplay210connection7managerNtB4_17ConnectionManager9set_state0B8_
FNF:154
FNH:72
DA:80,40
DA:81,40
DA:83,40
DA:84,40
DA:85,40
DA:86,40
DA:87,40
DA:88,40
DA:89,40
DA:90,40
DA:91,40
DA:92,40
DA:93,40
DA:94,40
DA:95,40
DA:96,40
DA:97,40
DA:98,40
DA:99,40
DA:100,40
DA:101,40
DA:102,40
DA:103,40
DA:107,0
DA:108,0
DA:109,0
DA:110,0
DA:113,62
DA:114,62
DA:115,62
DA:118,17
DA:119,17
DA:120,17
DA:123,0
DA:124,0
DA:125,0
DA:128,5
DA:129,5
DA:130,5
DA:131,5
DA:132,5
DA:133,5
DA:134,5
DA:141,9
DA:143,9
DA:144,9
DA:145,0
DA:146,0
DA:147,0
DA:148,0
DA:149,9
DA:151,9
DA:152,9
DA:155,9
DA:156,9
DA:157,9
DA:158,9
DA:159,9
DA:161,8
DA:163,5
DA:164,5
DA:165,5
DA:166,5
DA:167,5
DA:169,3
DA:170,3
DA:171,3
DA:172,3
DA:173,3
DA:174,3
DA:175,3
DA:178,0
DA:179,0
DA:180,0
DA:181,0
DA:184,8
DA:187,9
DA:189,9
DA:190,9
DA:192,6
DA:193,9
DA:194,9
DA:195,9
DA:196,3
DA:197,3
DA:198,3
DA:199,3
DA:201,6
DA:202,6
DA:203,6
DA:206,6
DA:207,6
DA:210,6
DA:211,6
DA:214,6
DA:215,6
DA:216,6
DA:217,5
DA:218,5
DA:219,0
DA:220,0
DA:221,0
DA:222,0
DA:223,0
DA:224,0
DA:225,0
DA:226,0
DA:228,5
DA:231,0
DA:235,5
DA:240,5
DA:241,0
DA:243,5
DA:244,0
DA:245,5
DA:246,5
DA:247,3
DA:254,5
DA:257,5
DA:259,5
DA:261,5
DA:262,8
DA:269,0
DA:270,0
DA:271,0
DA:272,0
DA:273,0
DA:274,0
DA:275,0
DA:276,0
DA:277,0
DA:278,0
DA:279,0
DA:280,0
DA:281,0
DA:282,0
DA:283,0
DA:284,0
DA:285,0
DA:288,6
DA:289,6
DA:290,6
DA:291,6
DA:292,6
DA:293,6
DA:294,0
DA:295,0
DA:296,0
DA:297,6
DA:300,6
DA:303,6
DA:304,6
DA:305,6
DA:306,6
DA:307,0
DA:308,0
DA:309,0
DA:311,6
DA:312,6
DA:313,6
DA:314,0
DA:315,0
DA:316,0
DA:319,6
DA:320,6
DA:323,5
DA:324,5
DA:325,5
DA:327,5
DA:328,5
DA:329,5
DA:330,5
DA:331,5
DA:332,5
DA:333,5
DA:334,5
DA:335,5
DA:338,0
DA:339,0
DA:340,0
DA:342,5
DA:344,5
DA:345,5
DA:346,5
DA:348,5
DA:350,0
DA:351,0
DA:352,5
DA:355,5
DA:357,5
DA:358,0
DA:359,5
DA:362,5
DA:363,0
DA:364,5
DA:367,5
DA:368,5
DA:369,0
DA:372,0
DA:373,5
DA:375,5
DA:376,5
DA:377,5
DA:378,5
DA:379,5
DA:380,5
DA:381,5
DA:382,5
DA:383,5
DA:384,5
DA:385,5
DA:386,5
DA:388,0
DA:389,0
DA:390,0
DA:392,0
DA:394,0
DA:397,5
DA:399,5
DA:400,5
DA:401,0
DA:402,0
DA:403,0
DA:404,0
DA:405,0
DA:407,0
DA:408,0
DA:411,0
DA:412,5
DA:413,5
DA:414,5
DA:416,0
DA:417,0
DA:418,0
DA:419,0
DA:420,0
DA:421,0
DA:422,0
DA:424,0
DA:425,0
DA:426,0
DA:427,0
DA:428,0
DA:429,0
DA:431,0
DA:432,0
DA:433,0
DA:434,0
DA:435,0
DA:437,0
DA:438,0
DA:439,0
DA:440,0
DA:441,0
DA:442,0
DA:443,0
DA:444,0
DA:445,0
DA:446,0
DA:447,0
DA:449,0
DA:450,0
DA:451,0
DA:452,0
DA:453,0
DA:454,0
DA:455,0
DA:457,0
DA:458,0
DA:459,0
DA:464,0
DA:465,0
DA:466,0
DA:467,0
DA:468,0
DA:470,0
DA:471,0
DA:472,0
DA:473,0
DA:474,0
DA:475,0
DA:476,0
DA:477,0
DA:478,0
DA:479,0
DA:480,0
DA:481,0
DA:483,0
DA:484,0
DA:486,0
DA:487,0
DA:488,0
DA:491,0
DA:492,0
DA:493,0
DA:494,0
DA:495,0
DA:496,0
DA:497,0
DA:498,0
DA:508,0
DA:509,0
DA:510,0
DA:511,0
DA:513,0
DA:515,0
DA:516,0
DA:519,0
DA:520,0
DA:521,0
DA:522,0
DA:524,0
DA:526,0
DA:527,0
DA:528,0
DA:529,0
DA:530,0
DA:533,0
DA:534,0
DA:537,0
DA:538,0
DA:539,0
DA:540,0
DA:542,0
DA:544,0
DA:545,0
DA:546,0
DA:547,0
DA:549,0
DA:550,0
DA:551,0
DA:552,0
DA:553,0
DA:556,0
DA:557,0
DA:560,0
DA:561,0
DA:562,0
DA:563,0
DA:565,0
DA:567,0
DA:568,0
DA:570,0
DA:571,0
DA:572,0
DA:573,0
DA:574,0
DA:575,0
DA:576,0
DA:577,0
DA:578,0
DA:579,0
DA:581,0
DA:584,0
DA:587,0
DA:589,0
DA:590,0
DA:591,0
DA:592,0
DA:594,0
DA:597,5
DA:598,5
DA:599,5
DA:600,5
DA:601,5
DA:604,5
DA:605,5
DA:606,5
DA:607,0
DA:609,0
DA:611,5
DA:612,5
DA:613,5
DA:616,5
DA:617,5
DA:618,5
DA:619,0
DA:621,0
DA:623,5
DA:624,0
DA:625,0
DA:626,0
DA:627,0
DA:630,5
DA:631,5
DA:632,5
DA:635,5
DA:636,5
DA:637,5
DA:638,0
DA:640,0
DA:642,5
DA:643,5
DA:644,5
DA:645,5
DA:647,0
DA:648,0
DA:649,0
DA:650,0
DA:651,0
DA:652,0
DA:653,0
DA:654,0
DA:656,5
DA:659,0
DA:660,0
DA:661,0
DA:662,0
DA:663,0
DA:664,0
DA:665,0
DA:666,0
DA:667,0
DA:668,0
DA:669,0
DA:672,0
DA:673,0
DA:674,0
DA:675,0
DA:677,0
DA:679,0
DA:682,0
DA:683,0
DA:684,0
DA:685,0
DA:687,0
DA:689,0
DA:690,0
DA:691,0
DA:692,0
DA:693,0
DA:696,0
DA:699,0
DA:700,0
DA:701,0
DA:702,0
DA:704,0
DA:706,0
DA:707,0
DA:708,0
DA:709,0
DA:710,0
DA:711,0
DA:713,0
DA:720,5
DA:724,5
DA:725,5
DA:728,5
DA:731,5
DA:732,5
DA:733,5
DA:735,5
DA:737,2
DA:738,2
DA:739,2
DA:740,2
DA:741,2
DA:742,2
DA:743,2
DA:745,2
DA:746,2
DA:747,2
DA:748,2
DA:749,2
DA:750,0
DA:751,0
DA:752,0
DA:753,2
DA:755,2
DA:756,3
DA:764,5
DA:765,5
DA:766,3
DA:768,2
DA:769,2
DA:770,0
DA:771,0
DA:772,0
DA:773,0
DA:774,0
DA:775,2
DA:776,2
DA:777,2
DA:778,2
DA:779,0
DA:780,0
DA:781,0
DA:782,0
DA:783,0
DA:784,0
DA:786,0
DA:787,0
DA:788,0
DA:789,0
DA:794,0
DA:798,0
DA:800,0
DA:801,0
DA:802,0
DA:804,0
DA:805,0
DA:806,0
DA:807,0
DA:808,0
DA:810,0
DA:812,0
DA:813,0
DA:814,0
DA:815,0
DA:817,0
DA:818,0
DA:819,0
DA:820,0
DA:821,0
DA:822,0
DA:827,2
DA:828,2
DA:829,2
DA:830,2
DA:831,2
DA:832,0
DA:833,0
DA:834,0
DA:835,2
DA:837,2
DA:838,2
DA:839,2
DA:840,2
DA:845,5
DA:846,5
DA:848,5
DA:850,5
DA:851,5
DA:852,5
DA:853,5
DA:862,5
DA:863,3
DA:866,3
DA:867,3
DA:868,3
DA:869,3
DA:871,0
DA:874,3
DA:876,3
DA:877,3
DA:878,3
DA:880,3
DA:881,3
DA:882,3
DA:883,3
DA:884,3
DA:885,3
DA:887,3
DA:889,3
DA:890,3
DA:891,3
DA:892,3
DA:893,3
DA:894,3
DA:895,3
DA:896,3
DA:897,3
DA:898,3
DA:900,2
DA:901,2
DA:902,2
DA:903,2
DA:904,2
DA:905,2
DA:906,2
DA:909,5
DA:910,5
DA:911,5
DA:912,5
DA:913,5
DA:914,0
DA:915,0
DA:916,0
DA:918,5
DA:920,5
DA:921,5
DA:922,3
DA:923,3
DA:924,3
DA:926,5
DA:927,0
DA:928,0
DA:929,0
DA:931,0
DA:933,5
DA:936,5
DA:937,5
DA:938,0
DA:939,0
DA:940,0
DA:941,0
DA:942,0
DA:943,0
DA:944,0
DA:952,0
DA:954,0
DA:955,0
DA:956,0
DA:957,0
DA:958,0
DA:966,0
DA:968,0
DA:969,0
DA:970,0
DA:976,0
DA:977,0
DA:978,0
DA:979,0
DA:981,0
DA:982,0
DA:987,0
DA:988,0
DA:989,0
DA:990,0
DA:991,0
DA:992,0
DA:993,0
DA:994,0
DA:995,0
DA:1000,0
DA:1001,0
DA:1002,0
DA:1006,0
DA:1007,0
DA:1009,0
DA:1010,0
DA:1011,0
DA:1012,0
DA:1014,0
DA:1015,0
DA:1016,0
DA:1017,0
DA:1019,0
DA:1022,5
DA:1023,5
DA:1024,5
DA:1029,5
DA:1031,5
DA:1032,5
DA:1033,5
DA:1035,5
DA:1036,5
DA:1037,5
DA:1039,5
DA:1040,3
DA:1046,5
DA:1047,5
DA:1048,5
DA:1053,5
DA:1057,5
DA:1058,5
DA:1059,0
DA:1060,0
DA:1062,0
DA:1066,0
DA:1068,0
DA:1069,0
DA:1070,0
DA:1071,0
DA:1073,0
DA:1088,5
DA:1089,5
DA:1090,5
DA:1091,5
DA:1092,5
DA:1093,5
DA:1094,5
DA:1095,5
DA:1096,5
DA:1097,5
DA:1098,5
DA:1099,5
DA:1100,5
DA:1102,5
DA:1103,5
DA:1104,5
DA:1106,5
DA:1107,5
DA:1108,5
DA:1109,5
DA:1110,5
DA:1111,0
DA:1112,0
DA:1113,0
DA:1115,5
DA:1117,5
DA:1118,5
DA:1119,3
DA:1120,3
DA:1121,3
DA:1123,5
DA:1124,0
DA:1125,0
DA:1126,0
DA:1128,0
DA:1130,5
DA:1132,5
DA:1133,5
DA:1134,0
DA:1135,0
DA:1136,0
DA:1140,0
DA:1141,0
DA:1142,0
DA:1143,0
DA:1151,0
DA:1153,0
DA:1154,0
DA:1155,0
DA:1156,0
DA:1157,0
DA:1165,0
DA:1167,0
DA:1170,0
DA:1171,0
DA:1172,0
DA:1174,0
DA:1176,0
DA:1177,0
DA:1178,0
DA:1186,0
DA:1188,0
DA:1189,0
DA:1190,0
DA:1191,0
DA:1199,0
DA:1201,0
DA:1203,0
DA:1205,0
DA:1208,0
DA:1209,0
DA:1210,0
DA:1213,0
DA:1214,0
DA:1215,0
DA:1216,0
DA:1217,0
DA:1218,0
DA:1219,0
DA:1220,0
DA:1222,5
DA:1226,5
DA:1227,5
DA:1228,5
DA:1229,4
DA:1230,4
DA:1231,4
DA:1232,4
DA:1233,4
DA:1234,4
DA:1235,4
DA:1236,4
DA:1237,0
DA:1238,0
DA:1240,4
DA:1241,5
DA:1244,4
DA:1247,4
DA:1248,2
DA:1252,4
DA:1253,4
DA:1254,4
DA:1255,4
DA:1256,4
DA:1257,4
DA:1258,0
DA:1259,0
DA:1260,0
DA:1261,4
DA:1264,4
DA:1265,4
DA:1267,4
DA:1268,4
DA:1270,4
DA:1271,4
DA:1272,4
DA:1274,0
DA:1278,4
DA:1280,2
DA:1281,0
DA:1282,2
DA:1284,2
DA:1285,2
DA:1286,2
DA:1288,4
DA:1289,4
DA:1290,4
DA:1291,4
DA:1292,4
DA:1293,4
DA:1294,4
DA:1295,4
DA:1296,1
DA:1304,5
DA:1305,3
DA:1306,3
DA:1308,3
DA:1309,3
DA:1310,0
DA:1312,0
DA:1313,0
DA:1316,2
DA:1317,5
DA:1318,5
DA:1321,10
DA:1326,10
DA:1327,10
DA:1328,10
DA:1329,10
DA:1330,10
DA:1331,10
DA:1332,10
DA:1333,10
DA:1335,0
DA:1340,10
DA:1341,10
DA:1342,10
DA:1343,10
DA:1345,0
DA:1350,10
DA:1351,10
DA:1352,10
DA:1353,10
DA:1354,10
DA:1357,10
DA:1358,10
DA:1359,10
DA:1360,10
DA:1362,10
DA:1363,10
DA:1364,10
DA:1369,10
DA:1370,10
DA:1371,10
DA:1373,10
DA:1375,10
DA:1377,10
DA:1378,10
DA:1379,10
DA:1380,0
DA:1381,0
DA:1384,10
DA:1385,10
DA:1386,10
DA:1389,10
DA:1390,10
DA:1391,10
DA:1395,900
DA:1396,890
DA:1397,890
DA:1398,0
DA:1399,0
DA:1400,0
DA:1401,0
DA:1402,890
DA:1403,890
DA:1405,890
DA:1406,10
DA:1407,880
DA:1409,890
DA:1410,0
DA:1411,0
DA:1412,0
DA:1413,0
DA:1414,890
DA:1418,10
DA:1419,10
DA:1420,0
DA:1421,0
DA:1422,0
DA:1424,10
DA:1426,10
DA:1427,50
DA:1428,50
DA:1429,10
DA:1430,40
DA:1431,0
DA:1432,40
DA:1436,10
DA:1437,10
DA:1440,10
DA:1441,6
DA:1442,6
DA:1446,10
DA:1447,10
DA:1451,66
DA:1452,66
DA:1454,66
DA:1455,66
DA:1456,66
DA:1457,66
DA:1458,66
DA:1459,0
DA:1460,0
DA:1462,66
DA:1463,49
DA:1464,21
DA:1465,21
DA:1467,49
DA:1468,49
DA:1471,17
DA:1472,12
DA:1474,5
DA:1476,17
DA:1478,66
DA:1481,66
DA:1484,66
DA:1485,66
DA:1486,66
DA:1487,0
DA:1488,0
DA:1490,66
DA:1493,66
DA:1496,66
DA:1497,66
DA:1498,66
DA:1501,131
DA:1502,0
DA:1503,0
DA:1504,0
DA:1505,65
DA:1506,0
DA:1507,0
DA:1508,0
DA:1511,0
DA:1512,0
DA:1513,65
DA:1514,65
DA:1515,66
DA:1517,66
DA:1518,65
DA:1519,0
DA:1520,0
DA:1521,0
DA:1522,65
DA:1524,65
DA:1526,49
DA:1529,98
DA:1530,49
DA:1531,49
DA:1532,49
DA:1533,49
DA:1534,49
DA:1536,49
DA:1537,49
DA:1539,0
DA:1540,0
DA:1541,0
DA:1545,49
DA:1546,49
DA:1547,49
DA:1548,0
DA:1549,0
DA:1550,0
DA:1552,0
DA:1557,16
DA:1558,16
DA:1560,0
DA:1563,16
DA:1564,0
DA:1565,0
DA:1566,0
DA:1569,65
DA:1571,65
DA:1580,2
DA:1584,2
DA:1585,2
DA:1586,2
DA:1587,2
DA:1589,0
DA:1592,2
DA:1595,2
DA:1596,2
DA:1597,2
DA:1598,2
DA:1600,2
DA:1601,2
DA:1602,0
DA:1603,0
DA:1604,0
DA:1606,2
DA:1608,2
DA:1609,2
DA:1610,2
DA:1611,2
DA:1612,2
DA:1613,0
DA:1614,0
DA:1615,0
DA:1616,2
DA:1619,2
DA:1620,2
DA:1621,2
DA:1622,2
DA:1629,3
DA:1630,3
DA:1631,3
DA:1632,3
DA:1633,3
DA:1634,3
DA:1635,3
DA:1636,0
DA:1637,0
DA:1638,0
DA:1639,3
DA:1641,3
DA:1642,3
DA:1643,3
DA:1654,0
DA:1656,0
DA:1660,0
DA:1661,0
DA:1662,0
DA:1663,0
DA:1664,0
DA:1665,0
DA:1667,0
DA:1668,0
DA:1669,0
DA:1671,0
DA:1675,0
DA:1676,0
DA:1679,0
DA:1680,0
DA:1684,0
DA:1685,0
DA:1686,0
DA:1696,0
DA:1697,0
DA:1698,0
DA:1701,0
DA:1706,0
DA:1707,0
DA:1708,0
DA:1709,0
DA:1710,0
DA:1711,0
DA:1712,0
DA:1714,0
DA:1716,0
DA:1717,0
DA:1718,0
DA:1719,0
DA:1720,0
DA:1721,0
DA:1723,0
DA:1724,0
DA:1725,0
DA:1726,0
DA:1729,0
DA:1730,0
DA:1731,0
DA:1732,0
DA:1733,0
DA:1734,0
DA:1736,0
DA:1737,0
DA:1738,0
DA:1745,0
DA:1746,0
DA:1747,0
DA:1748,0
DA:1749,0
DA:1750,0
DA:1751,0
DA:1752,0
DA:1753,0
DA:1754,0
DA:1755,0
DA:1756,0
DA:1758,0
DA:1759,0
DA:1760,0
DA:1761,0
DA:1763,0
DA:1777,2
DA:1778,2
DA:1779,2
DA:1780,1
DA:1782,1
DA:1783,1
DA:1784,0
DA:1787,0
DA:1788,0
DA:1790,0
DA:1792,0
DA:1793,0
DA:1796,0
DA:1797,0
DA:1798,0
DA:1800,0
DA:1801,2
DA:1808,0
DA:1809,0
DA:1810,0
DA:1811,0
DA:1812,0
DA:1813,0
DA:1814,0
DA:1815,0
DA:1816,0
DA:1820,0
DA:1821,0
DA:1822,0
DA:1824,0
DA:1825,0
DA:1826,0
DA:1827,0
DA:1829,0
DA:1833,0
DA:1834,0
DA:1837,0
DA:1840,0
DA:1842,0
DA:1843,0
DA:1844,0
DA:1850,0
DA:1852,0
DA:1853,0
DA:1854,0
DA:1855,0
DA:1856,0
DA:1857,0
DA:1859,0
DA:1861,0
DA:1862,0
DA:1863,0
DA:1864,0
DA:1865,0
DA:1866,0
DA:1867,0
DA:1868,0
DA:1869,0
DA:1870,0
DA:1871,0
DA:1873,0
DA:1874,0
DA:1881,12
DA:1882,12
DA:1883,12
DA:1884,12
DA:1885,12
DA:1886,12
DA:1887,11
DA:1888,12
DA:1889,12
DA:1890,12
DA:1891,12
DA:1892,1
DA:1893,1
DA:1894,1
DA:1896,11
DA:1898,2
DA:1899,2
DA:1900,2
DA:1901,2
DA:1904,5
DA:1905,5
DA:1906,5
DA:1907,5
DA:1910,0
DA:1912,0
DA:1913,0
DA:1914,0
DA:1916,4
DA:1917,4
DA:1918,4
DA:1919,4
DA:1922,0
DA:1923,0
DA:1924,0
DA:1925,0
DA:1930,11
DA:1933,11
DA:1934,0
DA:1935,0
DA:1936,0
DA:1937,0
DA:1940,11
DA:1941,11
DA:1943,0
DA:1944,0
DA:1945,0
DA:1946,0
DA:1949,0
DA:1950,0
DA:1952,0
DA:1953,0
DA:1954,0
DA:1955,0
DA:1956,0
DA:1959,11
DA:1963,11
DA:1964,11
DA:1965,11
DA:1966,0
DA:1967,0
DA:1968,0
DA:1969,0
DA:1970,0
DA:1971,0
DA:1974,11
DA:1975,12
DA:1982,11
DA:1983,11
DA:1984,11
DA:1985,11
DA:1986,11
DA:1987,11
DA:1988,11
DA:1989,11
DA:1990,11
DA:1991,11
DA:1992,11
DA:1993,0
DA:1994,0
DA:1995,0
DA:1997,11
DA:1998,11
DA:1999,11
DA:2000,11
DA:2003,11
DA:2007,11
DA:2008,11
DA:2009,11
DA:2010,11
DA:2011,11
DA:2012,0
DA:2013,0
DA:2014,0
DA:2015,0
DA:2018,11
DA:2019,11
DA:2026,14
DA:2027,14
DA:2028,14
DA:2029,14
DA:2030,14
DA:2031,14
DA:2032,0
DA:2033,0
DA:2034,0
DA:2035,14
DA:2038,14
DA:2041,13
DA:2042,13
DA:2043,0
DA:2045,13
DA:2046,13
DA:2053,5
DA:2054,5
DA:2055,5
DA:2056,5
DA:2064,5
DA:2065,5
DA:2066,5
DA:2067,5
DA:2068,5
DA:2071,5
DA:2072,5
DA:2073,5
DA:2074,5
DA:2077,5
DA:2078,5
DA:2079,0
DA:2080,0
DA:2083,5
DA:2086,5
DA:2087,5
DA:2088,5
DA:2089,5
DA:2091,5
DA:2093,5
DA:2094,5
DA:2095,5
DA:2097,5
DA:2098,5
DA:2101,38
DA:2102,38
DA:2103,38
DA:2104,38
DA:2105,38
DA:2106,38
DA:2109,38
DA:2110,38
DA:2111,38
DA:2112,38
DA:2113,38
DA:2114,38
DA:2115,38
DA:2118,51
DA:2119,51
DA:2120,51
DA:2124,5
DA:2125,5
DA:2126,5
DA:2129,5
DA:2130,5
DA:2131,0
DA:2132,0
DA:2135,5
DA:2136,5
DA:2137,5
DA:2138,5
DA:2141,5
DA:2152,19
DA:2154,19
DA:2155,19
DA:2156,0
DA:2159,0
DA:2160,0
DA:2161,0
DA:2164,0
DA:2165,19
DA:2180,2
DA:2181,2
DA:2182,2
DA:2183,2
DA:2184,2
DA:2185,2
DA:2186,2
DA:2189,2
DA:2192,2
DA:2195,2
DA:2196,0
DA:2197,0
DA:2198,0
DA:2200,2
DA:2201,2
DA:2202,0
DA:2203,0
DA:2207,2
DA:2208,2
DA:2209,0
DA:2210,0
DA:2211,0
DA:2218,2
DA:2219,0
DA:2220,0
DA:2221,0
DA:2223,2
DA:2224,2
DA:2225,0
DA:2229,2
DA:2230,2
DA:2231,0
DA:2232,0
DA:2233,0
DA:2239,2
DA:2241,2
DA:2242,2
DA:2243,2
DA:2244,2
DA:2245,2
DA:2246,2
DA:2247,2
DA:2248,2
DA:2250,2
DA:2255,2
DA:2257,2
DA:2259,2
DA:2260,2
DA:2261,2
DA:2262,2
DA:2263,2
DA:2264,2
DA:2265,2
DA:2269,2
DA:2270,0
DA:2271,0
DA:2272,0
DA:2275,0
DA:2276,2
DA:2278,2
DA:2279,0
DA:2283,2
DA:2284,0
DA:2285,0
DA:2286,0
DA:2287,0
DA:2289,2
DA:2290,2
DA:2291,2
DA:2293,2
DA:2294,0
DA:2299,2
DA:2302,5
DA:2303,5
DA:2304,2
DA:2305,2
DA:2306,3
DA:2307,5
DA:2308,5
DA:2309,5
DA:2312,2
DA:2313,2
DA:2314,2
DA:2317,0
DA:2318,0
DA:2319,0
DA:2322,6
DA:2323,6
DA:2324,6
DA:2327,0
DA:2328,0
DA:2329,0
DA:2330,0
DA:2332,0
DA:2334,0
DA:2336,5
DA:2337,5
DA:2338,5
DA:2339,5
DA:2341,30
DA:2342,30
DA:2343,20
DA:2344,15
DA:2345,15
DA:2346,10
DA:2347,5
DA:2348,0
DA:2350,5
DA:2351,10
DA:2354,5
DA:2355,1
DA:2356,1
DA:2357,1
DA:2358,1
DA:2359,4
DA:2361,4
DA:2362,5
BRF:0
BRH:0
LF:1548
LH:785
end_of_record
SF:/app/src/connection/state.rs
FN:42,_RNvMNtNtCslUrB7RWuRKg_8airplay210connection5stateNtB2_15ConnectionState12is_connected
FN:29,_RNvMNtNtCslUrB7RWuRKg_8airplay210connection5stateNtB2_15ConnectionState9is_active
FN:48,_RNvMNtNtCslUrB7RWuRKg_8airplay210connection5stateNtB2_15ConnectionState9is_failed
FN:134,_RNvMs_NtNtCslUrB7RWuRKg_8airplay210connection5stateNtB4_15ConnectionStats11record_sent
FN:139,_RNvMs_NtNtCslUrB7RWuRKg_8airplay210connection5stateNtB4_15ConnectionStats15record_received
FN:129,_RNvMs_NtNtCslUrB7RWuRKg_8airplay210connection5stateNtB4_15ConnectionStats6uptime
FN:130,_RNCNvMs_NtNtCslUrB7RWuRKg_8airplay210connection5stateNtB6_15ConnectionStats6uptime0Ba_
FN:130,_RNCNvMs_NtNtCs41oluKY1Omx_8airplay210connection5stateNtB6_15ConnectionStats6uptime0Ba_
FN:48,_RNvMNtNtCs41oluKY1Omx_8airplay210connection5stateNtB2_15ConnectionState9is_failed
FN:129,_RNvMs_NtNtCs41oluKY1Omx_8airplay210connection5stateNtB4_15ConnectionStats6uptime
FN:42,_RNvMNtNtCs41oluKY1Omx_8airplay210connection5stateNtB2_15ConnectionState12is_connected
FN:29,_RNvMNtNtCs41oluKY1Omx_8airplay210connection5stateNtB2_15ConnectionState9is_active
FN:134,_RNvMs_NtNtCs41oluKY1Omx_8airplay210connection5stateNtB4_15ConnectionStats11record_sent
FN:139,_RNvMs_NtNtCs41oluKY1Omx_8airplay210connection5stateNtB4_15ConnectionStats15record_received
FNDA:0,_RNvMNtNtCslUrB7RWuRKg_8airplay210connection5stateNtB2_15ConnectionState12is_connected
FNDA:6,_RNvMNtNtCslUrB7RWuRKg_8airplay210connection5stateNtB2_15ConnectionState9is_active
FNDA:0,_RNvMNtNtCslUrB7RWuRKg_8airplay210connection5stateNtB2_15ConnectionState9is_failed
FNDA:66,_RNvMs_NtNtCslUrB7RWuRKg_8airplay210connection5stateNtB4_15ConnectionStats11record_sent
FNDA:65,_RNvMs_NtNtCslUrB7RWuRKg_8airplay210connection5stateNtB4_15ConnectionStats15record_received
FNDA:0,_RNvMs_NtNtCslUrB7RWuRKg_8airplay210connection5stateNtB4_15ConnectionStats6uptime
FNDA:0,_RNCNvMs_NtNtCslUrB7RWuRKg_8airplay210connection5stateNtB6_15ConnectionStats6uptime0Ba_
FNDA:0,_RNCNvMs_NtNtCs41oluKY1Omx_8airplay210connection5stateNtB6_15ConnectionStats6uptime0Ba_
FNDA:0,_RNvMNtNtCs41oluKY1Omx_8airplay210connection5stateNtB2_15ConnectionState9is_failed
FNDA:0,_RNvMs_NtNtCs41oluKY1Omx_8airplay210connection5stateNtB4_15ConnectionStats6uptime
FNDA:2,_RNvMNtNtCs41oluKY1Omx_8airplay210connection5stateNtB2_15ConnectionState12is_connected
FNDA:7,_RNvMNtNtCs41oluKY1Omx_8airplay210connection5stateNtB2_15ConnectionState9is_active
FNDA:1,_RNvMs_NtNtCs41oluKY1Omx_8airplay210connection5stateNtB4_15ConnectionStats11record_sent
FNDA:1,_RNvMs_NtNtCs41oluKY1Omx_8airplay210connection5stateNtB4_15ConnectionStats15record_received
FNF:7
FNH:4
DA:29,13
DA:30,11
DA:31,13
DA:38,13
DA:42,2
DA:43,2
DA:44,2
DA:48,0
DA:49,0
DA:50,0
DA:53,0
DA:129,0
DA:130,0
DA:131,0
DA:134,67
DA:135,67
DA:136,67
DA:139,66
DA:140,66
DA:141,66
BRF:0
BRH:0
LF:21
LH:13
end_of_record
SF:/app/src/control/playback.rs
FN:326,_RNCNCNCNvMNtNtCslUrB7RWuRKg_8airplay27control8playbackNtB8_18PlaybackController12set_metadata000Bc_
FN:321,_RNCNCNvMNtNtCslUrB7RWuRKg_8airplay27control8playbackNtB6_18PlaybackController12set_metadata00Ba_
FN:369,_RNCNvMNtNtCslUrB7RWuRKg_8airplay27control8playbackNtB4_18PlaybackController10send_scrub0B8_
FN:270,_RNCNvMNtNtCslUrB7RWuRKg_8airplay27control8playbackNtB4_18PlaybackController10set_repeat0B8_
FN:285,_RNCNvMNtNtCslUrB7RWuRKg_8airplay27control8playbackNtB4_18PlaybackController11repeat_mode0B8_
FN:357,_RNCNvMNtNtCslUrB7RWuRKg_8airplay27control8playbackNtB4_18PlaybackController11set_artwork0B8_
FN:55,_RNCNvMNtNtCslUrB7RWuRKg_8airplay27control8playbackNtB4_18PlaybackController11set_playing0B8_
FN:294,_RNCNvMNtNtCslUrB7RWuRKg_8airplay27control8playbackNtB4_18PlaybackController11set_shuffle0B8_
FN:248,_RNCNvMNtNtCslUrB7RWuRKg_8airplay27control8playbackNtB4_18PlaybackController12fast_forward0B8_
FN:404,_RNCNvMNtNtCslUrB7RWuRKg_8airplay27control8playbackNtB4_18PlaybackController12send_command0B8_
FN:317,_RNCNvMNtNtCslUrB7RWuRKg_8airplay27control8playbackNtB4_18PlaybackController12set_metadata0B8_
FN:340,_RNCNvMNtNtCslUrB7RWuRKg_8airplay27control8playbackNtB4_18PlaybackController12set_progress0B8_
FN:308,_RNCNvMNtNtCslUrB7RWuRKg_8airplay27control8playbackNtB4_18PlaybackController12shuffle_mode0B8_
FN:224,_RNCNvMNtNtCslUrB7RWuRKg_8airplay27control8playbackNtB4_18PlaybackController13seek_relative0B8_
FN:391,_RNCNvMNtNtCslUrB7RWuRKg_8airplay27control8playbackNtB4_18PlaybackController13send_metadata0B8_
FN:193,_RNCNvMNtNtCslUrB7RWuRKg_8airplay27control8playbackNtB4_18PlaybackController4next0B8_
FN:211,_RNCNvMNtNtCslUrB7RWuRKg_8airplay27control8playbackNtB4_18PlaybackController4seek0B8_
FN:50,_RNCNvMNtNtCslUrB7RWuRKg_8airplay27control8playbackNtB4_18PlaybackController5state0B8_
FN:259,_RNCNvMNtNtCslUrB7RWuRKg_8airplay27control8playbackNtB4_18PlaybackController6rewind0B8_
FN:161,_RNCNvMNtNtCslUrB7RWuRKg_8airplay27control8playbackNtB4_18PlaybackController6toggle0B8_
FN:202,_RNCNvMNtNtCslUrB7RWuRKg_8airplay27control8playbackNtB4_18PlaybackController8previous0B8_
FN:369,_RNvMNtNtCslUrB7RWuRKg_8airplay27control8playbackNtB2_18PlaybackController10send_scrub
FN:270,_RNvMNtNtCslUrB7RWuRKg_8airplay27control8playbackNtB2_18PlaybackController10set_repeat
FN:285,_RNvMNtNtCslUrB7RWuRKg_8airplay27control8playbackNtB2_18PlaybackController11repeat_mode
FN:357,_RNvMNtNtCslUrB7RWuRKg_8airplay27control8playbackNtB2_18PlaybackController11set_artwork
FN:55,_RNvMNtNtCslUrB7RWuRKg_8airplay27control8playbackNtB2_18PlaybackController11set_playing
FN:294,_RNvMNtNtCslUrB7RWuRKg_8airplay27control8playbackNtB2_18PlaybackController11set_shuffle
FN:248,_RNvMNtNtCslUrB7RWuRKg_8airplay27control8playbackNtB2_18PlaybackController12fast_forward
FN:404,_RNvMNtNtCslUrB7RWuRKg_8airplay27control8playbackNtB2_18PlaybackController12send_command
FN:317,_RNvMNtNtCslUrB7RWuRKg_8airplay27control8playbackNtB2_18PlaybackController12set_metadata
FN:340,_RNvMNtNtCslUrB7RWuRKg_8airplay27control8playbackNtB2_18PlaybackController12set_progress
FN:308,_RNvMNtNtCslUrB7RWuRKg_8airplay27control8playbackNtB2_18PlaybackController12shuffle_mode
FN:224,_RNvMNtNtCslUrB7RWuRKg_8airplay27control8playbackNtB2_18PlaybackController13seek_relative
FN:391,_RNvMNtNtCslUrB7RWuRKg_8airplay27control8playbackNtB2_18PlaybackController13send_metadata
FN:40,_RNvMNtNtCslUrB7RWuRKg_8airplay27control8playbackNtB2_18PlaybackController3new
FN:193,_RNvMNtNtCslUrB7RWuRKg_8airplay27control8playbackNtB2_18PlaybackController4next
FN:74,_RNvMNtNtCslUrB7RWuRKg_8airplay27control8playbackNtB2_18PlaybackController4play
FN:211,_RNvMNtNtCslUrB7RWuRKg_8airplay27control8playbackNtB2_18PlaybackController4seek
FN:175,_RNvMNtNtCslUrB7RWuRKg_8airplay27control8playbackNtB2_18PlaybackController4stop
FN:129,_RNvMNtNtCslUrB7RWuRKg_8airplay27control8playbackNtB2_18PlaybackController5pause
FN:50,_RNvMNtNtCslUrB7RWuRKg_8airplay27control8playbackNtB2_18PlaybackController5state
FN:259,_RNvMNtNtCslUrB7RWuRKg_8airplay27control8playbackNtB2_18PlaybackController6rewind
FN:161,_RNvMNtNtCslUrB7RWuRKg_8airplay27control8playbackNtB2_18PlaybackController6toggle
FN:202,_RNvMNtNtCslUrB7RWuRKg_8airplay27control8playbackNtB2_18PlaybackController8previous
FN:428,_RNvMs_NtNtCslUrB7RWuRKg_8airplay27control8playbackNtB4_16PlaybackProgress8progress
FN:438,_RNvMs_NtNtCslUrB7RWuRKg_8airplay27control8playbackNtB4_16PlaybackProgress9remaining
FN:107,_RNCNCNvMNtNtCslUrB7RWuRKg_8airplay27control8playbackNtB6_18PlaybackController4play00Ba_
FN:140,_RNCNCNvMNtNtCslUrB7RWuRKg_8airplay27control8playbackNtB6_18PlaybackController5pause00Ba_
FN:74,_RNCNvMNtNtCslUrB7RWuRKg_8airplay27control8playbackNtB4_18PlaybackController4play0B8_
FN:175,_RNCNvMNtNtCslUrB7RWuRKg_8airplay27control8playbackNtB4_18PlaybackController4stop0B8_
FN:129,_RNCNvMNtNtCslUrB7RWuRKg_8airplay27control8playbackNtB4_18PlaybackController5pause0B8_
FN:326,_RNCNCNCNvMNtNtCs41oluKY1Omx_8airplay27control8playbackNtB8_18PlaybackController12set_metadata000Bc_
FN:321,_RNCNCNvMNtNtCs41oluKY1Omx_8airplay27control8playbackNtB6_18PlaybackController12set_metadata00Ba_
FN:357,_RNCNvMNtNtCs41oluKY1Omx_8airplay27control8playbackNtB4_18PlaybackController11set_artwork0B8_
FN:55,_RNCNvMNtNtCs41oluKY1Omx_8airplay27control8playbackNtB4_18PlaybackController11set_playing0B8_
FN:248,_RNCNvMNtNtCs41oluKY1Omx_8airplay27control8playbackNtB4_18PlaybackController12fast_forward0B8_
FN:317,_RNCNvMNtNtCs41oluKY1Omx_8airplay27control8playbackNtB4_18PlaybackController12set_metadata0B8_
FN:224,_RNCNvMNtNtCs41oluKY1Omx_8airplay27control8playbackNtB4_18PlaybackController13seek_relative0B8_
FN:391,_RNCNvMNtNtCs41oluKY1Omx_8airplay27control8playbackNtB4_18PlaybackController13send_metadata0B8_
FN:193,_RNCNvMNtNtCs41oluKY1Omx_8airplay27control8playbackNtB4_18PlaybackController4next0B8_
FN:259,_RNCNvMNtNtCs41oluKY1Omx_8airplay27control8playbackNtB4_18PlaybackController6rewind0B8_
FN:161,_RNCNvMNtNtCs41oluKY1Omx_8airplay27control8playbackNtB4_18PlaybackController6toggle0B8_
FN:202,_RNCNvMNtNtCs41oluKY1Omx_8airplay27control8playbackNtB4_18PlaybackController8previous0B8_
FN:357,_RNvMNtNtCs41oluKY1Omx_8airplay27control8playbackNtB2_18PlaybackController11set_artwork
FN:55,_RNvMNtNtCs41oluKY1Omx_8airplay27control8playbackNtB2_18PlaybackController11set_playing
FN:248,_RNvMNtNtCs41oluKY1Omx_8airplay27control8playbackNtB2_18PlaybackController12fast_forward
FN:317,_RNvMNtNtCs41oluKY1Omx_8airplay27control8playbackNtB2_18PlaybackController12set_metadata
FN:224,_RNvMNtNtCs41oluKY1Omx_8airplay27control8playbackNtB2_18PlaybackController13seek_relative
FN:391,_RNvMNtNtCs41oluKY1Omx_8airplay27control8playbackNtB2_18PlaybackController13send_metadata
FN:193,_RNvMNtNtCs41oluKY1Omx_8airplay27control8playbackNtB2_18PlaybackController4next
FN:259,_RNvMNtNtCs41oluKY1Omx_8airplay27control8playbackNtB2_18PlaybackController6rewind
FN:161,_RNvMNtNtCs41oluKY1Omx_8airplay27control8playbackNtB2_18PlaybackController6toggle
FN:202,_RNvMNtNtCs41oluKY1Omx_8airplay27control8playbackNtB2_18PlaybackController8previous
FN:107,_RNCNCNvMNtNtCs41oluKY1Omx_8airplay27control8playbackNtB6_18PlaybackController4play00Ba_
FN:140,_RNCNCNvMNtNtCs41oluKY1Omx_8airplay27control8playbackNtB6_18PlaybackController5pause00Ba_
FN:369,_RNCNvMNtNtCs41oluKY1Omx_8airplay27control8playbackNtB4_18PlaybackController10send_scrub0B8_
FN:270,_RNCNvMNtNtCs41oluKY1Omx_8airplay27control8playbackNtB4_18PlaybackController10set_repeat0B8_
FN:285,_RNCNvMNtNtCs41oluKY1Omx_8airplay27control8playbackNtB4_18PlaybackController11repeat_mode0B8_
FN:294,_RNCNvMNtNtCs41oluKY1Omx_8airplay27control8playbackNtB4_18PlaybackController11set_shuffle0B8_
FN:404,_RNCNvMNtNtCs41oluKY1Omx_8airplay27control8playbackNtB4_18PlaybackController12send_command0B8_
FN:340,_RNCNvMNtNtCs41oluKY1Omx_8airplay27control8playbackNtB4_18PlaybackController12set_progress0B8_
FN:308,_RNCNvMNtNtCs41oluKY1Omx_8airplay27control8playbackNtB4_18PlaybackController12shuffle_mode0B8_
FN:74,_RNCNvMNtNtCs41oluKY1Omx_8airplay27control8playbackNtB4_18PlaybackController4play0B8_
FN:211,_RNCNvMNtNtCs41oluKY1Omx_8airplay27control8playbackNtB4_18PlaybackController4seek0B8_
FN:175,_RNCNvMNtNtCs41oluKY1Omx_8airplay27control8playbackNtB4_18PlaybackController4stop0B8_
FN:129,_RNCNvMNtNtCs41oluKY1Omx_8airplay27control8playbackNtB4_18PlaybackController5pause0B8_
FN:50,_RNCNvMNtNtCs41oluKY1Omx_8airplay27control8playbackNtB4_18PlaybackController5state0B8_
FN:369,_RNvMNtNtCs41oluKY1Omx_8airplay27control8playbackNtB2_18PlaybackController10send_scrub
FN:270,_RNvMNtNtCs41oluKY1Omx_8airplay27control8playbackNtB2_18PlaybackController10set_repeat
FN:285,_RNvMNtNtCs41oluKY1Omx_8airplay27control8playbackNtB2_18PlaybackController11repeat_mode
FN:294,_RNvMNtNtCs41oluKY1Omx_8airplay27control8playbackNtB2_18PlaybackController11set_shuffle
FN:404,_RNvMNtNtCs41oluKY1Omx_8airplay27control8playbackNtB2_18PlaybackController12send_command
FN:340,_RNvMNtNtCs41oluKY1Omx_8airplay27control8playbackNtB2_18PlaybackController12set_progress
FN:308,_RNvMNtNtCs41oluKY1Omx_8airplay27control8playbackNtB2_18PlaybackController12shuffle_mode
FN:40,_RNvMNtNtCs41oluKY1Omx_8airplay27control8playbackNtB2_18PlaybackController3new
FN:74,_RNvMNtNtCs41oluKY1Omx_8airplay27control8playbackNtB2_18PlaybackController4play
FN:211,_RNvMNtNtCs41oluKY1Omx_8airplay27control8playbackNtB2_18PlaybackController4seek
FN:175,_RNvMNtNtCs41oluKY1Omx_8airplay27control8playbackNtB2_18PlaybackController4stop
FN:129,_RNvMNtNtCs41oluKY1Omx_8airplay27control8playbackNtB2_18PlaybackController5pause
FN:50,_RNvMNtNtCs41oluKY1Omx_8airplay27control8playbackNtB2_18PlaybackController5state
FN:428,_RNvMs_NtNtCs41oluKY1Omx_8airplay27control8playbackNtB4_16PlaybackProgress8progress
FN:438,_RNvMs_NtNtCs41oluKY1Omx_8airplay27control8playbackNtB4_16PlaybackProgress9remaining
FN:369,_RNCNvMNtNtCslUrB7RWuRKg_8airplay27control8playbackNtB4_18PlaybackController10send_scrub0CsjZ7WIzFe7Th_18player_integration
FN:270,_RNCNvMNtNtCslUrB7RWuRKg_8airplay27control8playbackNtB4_18PlaybackController10set_repeat0CsjZ7WIzFe7Th_18player_integration
FN:294,_RNCNvMNtNtCslUrB7RWuRKg_8airplay27control8playbackNtB4_18PlaybackController11set_shuffle0CsjZ7WIzFe7Th_18player_integration
FN:404,_RNCNvMNtNtCslUrB7RWuRKg_8airplay27control8playbackNtB4_18PlaybackController12send_command0CsjZ7WIzFe7Th_18player_integration
FN:340,_RNCNvMNtNtCslUrB7RWuRKg_8airplay27control8playbackNtB4_18PlaybackController12set_progress0CsjZ7WIzFe7Th_18player_integration
FN:193,_RNCNvMNtNtCslUrB7RWuRKg_8airplay27control8playbackNtB4_18PlaybackController4next0CsjZ7WIzFe7Th_18player_integration
FN:211,_RNCNvMNtNtCslUrB7RWuRKg_8airplay27control8playbackNtB4_18PlaybackController4seek0CsjZ7WIzFe7Th_18player_integration
FNDA:0,_RNCNCNCNvMNtNtCslUrB7RWuRKg_8airplay27control8playbackNtB8_18PlaybackController12set_metadata000Bc_
FNDA:0,_RNCNCNvMNtNtCslUrB7RWuRKg_8airplay27control8playbackNtB6_18PlaybackController12set_metadata00Ba_
FNDA:0,_RNCNvMNtNtCslUrB7RWuRKg_8airplay27control8playbackNtB4_18PlaybackController10send_scrub0B8_
FNDA:0,_RNCNvMNtNtCslUrB7RWuRKg_8airplay27control8playbackNtB4_18PlaybackController10set_repeat0B8_
FNDA:0,_RNCNvMNtNtCslUrB7RWuRKg_8airplay27control8playbackNtB4_18PlaybackController11repeat_mode0B8_
FNDA:0,_RNCNvMNtNtCslUrB7RWuRKg_8airplay27control8playbackNtB4_18PlaybackController11set_artwork0B8_
FNDA:0,_RNCNvMNtNtCslUrB7RWuRKg_8airplay27control8playbackNtB4_18PlaybackController11set_playing0B8_
FNDA:0,_RNCNvMNtNtCslUrB7RWuRKg_8airplay27control8playbackNtB4_18PlaybackController11set_shuffle0B8_
FNDA:0,_RNCNvMNtNtCslUrB7RWuRKg_8airplay27control8playbackNtB4_18PlaybackController12fast_forward0B8_
FNDA:0,_RNCNvMNtNtCslUrB7RWuRKg_8airplay27control8playbackNtB4_18PlaybackController12send_command0B8_
FNDA:0,_RNCNvMNtNtCslUrB7RWuRKg_8airplay27control8playbackNtB4_18PlaybackController12set_metadata0B8_
FNDA:0,_RNCNvMNtNtCslUrB7RWuRKg_8airplay27control8playbackNtB4_18PlaybackController12set_progress0B8_
FNDA:0,_RNCNvMNtNtCslUrB7RWuRKg_8airplay27control8playbackNtB4_18PlaybackController12shuffle_mode0B8_
FNDA:0,_RNCNvMNtNtCslUrB7RWuRKg_8airplay27control8playbackNtB4_18PlaybackController13seek_relative0B8_
FNDA:0,_RNCNvMNtNtCslUrB7RWuRKg_8airplay27control8playbackNtB4_18PlaybackController13send_metadata0B8_
FNDA:0,_RNCNvMNtNtCslUrB7RWuRKg_8airplay27control8playbackNtB4_18PlaybackController4next0B8_
FNDA:0,_RNCNvMNtNtCslUrB7RWuRKg_8airplay27control8playbackNtB4_18PlaybackController4seek0B8_
FNDA:0,_RNCNvMNtNtCslUrB7RWuRKg_8airplay27control8playbackNtB4_18PlaybackController5state0B8_
FNDA:0,_RNCNvMNtNtCslUrB7RWuRKg_8airplay27control8playbackNtB4_18PlaybackController6rewind0B8_
FNDA:0,_RNCNvMNtNtCslUrB7RWuRKg_8airplay27control8playbackNtB4_18PlaybackController6toggle0B8_
FNDA:0,_RNCNvMNtNtCslUrB7RWuRKg_8airplay27control8playbackNtB4_18PlaybackController8previous0B8_
FNDA:1,_RNvMNtNtCslUrB7RWuRKg_8airplay27control8playbackNtB2_18PlaybackController10send_scrub
FNDA:3,_RNvMNtNtCslUrB7RWuRKg_8airplay27control8playbackNtB2_18PlaybackController10set_repeat
FNDA:0,_RNvMNtNtCslUrB7RWuRKg_8airplay27control8playbackNtB2_18PlaybackController11repeat_mode
FNDA:0,_RNvMNtNtCslUrB7RWuRKg_8airplay27control8playbackNtB2_18PlaybackController11set_artwork
FNDA:0,_RNvMNtNtCslUrB7RWuRKg_8airplay27control8playbackNtB2_18PlaybackController11set_playing
FNDA:2,_RNvMNtNtCslUrB7RWuRKg_8airplay27control8playbackNtB2_18PlaybackController11set_shuffle
FNDA:0,_RNvMNtNtCslUrB7RWuRKg_8airplay27control8playbackNtB2_18PlaybackController12fast_forward
FNDA:6,_RNvMNtNtCslUrB7RWuRKg_8airplay27control8playbackNtB2_18PlaybackController12send_command
FNDA:0,_RNvMNtNtCslUrB7RWuRKg_8airplay27control8playbackNtB2_18PlaybackController12set_metadata
FNDA:1,_RNvMNtNtCslUrB7RWuRKg_8airplay27control8playbackNtB2_18PlaybackController12set_progress
FNDA:0,_RNvMNtNtCslUrB7RWuRKg_8airplay27control8playbackNtB2_18PlaybackController12shuffle_mode
FNDA:0,_RNvMNtNtCslUrB7RWuRKg_8airplay27control8playbackNtB2_18PlaybackController13seek_relative
FNDA:0,_RNvMNtNtCslUrB7RWuRKg_8airplay27control8playbackNtB2_18PlaybackController13send_metadata
FNDA:5,_RNvMNtNtCslUrB7RWuRKg_8airplay27control8playbackNtB2_18PlaybackController3new
FNDA:1,_RNvMNtNtCslUrB7RWuRKg_8airplay27control8playbackNtB2_18PlaybackController4next
FNDA:2,_RNvMNtNtCslUrB7RWuRKg_8airplay27control8playbackNtB2_18PlaybackController4play
FNDA:1,_RNvMNtNtCslUrB7RWuRKg_8airplay27control8playbackNtB2_18PlaybackController4seek
FNDA:0,_RNvMNtNtCslUrB7RWuRKg_8airplay27control8playbackNtB2_18PlaybackController4stop
FNDA:2,_RNvMNtNtCslUrB7RWuRKg_8airplay27control8playbackNtB2_18PlaybackController5pause
FNDA:0,_RNvMNtNtCslUrB7RWuRKg_8airplay27control8playbackNtB2_18PlaybackController5state
FNDA:0,_RNvMNtNtCslUrB7RWuRKg_8airplay27control8playbackNtB2_18PlaybackController6rewind
FNDA:0,_RNvMNtNtCslUrB7RWuRKg_8airplay27control8playbackNtB2_18PlaybackController6toggle
FNDA:0,_RNvMNtNtCslUrB7RWuRKg_8airplay27control8playbackNtB2_18PlaybackController8previous
FNDA:0,_RNvMs_NtNtCslUrB7RWuRKg_8airplay27control8playbackNtB4_16PlaybackProgress8progress
FNDA:0,_RNvMs_NtNtCslUrB7RWuRKg_8airplay27control8playbackNtB4_16PlaybackProgress9remaining
FNDA:0,_RNCNCNvMNtNtCslUrB7RWuRKg_8airplay27control8playbackNtB6_18PlaybackController4play00Ba_
FNDA:0,_RNCNCNvMNtNtCslUrB7RWuRKg_8airplay27control8playbackNtB6_18PlaybackController5pause00Ba_
FNDA:2,_RNCNvMNtNtCslUrB7RWuRKg_8airplay27control8playbackNtB4_18PlaybackController4play0B8_
FNDA:0,_RNCNvMNtNtCslUrB7RWuRKg_8airplay27control8playbackNtB4_18PlaybackController4stop0B8_
FNDA:2,_RNCNvMNtNtCslUrB7RWuRKg_8airplay27control8playbackNtB4_18PlaybackController5pause0B8_
FNDA:0,_RNCNCNCNvMNtNtCs41oluKY1Omx_8airplay27control8playbackNtB8_18PlaybackController12set_metadata000Bc_
FNDA:0,_RNCNCNvMNtNtCs41oluKY1Omx_8airplay27control8playbackNtB6_18PlaybackController12set_metadata00Ba_
FNDA:0,_RNCNvMNtNtCs41oluKY1Omx_8airplay27control8playbackNtB4_18PlaybackController11set_artwork0B8_
FNDA:0,_RNCNvMNtNtCs41oluKY1Omx_8airplay27control8playbackNtB4_18PlaybackController11set_playing0B8_
FNDA:0,_RNCNvMNtNtCs41oluKY1Omx_8airplay27control8playbackNtB4_18PlaybackController12fast_forward0B8_
FNDA:0,_RNCNvMNtNtCs41oluKY1Omx_8airplay27control8playbackNtB4_18PlaybackController12set_metadata0B8_
FNDA:0,_RNCNvMNtNtCs41oluKY1Omx_8airplay27control8playbackNtB4_18PlaybackController13seek_relative0B8_
FNDA:0,_RNCNvMNtNtCs41oluKY1Omx_8airplay27control8playbackNtB4_18PlaybackController13send_metadata0B8_
FNDA:0,_RNCNvMNtNtCs41oluKY1Omx_8airplay27control8playbackNtB4_18PlaybackController4next0B8_
FNDA:0,_RNCNvMNtNtCs41oluKY1Omx_8airplay27control8playbackNtB4_18PlaybackController6rewind0B8_
FNDA:0,_RNCNvMNtNtCs41oluKY1Omx_8airplay27control8playbackNtB4_18PlaybackController6toggle0B8_
FNDA:0,_RNCNvMNtNtCs41oluKY1Omx_8airplay27control8playbackNtB4_18PlaybackController8previous0B8_
FNDA:0,_RNvMNtNtCs41oluKY1Omx_8airplay27control8playbackNtB2_18PlaybackController11set_artwork
FNDA:0,_RNvMNtNtCs41oluKY1Omx_8airplay27control8playbackNtB2_18PlaybackController11set_playing
FNDA:0,_RNvMNtNtCs41oluKY1Omx_8airplay27control8playbackNtB2_18PlaybackController12fast_forward
FNDA:0,_RNvMNtNtCs41oluKY1Omx_8airplay27control8playbackNtB2_18PlaybackController12set_metadata
FNDA:0,_RNvMNtNtCs41oluKY1Omx_8airplay27control8playbackNtB2_18PlaybackController13seek_relative
FNDA:0,_RNvMNtNtCs41oluKY1Omx_8airplay27control8playbackNtB2_18PlaybackController13send_metadata
FNDA:0,_RNvMNtNtCs41oluKY1Omx_8airplay27control8playbackNtB2_18PlaybackController4next
FNDA:0,_RNvMNtNtCs41oluKY1Omx_8airplay27control8playbackNtB2_18PlaybackController6rewind
FNDA:0,_RNvMNtNtCs41oluKY1Omx_8airplay27control8playbackNtB2_18PlaybackController6toggle
FNDA:0,_RNvMNtNtCs41oluKY1Omx_8airplay27control8playbackNtB2_18PlaybackController8previous
FNDA:0,_RNCNCNvMNtNtCs41oluKY1Omx_8airplay27control8playbackNtB6_18PlaybackController4play00Ba_
FNDA:0,_RNCNCNvMNtNtCs41oluKY1Omx_8airplay27control8playbackNtB6_18PlaybackController5pause00Ba_
FNDA:1,_RNCNvMNtNtCs41oluKY1Omx_8airplay27control8playbackNtB4_18PlaybackController10send_scrub0B8_
FNDA:0,_RNCNvMNtNtCs41oluKY1Omx_8airplay27control8playbackNtB4_18PlaybackController10set_repeat0B8_
FNDA:1,_RNCNvMNtNtCs41oluKY1Omx_8airplay27control8playbackNtB4_18PlaybackController11repeat_mode0B8_
FNDA:0,_RNCNvMNtNtCs41oluKY1Omx_8airplay27control8playbackNtB4_18PlaybackController11set_shuffle0B8_
FNDA:0,_RNCNvMNtNtCs41oluKY1Omx_8airplay27control8playbackNtB4_18PlaybackController12send_command0B8_
FNDA:1,_RNCNvMNtNtCs41oluKY1Omx_8airplay27control8playbackNtB4_18PlaybackController12set_progress0B8_
FNDA:1,_RNCNvMNtNtCs41oluKY1Omx_8airplay27control8playbackNtB4_18PlaybackController12shuffle_mode0B8_
FNDA:0,_RNCNvMNtNtCs41oluKY1Omx_8airplay27control8playbackNtB4_18PlaybackController4play0B8_
FNDA:1,_RNCNvMNtNtCs41oluKY1Omx_8airplay27control8playbackNtB4_18PlaybackController4seek0B8_
FNDA:0,_RNCNvMNtNtCs41oluKY1Omx_8airplay27control8playbackNtB4_18PlaybackController4stop0B8_
FNDA:0,_RNCNvMNtNtCs41oluKY1Omx_8airplay27control8playbackNtB4_18PlaybackController5pause0B8_
FNDA:1,_RNCNvMNtNtCs41oluKY1Omx_8airplay27control8playbackNtB4_18PlaybackController5state0B8_
FNDA:1,_RNvMNtNtCs41oluKY1Omx_8airplay27control8playbackNtB2_18PlaybackController10send_scrub
FNDA:0,_RNvMNtNtCs41oluKY1Omx_8airplay27control8playbackNtB2_18PlaybackController10set_repeat
FNDA:1,_RNvMNtNtCs41oluKY1Omx_8airplay27control8playbackNtB2_18PlaybackController11repeat_mode
FNDA:0,_RNvMNtNtCs41oluKY1Omx_8airplay27control8playbackNtB2_18PlaybackController11set_shuffle
FNDA:0,_RNvMNtNtCs41oluKY1Omx_8airplay27control8playbackNtB2_18PlaybackController12send_command
FNDA:1,_RNvMNtNtCs41oluKY1Omx_8airplay27control8playbackNtB2_18PlaybackController12set_progress
FNDA:1,_RNvMNtNtCs41oluKY1Omx_8airplay27control8playbackNtB2_18PlaybackController12shuffle_mode
FNDA:27,_RNvMNtNtCs41oluKY1Omx_8airplay27control8playbackNtB2_18PlaybackController3new
FNDA:0,_RNvMNtNtCs41oluKY1Omx_8airplay27control8playbackNtB2_18PlaybackController4play
FNDA:1,_RNvMNtNtCs41oluKY1Omx_8airplay27control8playbackNtB2_18PlaybackController4seek
FNDA:0,_RNvMNtNtCs41oluKY1Omx_8airplay27control8playbackNtB2_18PlaybackController4stop
FNDA:0,_RNvMNtNtCs41oluKY1Omx_8airplay27control8playbackNtB2_18PlaybackController5pause
FNDA:1,_RNvMNtNtCs41oluKY1Omx_8airplay27control8playbackNtB2_18PlaybackController5state
FNDA:3,_RNvMs_NtNtCs41oluKY1Omx_8airplay27control8playbackNtB4_16PlaybackProgress8progress
FNDA:2,_RNvMs_NtNtCs41oluKY1Omx_8airplay27control8playbackNtB4_16PlaybackProgress9remaining
FNDA:1,_RNCNvMNtNtCslUrB7RWuRKg_8airplay27control8playbackNtB4_18PlaybackController10send_scrub0CsjZ7WIzFe7Th_18player_integration
FNDA:3,_RNCNvMNtNtCslUrB7RWuRKg_8airplay27control8playbackNtB4_18PlaybackController10set_repeat0CsjZ7WIzFe7Th_18player_integration
FNDA:2,_RNCNvMNtNtCslUrB7RWuRKg_8airplay27control8playbackNtB4_18PlaybackController11set_shuffle0CsjZ7WIzFe7Th_18player_integration
FNDA:6,_RNCNvMNtNtCslUrB7RWuRKg_8airplay27control8playbackNtB4_18PlaybackController12send_command0CsjZ7WIzFe7Th_18player_integration
FNDA:1,_RNCNvMNtNtCslUrB7RWuRKg_8airplay27control8playbackNtB4_18PlaybackController12set_progress0CsjZ7WIzFe7Th_18player_integration
FNDA:1,_RNCNvMNtNtCslUrB7RWuRKg_8airplay27control8playbackNtB4_18PlaybackController4next0CsjZ7WIzFe7Th_18player_integration
FNDA:1,_RNCNvMNtNtCslUrB7RWuRKg_8airplay27control8playbackNtB4_18PlaybackController4seek0CsjZ7WIzFe7Th_18player_integration
FNF:51
FNH:27
DA:40,32
DA:41,32
DA:42,32
DA:43,32
DA:44,32
DA:45,32
DA:46,32
DA:47,32
DA:50,1
DA:51,1
DA:52,1
DA:55,0
DA:56,0
DA:57,0
DA:74,2
DA:75,2
DA:77,2
DA:78,2
DA:79,2
DA:80,2
DA:83,2
DA:84,0
DA:85,0
DA:86,0
DA:89,0
DA:90,0
DA:93,0
DA:94,0
DA:95,0
DA:96,0
DA:98,2
DA:99,1
DA:100,1
DA:104,2
DA:105,2
DA:106,2
DA:107,0
DA:108,0
DA:109,0
DA:111,2
DA:112,2
DA:113,2
DA:114,2
DA:115,2
DA:116,2
DA:117,2
DA:118,2
DA:119,0
DA:121,2
DA:122,2
DA:129,2
DA:130,2
DA:134,2
DA:135,2
DA:136,2
DA:137,2
DA:138,2
DA:139,2
DA:140,0
DA:141,0
DA:142,0
DA:144,2
DA:145,2
DA:146,2
DA:147,2
DA:148,2
DA:149,2
DA:150,2
DA:151,2
DA:153,2
DA:154,2
DA:161,0
DA:162,0
DA:163,0
DA:164,0
DA:166,0
DA:168,0
DA:175,0
DA:176,0
DA:177,0
DA:178,0
DA:180,0
DA:181,0
DA:182,0
DA:185,0
DA:186,0
DA:193,1
DA:194,1
DA:195,1
DA:202,0
DA:203,0
DA:204,0
DA:211,2
DA:212,2
DA:214,1
DA:215,1
DA:216,1
DA:217,2
DA:224,0
DA:227,0
DA:229,0
DA:230,0
DA:232,0
DA:235,0
DA:238,0
DA:239,0
DA:240,0
DA:241,0
DA:248,0
DA:251,0
DA:252,0
DA:259,0
DA:262,0
DA:263,0
DA:270,3
DA:271,3
DA:272,1
DA:273,1
DA:274,1
DA:276,3
DA:278,3
DA:279,3
DA:280,3
DA:281,3
DA:282,3
DA:285,1
DA:286,1
DA:287,1
DA:294,2
DA:295,2
DA:296,1
DA:297,1
DA:299,2
DA:301,2
DA:302,2
DA:303,2
DA:304,2
DA:305,2
DA:308,1
DA:309,1
DA:310,1
DA:317,0
DA:318,0
DA:319,0
DA:320,0
DA:321,0
DA:322,0
DA:323,0
DA:324,0
DA:325,0
DA:326,0
DA:327,0
DA:328,0
DA:329,0
DA:330,0
DA:331,0
DA:332,0
DA:333,0
DA:340,2
DA:341,2
DA:342,2
DA:343,2
DA:344,2
DA:345,2
DA:346,2
DA:347,2
DA:348,2
DA:349,1
DA:350,2
DA:357,0
DA:358,0
DA:359,0
DA:360,0
DA:361,0
DA:362,0
DA:363,0
DA:364,0
DA:365,0
DA:366,0
DA:369,2
DA:373,2
DA:379,2
DA:381,2
DA:382,2
DA:383,2
DA:384,2
DA:387,2
DA:388,2
DA:391,0
DA:392,0
DA:393,0
DA:394,0
DA:395,0
DA:396,0
DA:397,0
DA:398,0
DA:399,0
DA:400,0
DA:401,0
DA:404,6
DA:406,6
DA:409,6
DA:410,6
DA:411,6
DA:428,3
DA:429,3
DA:430,1
DA:432,2
DA:434,3
DA:438,2
DA:439,2
DA:440,2
BRF:0
BRH:0
LF:237
LH:133
end_of_record
SF:/app/src/control/queue.rs
FN:92,_RNCNvMNtNtCslUrB7RWuRKg_8airplay27control5queueNtB4_13PlaybackQueue6remove0B8_
FN:111,_RNCNvMNtNtCslUrB7RWuRKg_8airplay27control5queueNtB4_13PlaybackQueue6removes_0B8_
FN:217,_RNCNvMNtNtCslUrB7RWuRKg_8airplay27control5queueNtB4_13PlaybackQueue7advance0B8_
FN:218,_RNCNvMNtNtCslUrB7RWuRKg_8airplay27control5queueNtB4_13PlaybackQueue7advances_0B8_
FN:172,_RNCNvMNtNtCslUrB7RWuRKg_8airplay27control5queueNtB4_13PlaybackQueue7current0B8_
FN:268,_RNCNvMNtNtCslUrB7RWuRKg_8airplay27control5queueNtB4_13PlaybackQueue7shuffle0B8_
FN:197,_RNCNvMNtNtCslUrB7RWuRKg_8airplay27control5queueNtB4_13PlaybackQueue7skip_to0B8_
FN:86,_RNCNvMNtNtCslUrB7RWuRKg_8airplay27control5queueNtB4_13PlaybackQueue8add_next0B8_
FN:233,_RNCNvMNtNtCslUrB7RWuRKg_8airplay27control5queueNtB4_13PlaybackQueue8previous0B8_
FN:248,_RNCNvMNtNtCslUrB7RWuRKg_8airplay27control5queueNtB4_13PlaybackQueue8previouss_0B8_
FN:331,_RNCNvMNtNtCslUrB7RWuRKg_8airplay27control5queueNtB4_13PlaybackQueue8upcoming0B8_
FN:337,_RNCNvMNtNtCslUrB7RWuRKg_8airplay27control5queueNtB4_13PlaybackQueue8upcomings_0B8_
FN:317,_RNCNvMNtNtCslUrB7RWuRKg_8airplay27control5queueNtB4_13PlaybackQueue9get_by_id0B8_
FN:124,_RNvMNtNtCslUrB7RWuRKg_8airplay27control5queueNtB2_13PlaybackQueue10move_track
FN:286,_RNvMNtNtCslUrB7RWuRKg_8airplay27control5queueNtB2_13PlaybackQueue11is_shuffled
FN:182,_RNvMNtNtCslUrB7RWuRKg_8airplay27control5queueNtB2_13PlaybackQueue11set_current
FN:177,_RNvMNtNtCslUrB7RWuRKg_8airplay27control5queueNtB2_13PlaybackQueue13current_index
FN:321,_RNvMNtNtCslUrB7RWuRKg_8airplay27control5queueNtB2_13PlaybackQueue14add_to_history
FN:39,_RNvMNtNtCslUrB7RWuRKg_8airplay27control5queueNtB2_13PlaybackQueue3add
FN:310,_RNvMNtNtCslUrB7RWuRKg_8airplay27control5queueNtB2_13PlaybackQueue3get
FN:292,_RNvMNtNtCslUrB7RWuRKg_8airplay27control5queueNtB2_13PlaybackQueue3len
FN:27,_RNvMNtNtCslUrB7RWuRKg_8airplay27control5queueNtB2_13PlaybackQueue3new
FN:162,_RNvMNtNtCslUrB7RWuRKg_8airplay27control5queueNtB2_13PlaybackQueue5clear
FN:304,_RNvMNtNtCslUrB7RWuRKg_8airplay27control5queueNtB2_13PlaybackQueue5items
FN:54,_RNvMNtNtCslUrB7RWuRKg_8airplay27control5queueNtB2_13PlaybackQueue6insert
FN:91,_RNvMNtNtCslUrB7RWuRKg_8airplay27control5queueNtB2_13PlaybackQueue6remove
FN:205,_RNvMNtNtCslUrB7RWuRKg_8airplay27control5queueNtB2_13PlaybackQueue7advance
FN:171,_RNvMNtNtCslUrB7RWuRKg_8airplay27control5queueNtB2_13PlaybackQueue7current
FN:260,_RNvMNtNtCslUrB7RWuRKg_8airplay27control5queueNtB2_13PlaybackQueue7shuffle
FN:196,_RNvMNtNtCslUrB7RWuRKg_8airplay27control5queueNtB2_13PlaybackQueue7skip_to
FN:85,_RNvMNtNtCslUrB7RWuRKg_8airplay27control5queueNtB2_13PlaybackQueue8add_next
FN:298,_RNvMNtNtCslUrB7RWuRKg_8airplay27control5queueNtB2_13PlaybackQueue8is_empty
FN:230,_RNvMNtNtCslUrB7RWuRKg_8airplay27control5queueNtB2_13PlaybackQueue8previous
FN:330,_RNvMNtNtCslUrB7RWuRKg_8airplay27control5queueNtB2_13PlaybackQueue8upcoming
FN:316,_RNvMNtNtCslUrB7RWuRKg_8airplay27control5queueNtB2_13PlaybackQueue9get_by_id
FN:280,_RNvMNtNtCslUrB7RWuRKg_8airplay27control5queueNtB2_13PlaybackQueue9unshuffle
FN:346,_RNvXs_NtNtCslUrB7RWuRKg_8airplay27control5queueNtB4_13PlaybackQueueNtNtCs3XFJfFEDSOQ_4core7default7Default7default
FN:197,_RNCNvMNtNtCs41oluKY1Omx_8airplay27control5queueNtB4_13PlaybackQueue7skip_to0B8_
FN:86,_RNCNvMNtNtCs41oluKY1Omx_8airplay27control5queueNtB4_13PlaybackQueue8add_next0B8_
FN:331,_RNCNvMNtNtCs41oluKY1Omx_8airplay27control5queueNtB4_13PlaybackQueue8upcoming0B8_
FN:337,_RNCNvMNtNtCs41oluKY1Omx_8airplay27control5queueNtB4_13PlaybackQueue8upcomings_0B8_
FN:196,_RNvMNtNtCs41oluKY1Omx_8airplay27control5queueNtB2_13PlaybackQueue7skip_to
FN:85,_RNvMNtNtCs41oluKY1Omx_8airplay27control5queueNtB2_13PlaybackQueue8add_next
FN:298,_RNvMNtNtCs41oluKY1Omx_8airplay27control5queueNtB2_13PlaybackQueue8is_empty
FN:330,_RNvMNtNtCs41oluKY1Omx_8airplay27control5queueNtB2_13PlaybackQueue8upcoming
FN:346,_RNvXs_NtNtCs41oluKY1Omx_8airplay27control5queueNtB4_13PlaybackQueueNtNtCs3XFJfFEDSOQ_4core7default7Default7default
FN:92,_RNCNvMNtNtCs41oluKY1Omx_8airplay27control5queueNtB4_13PlaybackQueue6remove0B8_
FN:111,_RNCNvMNtNtCs41oluKY1Omx_8airplay27control5queueNtB4_13PlaybackQueue6removes_0B8_
FN:217,_RNCNvMNtNtCs41oluKY1Omx_8airplay27control5queueNtB4_13PlaybackQueue7advance0B8_
FN:218,_RNCNvMNtNtCs41oluKY1Omx_8airplay27control5queueNtB4_13PlaybackQueue7advances_0B8_
FN:172,_RNCNvMNtNtCs41oluKY1Omx_8airplay27control5queueNtB4_13PlaybackQueue7current0B8_
FN:268,_RNCNvMNtNtCs41oluKY1Omx_8airplay27control5queueNtB4_13PlaybackQueue7shuffle0B8_
FN:233,_RNCNvMNtNtCs41oluKY1Omx_8airplay27control5queueNtB4_13PlaybackQueue8previous0B8_
FN:248,_RNCNvMNtNtCs41oluKY1Omx_8airplay27control5queueNtB4_13PlaybackQueue8previouss_0B8_
FN:317,_RNCNvMNtNtCs41oluKY1Omx_8airplay27control5queueNtB4_13PlaybackQueue9get_by_id0B8_
FN:124,_RNvMNtNtCs41oluKY1Omx_8airplay27control5queueNtB2_13PlaybackQueue10move_track
FN:286,_RNvMNtNtCs41oluKY1Omx_8airplay27control5queueNtB2_13PlaybackQueue11is_shuffled
FN:182,_RNvMNtNtCs41oluKY1Omx_8airplay27control5queueNtB2_13PlaybackQueue11set_current
FN:177,_RNvMNtNtCs41oluKY1Omx_8airplay27control5queueNtB2_13PlaybackQueue13current_index
FN:321,_RNvMNtNtCs41oluKY1Omx_8airplay27control5queueNtB2_13PlaybackQueue14add_to_history
FN:39,_RNvMNtNtCs41oluKY1Omx_8airplay27control5queueNtB2_13PlaybackQueue3add
FN:310,_RNvMNtNtCs41oluKY1Omx_8airplay27control5queueNtB2_13PlaybackQueue3get
FN:292,_RNvMNtNtCs41oluKY1Omx_8airplay27control5queueNtB2_13PlaybackQueue3len
FN:27,_RNvMNtNtCs41oluKY1Omx_8airplay27control5queueNtB2_13PlaybackQueue3new
FN:162,_RNvMNtNtCs41oluKY1Omx_8airplay27control5queueNtB2_13PlaybackQueue5clear
FN:304,_RNvMNtNtCs41oluKY1Omx_8airplay27control5queueNtB2_13PlaybackQueue5items
FN:54,_RNvMNtNtCs41oluKY1Omx_8airplay27control5queueNtB2_13PlaybackQueue6insert
FN:91,_RNvMNtNtCs41oluKY1Omx_8airplay27control5queueNtB2_13PlaybackQueue6remove
FN:205,_RNvMNtNtCs41oluKY1Omx_8airplay27control5queueNtB2_13PlaybackQueue7advance
FN:171,_RNvMNtNtCs41oluKY1Omx_8airplay27control5queueNtB2_13PlaybackQueue7current
FN:260,_RNvMNtNtCs41oluKY1Omx_8airplay27control5queueNtB2_13PlaybackQueue7shuffle
FN:230,_RNvMNtNtCs41oluKY1Omx_8airplay27control5queueNtB2_13PlaybackQueue8previous
FN:316,_RNvMNtNtCs41oluKY1Omx_8airplay27control5queueNtB2_13PlaybackQueue9get_by_id
FN:280,_RNvMNtNtCs41oluKY1Omx_8airplay27control5queueNtB2_13PlaybackQueue9unshuffle
FNDA:0,_RNCNvMNtNtCslUrB7RWuRKg_8airplay27control5queueNtB4_13PlaybackQueue6remove0B8_
FNDA:0,_RNCNvMNtNtCslUrB7RWuRKg_8airplay27control5queueNtB4_13PlaybackQueue6removes_0B8_
FNDA:0,_RNCNvMNtNtCslUrB7RWuRKg_8airplay27control5queueNtB4_13PlaybackQueue7advance0B8_
FNDA:0,_RNCNvMNtNtCslUrB7RWuRKg_8airplay27control5queueNtB4_13PlaybackQueue7advances_0B8_
FNDA:0,_RNCNvMNtNtCslUrB7RWuRKg_8airplay27control5queueNtB4_13PlaybackQueue7current0B8_
FNDA:0,_RNCNvMNtNtCslUrB7RWuRKg_8airplay27control5queueNtB4_13PlaybackQueue7shuffle0B8_
FNDA:0,_RNCNvMNtNtCslUrB7RWuRKg_8airplay27control5queueNtB4_13PlaybackQueue7skip_to0B8_
FNDA:0,_RNCNvMNtNtCslUrB7RWuRKg_8airplay27control5queueNtB4_13PlaybackQueue8add_next0B8_
FNDA:0,_RNCNvMNtNtCslUrB7RWuRKg_8airplay27control5queueNtB4_13PlaybackQueue8previous0B8_
FNDA:0,_RNCNvMNtNtCslUrB7RWuRKg_8airplay27control5queueNtB4_13PlaybackQueue8previouss_0B8_
FNDA:0,_RNCNvMNtNtCslUrB7RWuRKg_8airplay27control5queueNtB4_13PlaybackQueue8upcoming0B8_
FNDA:0,_RNCNvMNtNtCslUrB7RWuRKg_8airplay27control5queueNtB4_13PlaybackQueue8upcomings_0B8_
FNDA:0,_RNCNvMNtNtCslUrB7RWuRKg_8airplay27control5queueNtB4_13PlaybackQueue9get_by_id0B8_
FNDA:0,_RNvMNtNtCslUrB7RWuRKg_8airplay27control5queueNtB2_13PlaybackQueue10move_track
FNDA:0,_RNvMNtNtCslUrB7RWuRKg_8airplay27control5queueNtB2_13PlaybackQueue11is_shuffled
FNDA:0,_RNvMNtNtCslUrB7RWuRKg_8airplay27control5queueNtB2_13PlaybackQueue11set_current
FNDA:0,_RNvMNtNtCslUrB7RWuRKg_8airplay27control5queueNtB2_13PlaybackQueue13current_index
FNDA:0,_RNvMNtNtCslUrB7RWuRKg_8airplay27control5queueNtB2_13PlaybackQueue14add_to_history
FNDA:3,_RNvMNtNtCslUrB7RWuRKg_8airplay27control5queueNtB2_13PlaybackQueue3add
FNDA:0,_RNvMNtNtCslUrB7RWuRKg_8airplay27control5queueNtB2_13PlaybackQueue3get
FNDA:3,_RNvMNtNtCslUrB7RWuRKg_8airplay27control5queueNtB2_13PlaybackQueue3len
FNDA:5,_RNvMNtNtCslUrB7RWuRKg_8airplay27control5queueNtB2_13PlaybackQueue3new
FNDA:2,_RNvMNtNtCslUrB7RWuRKg_8airplay27control5queueNtB2_13PlaybackQueue5clear
FNDA:2,_RNvMNtNtCslUrB7RWuRKg_8airplay27control5queueNtB2_13PlaybackQueue5items
FNDA:0,_RNvMNtNtCslUrB7RWuRKg_8airplay27control5queueNtB2_13PlaybackQueue6insert
FNDA:0,_RNvMNtNtCslUrB7RWuRKg_8airplay27control5queueNtB2_13PlaybackQueue6remove
FNDA:1,_RNvMNtNtCslUrB7RWuRKg_8airplay27control5queueNtB2_13PlaybackQueue7advance
FNDA:0,_RNvMNtNtCslUrB7RWuRKg_8airplay27control5queueNtB2_13PlaybackQueue7current
FNDA:1,_RNvMNtNtCslUrB7RWuRKg_8airplay27control5queueNtB2_13PlaybackQueue7shuffle
FNDA:0,_RNvMNtNtCslUrB7RWuRKg_8airplay27control5queueNtB2_13PlaybackQueue7skip_to
FNDA:0,_RNvMNtNtCslUrB7RWuRKg_8airplay27control5queueNtB2_13PlaybackQueue8add_next
FNDA:0,_RNvMNtNtCslUrB7RWuRKg_8airplay27control5queueNtB2_13PlaybackQueue8is_empty
FNDA:0,_RNvMNtNtCslUrB7RWuRKg_8airplay27control5queueNtB2_13PlaybackQueue8previous
FNDA:0,_RNvMNtNtCslUrB7RWuRKg_8airplay27control5queueNtB2_13PlaybackQueue8upcoming
FNDA:0,_RNvMNtNtCslUrB7RWuRKg_8airplay27control5queueNtB2_13PlaybackQueue9get_by_id
FNDA:1,_RNvMNtNtCslUrB7RWuRKg_8airplay27control5queueNtB2_13PlaybackQueue9unshuffle
FNDA:0,_RNvXs_NtNtCslUrB7RWuRKg_8airplay27control5queueNtB4_13PlaybackQueueNtNtCs3XFJfFEDSOQ_4core7default7Default7default
FNDA:0,_RNCNvMNtNtCs41oluKY1Omx_8airplay27control5queueNtB4_13PlaybackQueue7skip_to0B8_
FNDA:0,_RNCNvMNtNtCs41oluKY1Omx_8airplay27control5queueNtB4_13PlaybackQueue8add_next0B8_
FNDA:0,_RNCNvMNtNtCs41oluKY1Omx_8airplay27control5queueNtB4_13PlaybackQueue8upcoming0B8_
FNDA:0,_RNCNvMNtNtCs41oluKY1Omx_8airplay27control5queueNtB4_13PlaybackQueue8upcomings_0B8_
FNDA:0,_RNvMNtNtCs41oluKY1Omx_8airplay27control5queueNtB2_13PlaybackQueue7skip_to
FNDA:0,_RNvMNtNtCs41oluKY1Omx_8airplay27control5queueNtB2_13PlaybackQueue8add_next
FNDA:0,_RNvMNtNtCs41oluKY1Omx_8airplay27control5queueNtB2_13PlaybackQueue8is_empty
FNDA:0,_RNvMNtNtCs41oluKY1Omx_8airplay27control5queueNtB2_13PlaybackQueue8upcoming
FNDA:0,_RNvXs_NtNtCs41oluKY1Omx_8airplay27control5queueNtB4_13PlaybackQueueNtNtCs3XFJfFEDSOQ_4core7default7Default7default
FNDA:2,_RNCNvMNtNtCs41oluKY1Omx_8airplay27control5queueNtB4_13PlaybackQueue6remove0B8_
FNDA:0,_RNCNvMNtNtCs41oluKY1Omx_8airplay27control5queueNtB4_13PlaybackQueue6removes_0B8_
FNDA:1,_RNCNvMNtNtCs41oluKY1Omx_8airplay27control5queueNtB4_13PlaybackQueue7advance0B8_
FNDA:1,_RNCNvMNtNtCs41oluKY1Omx_8airplay27control5queueNtB4_13PlaybackQueue7advances_0B8_
FNDA:17,_RNCNvMNtNtCs41oluKY1Omx_8airplay27control5queueNtB4_13PlaybackQueue7current0B8_
FNDA:15,_RNCNvMNtNtCs41oluKY1Omx_8airplay27control5queueNtB4_13PlaybackQueue7shuffle0B8_
FNDA:1,_RNCNvMNtNtCs41oluKY1Omx_8airplay27control5queueNtB4_13PlaybackQueue8previous0B8_
FNDA:0,_RNCNvMNtNtCs41oluKY1Omx_8airplay27control5queueNtB4_13PlaybackQueue8previouss_0B8_
FNDA:1,_RNCNvMNtNtCs41oluKY1Omx_8airplay27control5queueNtB4_13PlaybackQueue9get_by_id0B8_
FNDA:1,_RNvMNtNtCs41oluKY1Omx_8airplay27control5queueNtB2_13PlaybackQueue10move_track
FNDA:1,_RNvMNtNtCs41oluKY1Omx_8airplay27control5queueNtB2_13PlaybackQueue11is_shuffled
FNDA:10,_RNvMNtNtCs41oluKY1Omx_8airplay27control5queueNtB2_13PlaybackQueue11set_current
FNDA:1,_RNvMNtNtCs41oluKY1Omx_8airplay27control5queueNtB2_13PlaybackQueue13current_index
FNDA:5,_RNvMNtNtCs41oluKY1Omx_8airplay27control5queueNtB2_13PlaybackQueue14add_to_history
FNDA:29,_RNvMNtNtCs41oluKY1Omx_8airplay27control5queueNtB2_13PlaybackQueue3add
FNDA:4,_RNvMNtNtCs41oluKY1Omx_8airplay27control5queueNtB2_13PlaybackQueue3get
FNDA:11,_RNvMNtNtCs41oluKY1Omx_8airplay27control5queueNtB2_13PlaybackQueue3len
FNDA:31,_RNvMNtNtCs41oluKY1Omx_8airplay27control5queueNtB2_13PlaybackQueue3new
FNDA:5,_RNvMNtNtCs41oluKY1Omx_8airplay27control5queueNtB2_13PlaybackQueue5clear
FNDA:11,_RNvMNtNtCs41oluKY1Omx_8airplay27control5queueNtB2_13PlaybackQueue5items
FNDA:1,_RNvMNtNtCs41oluKY1Omx_8airplay27control5queueNtB2_13PlaybackQueue6insert
FNDA:2,_RNvMNtNtCs41oluKY1Omx_8airplay27control5queueNtB2_13PlaybackQueue6remove
FNDA:7,_RNvMNtNtCs41oluKY1Omx_8airplay27control5queueNtB2_13PlaybackQueue7advance
FNDA:22,_RNvMNtNtCs41oluKY1Omx_8airplay27control5queueNtB2_13PlaybackQueue7current
FNDA:3,_RNvMNtNtCs41oluKY1Omx_8airplay27control5queueNtB2_13PlaybackQueue7shuffle
FNDA:1,_RNvMNtNtCs41oluKY1Omx_8airplay27control5queueNtB2_13PlaybackQueue8previous
FNDA:1,_RNvMNtNtCs41oluKY1Omx_8airplay27control5queueNtB2_13PlaybackQueue9get_by_id
FNDA:0,_RNvMNtNtCs41oluKY1Omx_8airplay27control5queueNtB2_13PlaybackQueue9unshuffle
FNF:37
FNH:26
DA:27,36
DA:28,36
DA:29,36
DA:30,36
DA:31,36
DA:32,36
DA:33,36
DA:34,36
DA:35,36
DA:36,36
DA:39,32
DA:40,32
DA:41,32
DA:42,32
DA:43,32
DA:46,32
DA:47,0
DA:48,32
DA:50,32
DA:51,32
DA:54,1
DA:55,1
DA:56,1
DA:57,1
DA:59,1
DA:60,1
DA:63,1
DA:64,1
DA:65,0
DA:66,1
DA:67,0
DA:70,1
DA:72,2
DA:73,2
DA:74,1
DA:75,1
DA:78,1
DA:79,0
DA:81,1
DA:82,1
DA:85,0
DA:86,0
DA:87,0
DA:88,0
DA:91,2
DA:92,2
DA:93,2
DA:96,2
DA:97,1
DA:98,1
DA:99,1
DA:101,0
DA:102,0
DA:103,0
DA:104,0
DA:105,0
DA:106,0
DA:107,1
DA:110,2
DA:111,0
DA:113,0
DA:114,0
DA:115,0
DA:116,0
DA:118,2
DA:120,2
DA:121,2
DA:124,1
DA:125,1
DA:126,0
DA:127,1
DA:129,1
DA:130,1
DA:133,1
DA:134,1
DA:135,0
DA:136,1
DA:137,0
DA:138,1
DA:139,1
DA:141,0
DA:143,0
DA:146,1
DA:147,3
DA:148,3
DA:149,1
DA:150,2
DA:151,0
DA:152,0
DA:153,0
DA:154,2
DA:155,2
DA:156,2
DA:158,0
DA:159,1
DA:162,7
DA:163,7
DA:164,7
DA:165,7
DA:166,7
DA:167,7
DA:171,22
DA:172,22
DA:173,22
DA:177,1
DA:178,1
DA:179,1
DA:182,10
DA:183,10
DA:185,10
DA:186,5
DA:187,5
DA:188,10
DA:189,10
DA:191,0
DA:193,10
DA:196,0
DA:197,0
DA:198,0
DA:200,0
DA:202,0
DA:205,8
DA:206,8
DA:208,6
DA:209,4
DA:210,4
DA:212,2
DA:216,2
DA:217,2
DA:218,2
DA:221,8
DA:222,5
DA:223,5
DA:225,3
DA:227,8
DA:230,1
DA:232,1
DA:233,1
DA:234,1
DA:235,1
DA:236,0
DA:237,0
DA:240,0
DA:241,0
DA:242,0
DA:243,0
DA:245,0
DA:248,0
DA:251,0
DA:252,0
DA:253,0
DA:255,0
DA:257,1
DA:260,4
DA:262,4
DA:264,4
DA:267,4
DA:268,15
DA:269,3
DA:270,3
DA:271,3
DA:272,1
DA:273,1
DA:274,1
DA:276,4
DA:277,4
DA:280,1
DA:281,1
DA:282,1
DA:286,1
DA:287,1
DA:288,1
DA:292,14
DA:293,14
DA:294,14
DA:298,0
DA:299,0
DA:300,0
DA:304,13
DA:305,13
DA:306,13
DA:310,4
DA:311,4
DA:312,4
DA:316,1
DA:317,1
DA:318,1
DA:321,5
DA:322,5
DA:323,5
DA:324,0
DA:325,0
DA:326,5
DA:330,0
DA:331,0
DA:333,0
DA:334,0
DA:335,0
DA:336,0
DA:337,0
DA:338,0
DA:340,0
DA:342,0
DA:346,0
DA:347,0
DA:348,0
BRF:0
BRH:0
LF:219
LH:146
end_of_record
SF:/app/src/control/volume.rs
FN:295,_RNCNCNvMs1_NtNtCslUrB7RWuRKg_8airplay27control6volumeNtB9_16VolumeController17get_device_volume00Bd_
FN:305,_RNCNCNvMs1_NtNtCslUrB7RWuRKg_8airplay27control6volumeNtB9_16VolumeController17get_device_volume0s_0Bd_
FN:378,_RNCNCNvMs2_NtNtCslUrB7RWuRKg_8airplay27control6volumeNtB9_21GroupVolumeController17set_device_volume00Bd_
FN:152,_RNCNvMs1_NtNtCslUrB7RWuRKg_8airplay27control6volumeNtB7_16VolumeController11set_percent0Bb_
FN:240,_RNCNvMs1_NtNtCslUrB7RWuRKg_8airplay27control6volumeNtB7_16VolumeController11toggle_mute0Bb_
FN:255,_RNCNvMs1_NtNtCslUrB7RWuRKg_8airplay27control6volumeNtB7_16VolumeController16sync_from_device0Bb_
FN:282,_RNCNvMs1_NtNtCslUrB7RWuRKg_8airplay27control6volumeNtB7_16VolumeController17get_device_volume0Bb_
FN:208,_RNCNvMs1_NtNtCslUrB7RWuRKg_8airplay27control6volumeNtB7_16VolumeController4mute0Bb_
FN:225,_RNCNvMs1_NtNtCslUrB7RWuRKg_8airplay27control6volumeNtB7_16VolumeController6unmute0Bb_
FN:185,_RNCNvMs1_NtNtCslUrB7RWuRKg_8airplay27control6volumeNtB7_16VolumeController7step_up0Bb_
FN:173,_RNCNvMs1_NtNtCslUrB7RWuRKg_8airplay27control6volumeNtB7_16VolumeController8decrease0Bb_
FN:161,_RNCNvMs1_NtNtCslUrB7RWuRKg_8airplay27control6volumeNtB7_16VolumeController8increase0Bb_
FN:199,_RNCNvMs1_NtNtCslUrB7RWuRKg_8airplay27control6volumeNtB7_16VolumeController8is_muted0Bb_
FN:194,_RNCNvMs1_NtNtCslUrB7RWuRKg_8airplay27control6volumeNtB7_16VolumeController9step_down0Bb_
FN:410,_RNCNvMs2_NtNtCslUrB7RWuRKg_8airplay27control6volumeNtB7_21GroupVolumeController10unmute_all0Bb_
FN:385,_RNCNvMs2_NtNtCslUrB7RWuRKg_8airplay27control6volumeNtB7_21GroupVolumeController13apply_volumes0Bb_
FN:377,_RNCNvMs2_NtNtCslUrB7RWuRKg_8airplay27control6volumeNtB7_21GroupVolumeController17set_device_volume0Bb_
FN:363,_RNCNvMs2_NtNtCslUrB7RWuRKg_8airplay27control6volumeNtB7_21GroupVolumeController17set_master_volume0Bb_
FN:398,_RNCNvMs2_NtNtCslUrB7RWuRKg_8airplay27control6volumeNtB7_21GroupVolumeController8mute_all0Bb_
FN:42,_RNvMNtNtCslUrB7RWuRKg_8airplay27control6volumeNtB2_6Volume10as_percent
FN:48,_RNvMNtNtCslUrB7RWuRKg_8airplay27control6volumeNtB2_6Volume12from_percent
FN:25,_RNvMNtNtCslUrB7RWuRKg_8airplay27control6volumeNtB2_6Volume3new
FN:54,_RNvMNtNtCslUrB7RWuRKg_8airplay27control6volumeNtB2_6Volume5to_db
FN:31,_RNvMNtNtCslUrB7RWuRKg_8airplay27control6volumeNtB2_6Volume6as_f32
FN:81,_RNvMNtNtCslUrB7RWuRKg_8airplay27control6volumeNtB2_6Volume6is_max
FN:65,_RNvMNtNtCslUrB7RWuRKg_8airplay27control6volumeNtB2_6Volume7from_db
FN:75,_RNvMNtNtCslUrB7RWuRKg_8airplay27control6volumeNtB2_6Volume9is_silent
FN:263,_RNvMs1_NtNtCslUrB7RWuRKg_8airplay27control6volumeNtB5_16VolumeController11send_volume
FN:152,_RNvMs1_NtNtCslUrB7RWuRKg_8airplay27control6volumeNtB5_16VolumeController11set_percent
FN:240,_RNvMs1_NtNtCslUrB7RWuRKg_8airplay27control6volumeNtB5_16VolumeController11toggle_mute
FN:255,_RNvMs1_NtNtCslUrB7RWuRKg_8airplay27control6volumeNtB5_16VolumeController16sync_from_device
FN:282,_RNvMs1_NtNtCslUrB7RWuRKg_8airplay27control6volumeNtB5_16VolumeController17get_device_volume
FN:123,_RNvMs1_NtNtCslUrB7RWuRKg_8airplay27control6volumeNtB5_16VolumeController3get
FN:113,_RNvMs1_NtNtCslUrB7RWuRKg_8airplay27control6volumeNtB5_16VolumeController3new
FN:132,_RNvMs1_NtNtCslUrB7RWuRKg_8airplay27control6volumeNtB5_16VolumeController3set
FN:208,_RNvMs1_NtNtCslUrB7RWuRKg_8airplay27control6volumeNtB5_16VolumeController4mute
FN:225,_RNvMs1_NtNtCslUrB7RWuRKg_8airplay27control6volumeNtB5_16VolumeController6unmute
FN:185,_RNvMs1_NtNtCslUrB7RWuRKg_8airplay27control6volumeNtB5_16VolumeController7step_up
FN:173,_RNvMs1_NtNtCslUrB7RWuRKg_8airplay27control6volumeNtB5_16VolumeController8decrease
FN:161,_RNvMs1_NtNtCslUrB7RWuRKg_8airplay27control6volumeNtB5_16VolumeController8increase
FN:199,_RNvMs1_NtNtCslUrB7RWuRKg_8airplay27control6volumeNtB5_16VolumeController8is_muted
FN:194,_RNvMs1_NtNtCslUrB7RWuRKg_8airplay27control6volumeNtB5_16VolumeController9step_down
FN:345,_RNvMs2_NtNtCslUrB7RWuRKg_8airplay27control6volumeNtB5_21GroupVolumeController10add_device
FN:410,_RNvMs2_NtNtCslUrB7RWuRKg_8airplay27control6volumeNtB5_21GroupVolumeController10unmute_all
FN:385,_RNvMs2_NtNtCslUrB7RWuRKg_8airplay27control6volumeNtB5_21GroupVolumeController13apply_volumes
FN:354,_RNvMs2_NtNtCslUrB7RWuRKg_8airplay27control6volumeNtB5_21GroupVolumeController13remove_device
FN:373,_RNvMs2_NtNtCslUrB7RWuRKg_8airplay27control6volumeNtB5_21GroupVolumeController17set_device_volume
FN:363,_RNvMs2_NtNtCslUrB7RWuRKg_8airplay27control6volumeNtB5_21GroupVolumeController17set_master_volume
FN:337,_RNvMs2_NtNtCslUrB7RWuRKg_8airplay27control6volumeNtB5_21GroupVolumeController3new
FN:398,_RNvMs2_NtNtCslUrB7RWuRKg_8airplay27control6volumeNtB5_21GroupVolumeController8mute_all
FN:93,_RNvXs0_NtNtCslUrB7RWuRKg_8airplay27control6volumeNtB5_6VolumeINtNtCs3XFJfFEDSOQ_4core7convert4FromfE4from
FN:419,_RNvXs3_NtNtCslUrB7RWuRKg_8airplay27control6volumeNtB5_21GroupVolumeControllerNtNtCs3XFJfFEDSOQ_4core7default7Default7default
FN:87,_RNvXs_NtNtCslUrB7RWuRKg_8airplay27control6volumeNtB4_6VolumeNtNtCs3XFJfFEDSOQ_4core7default7Default7default
FN:263,_RNCNvMs1_NtNtCslUrB7RWuRKg_8airplay27control6volumeNtB7_16VolumeController11send_volume0Bb_
FN:123,_RNCNvMs1_NtNtCslUrB7RWuRKg_8airplay27control6volumeNtB7_16VolumeController3get0Bb_
FN:132,_RNCNvMs1_NtNtCslUrB7RWuRKg_8airplay27control6volumeNtB7_16VolumeController3set0Bb_
FN:355,_RNCNvMs2_NtNtCslUrB7RWuRKg_8airplay27control6volumeNtB7_21GroupVolumeController13remove_device0Bb_
FN:295,_RNCNCNvMs1_NtNtCs41oluKY1Omx_8airplay27control6volumeNtB9_16VolumeController17get_device_volume00Bd_
FN:305,_RNCNCNvMs1_NtNtCs41oluKY1Omx_8airplay27control6volumeNtB9_16VolumeController17get_device_volume0s_0Bd_
FN:378,_RNCNCNvMs2_NtNtCs41oluKY1Omx_8airplay27control6volumeNtB9_21GroupVolumeController17set_device_volume00Bd_
FN:152,_RNCNvMs1_NtNtCs41oluKY1Omx_8airplay27control6volumeNtB7_16VolumeController11set_percent0Bb_
FN:240,_RNCNvMs1_NtNtCs41oluKY1Omx_8airplay27control6volumeNtB7_16VolumeController11toggle_mute0Bb_
FN:255,_RNCNvMs1_NtNtCs41oluKY1Omx_8airplay27control6volumeNtB7_16VolumeController16sync_from_device0Bb_
FN:282,_RNCNvMs1_NtNtCs41oluKY1Omx_8airplay27control6volumeNtB7_16VolumeController17get_device_volume0Bb_
FN:185,_RNCNvMs1_NtNtCs41oluKY1Omx_8airplay27control6volumeNtB7_16VolumeController7step_up0Bb_
FN:173,_RNCNvMs1_NtNtCs41oluKY1Omx_8airplay27control6volumeNtB7_16VolumeController8decrease0Bb_
FN:161,_RNCNvMs1_NtNtCs41oluKY1Omx_8airplay27control6volumeNtB7_16VolumeController8increase0Bb_
FN:194,_RNCNvMs1_NtNtCs41oluKY1Omx_8airplay27control6volumeNtB7_16VolumeController9step_down0Bb_
FN:410,_RNCNvMs2_NtNtCs41oluKY1Omx_8airplay27control6volumeNtB7_21GroupVolumeController10unmute_all0Bb_
FN:385,_RNCNvMs2_NtNtCs41oluKY1Omx_8airplay27control6volumeNtB7_21GroupVolumeController13apply_volumes0Bb_
FN:355,_RNCNvMs2_NtNtCs41oluKY1Omx_8airplay27control6volumeNtB7_21GroupVolumeController13remove_device0Bb_
FN:377,_RNCNvMs2_NtNtCs41oluKY1Omx_8airplay27control6volumeNtB7_21GroupVolumeController17set_device_volume0Bb_
FN:363,_RNCNvMs2_NtNtCs41oluKY1Omx_8airplay27control6volumeNtB7_21GroupVolumeController17set_master_volume0Bb_
FN:398,_RNCNvMs2_NtNtCs41oluKY1Omx_8airplay27control6volumeNtB7_21GroupVolumeController8mute_all0Bb_
FN:81,_RNvMNtNtCs41oluKY1Omx_8airplay27control6volumeNtB2_6Volume6is_max
FN:152,_RNvMs1_NtNtCs41oluKY1Omx_8airplay27control6volumeNtB5_16VolumeController11set_percent
FN:240,_RNvMs1_NtNtCs41oluKY1Omx_8airplay27control6volumeNtB5_16VolumeController11toggle_mute
FN:255,_RNvMs1_NtNtCs41oluKY1Omx_8airplay27control6volumeNtB5_16VolumeController16sync_from_device
FN:282,_RNvMs1_NtNtCs41oluKY1Omx_8airplay27control6volumeNtB5_16VolumeController17get_device_volume
FN:185,_RNvMs1_NtNtCs41oluKY1Omx_8airplay27control6volumeNtB5_16VolumeController7step_up
FN:173,_RNvMs1_NtNtCs41oluKY1Omx_8airplay27control6volumeNtB5_16VolumeController8decrease
FN:161,_RNvMs1_NtNtCs41oluKY1Omx_8airplay27control6volumeNtB5_16VolumeController8increase
FN:194,_RNvMs1_NtNtCs41oluKY1Omx_8airplay27control6volumeNtB5_16VolumeController9step_down
FN:345,_RNvMs2_NtNtCs41oluKY1Omx_8airplay27control6volumeNtB5_21GroupVolumeController10add_device
FN:410,_RNvMs2_NtNtCs41oluKY1Omx_8airplay27control6volumeNtB5_21GroupVolumeController10unmute_all
FN:385,_RNvMs2_NtNtCs41oluKY1Omx_8airplay27control6volumeNtB5_21GroupVolumeController13apply_volumes
FN:354,_RNvMs2_NtNtCs41oluKY1Omx_8airplay27control6volumeNtB5_21GroupVolumeController13remove_device
FN:373,_RNvMs2_NtNtCs41oluKY1Omx_8airplay27control6volumeNtB5_21GroupVolumeController17set_device_volume
FN:363,_RNvMs2_NtNtCs41oluKY1Omx_8airplay27control6volumeNtB5_21GroupVolumeController17set_master_volume
FN:337,_RNvMs2_NtNtCs41oluKY1Omx_8airplay27control6volumeNtB5_21GroupVolumeController3new
FN:398,_RNvMs2_NtNtCs41oluKY1Omx_8airplay27control6volumeNtB5_21GroupVolumeController8mute_all
FN:93,_RNvXs0_NtNtCs41oluKY1Omx_8airplay27control6volumeNtB5_6VolumeINtNtCs3XFJfFEDSOQ_4core7convert4FromfE4from
FN:419,_RNvXs3_NtNtCs41oluKY1Omx_8airplay27control6volumeNtB5_21GroupVolumeControllerNtNtCs3XFJfFEDSOQ_4core7default7Default7default
FN:87,_RNvXs_NtNtCs41oluKY1Omx_8airplay27control6volumeNtB4_6VolumeNtNtCs3XFJfFEDSOQ_4core7default7Default7default
FN:263,_RNCNvMs1_NtNtCs41oluKY1Omx_8airplay27control6volumeNtB7_16VolumeController11send_volume0Bb_
FN:123,_RNCNvMs1_NtNtCs41oluKY1Omx_8airplay27control6volumeNtB7_16VolumeController3get0Bb_
FN:132,_RNCNvMs1_NtNtCs41oluKY1Omx_8airplay27control6volumeNtB7_16VolumeController3set0Bb_
FN:208,_RNCNvMs1_NtNtCs41oluKY1Omx_8airplay27control6volumeNtB7_16VolumeController4mute0Bb_
FN:225,_RNCNvMs1_NtNtCs41oluKY1Omx_8airplay27control6volumeNtB7_16VolumeController6unmute0Bb_
FN:199,_RNCNvMs1_NtNtCs41oluKY1Omx_8airplay27control6volumeNtB7_16VolumeController8is_muted0Bb_
FN:42,_RNvMNtNtCs41oluKY1Omx_8airplay27control6volumeNtB2_6Volume10as_percent
FN:48,_RNvMNtNtCs41oluKY1Omx_8airplay27control6volumeNtB2_6Volume12from_percent
FN:25,_RNvMNtNtCs41oluKY1Omx_8airplay27control6volumeNtB2_6Volume3new
FN:54,_RNvMNtNtCs41oluKY1Omx_8airplay27control6volumeNtB2_6Volume5to_db
FN:31,_RNvMNtNtCs41oluKY1Omx_8airplay27control6volumeNtB2_6Volume6as_f32
FN:65,_RNvMNtNtCs41oluKY1Omx_8airplay27control6volumeNtB2_6Volume7from_db
FN:75,_RNvMNtNtCs41oluKY1Omx_8airplay27control6volumeNtB2_6Volume9is_silent
FN:263,_RNvMs1_NtNtCs41oluKY1Omx_8airplay27control6volumeNtB5_16VolumeController11send_volume
FN:123,_RNvMs1_NtNtCs41oluKY1Omx_8airplay27control6volumeNtB5_16VolumeController3get
FN:113,_RNvMs1_NtNtCs41oluKY1Omx_8airplay27control6volumeNtB5_16VolumeController3new
FN:132,_RNvMs1_NtNtCs41oluKY1Omx_8airplay27control6volumeNtB5_16VolumeController3set
FN:208,_RNvMs1_NtNtCs41oluKY1Omx_8airplay27control6volumeNtB5_16VolumeController4mute
FN:225,_RNvMs1_NtNtCs41oluKY1Omx_8airplay27control6volumeNtB5_16VolumeController6unmute
FN:199,_RNvMs1_NtNtCs41oluKY1Omx_8airplay27control6volumeNtB5_16VolumeController8is_muted
FN:208,_RNCNvMs1_NtNtCslUrB7RWuRKg_8airplay27control6volumeNtB7_16VolumeController4mute0CsjZ7WIzFe7Th_18player_integration
FN:225,_RNCNvMs1_NtNtCslUrB7RWuRKg_8airplay27control6volumeNtB7_16VolumeController6unmute0CsjZ7WIzFe7Th_18player_integration
FN:199,_RNCNvMs1_NtNtCslUrB7RWuRKg_8airplay27control6volumeNtB7_16VolumeController8is_muted0CsjZ7WIzFe7Th_18player_integration
FNDA:0,_RNCNCNvMs1_NtNtCslUrB7RWuRKg_8airplay27control6volumeNtB9_16VolumeController17get_device_volume00Bd_
FNDA:0,_RNCNCNvMs1_NtNtCslUrB7RWuRKg_8airplay27control6volumeNtB9_16VolumeController17get_device_volume0s_0Bd_
FNDA:0,_RNCNCNvMs2_NtNtCslUrB7RWuRKg_8airplay27control6volumeNtB9_21GroupVolumeController17set_device_volume00Bd_
FNDA:0,_RNCNvMs1_NtNtCslUrB7RWuRKg_8airplay27control6volumeNtB7_16VolumeController11set_percent0Bb_
FNDA:0,_RNCNvMs1_NtNtCslUrB7RWuRKg_8airplay27control6volumeNtB7_16VolumeController11toggle_mute0Bb_
FNDA:0,_RNCNvMs1_NtNtCslUrB7RWuRKg_8airplay27control6volumeNtB7_16VolumeController16sync_from_device0Bb_
FNDA:0,_RNCNvMs1_NtNtCslUrB7RWuRKg_8airplay27control6volumeNtB7_16VolumeController17get_device_volume0Bb_
FNDA:0,_RNCNvMs1_NtNtCslUrB7RWuRKg_8airplay27control6volumeNtB7_16VolumeController4mute0Bb_
FNDA:0,_RNCNvMs1_NtNtCslUrB7RWuRKg_8airplay27control6volumeNtB7_16VolumeController6unmute0Bb_
FNDA:0,_RNCNvMs1_NtNtCslUrB7RWuRKg_8airplay27control6volumeNtB7_16VolumeController7step_up0Bb_
FNDA:0,_RNCNvMs1_NtNtCslUrB7RWuRKg_8airplay27control6volumeNtB7_16VolumeController8decrease0Bb_
FNDA:0,_RNCNvMs1_NtNtCslUrB7RWuRKg_8airplay27control6volumeNtB7_16VolumeController8increase0Bb_
FNDA:0,_RNCNvMs1_NtNtCslUrB7RWuRKg_8airplay27control6volumeNtB7_16VolumeController8is_muted0Bb_
FNDA:0,_RNCNvMs1_NtNtCslUrB7RWuRKg_8airplay27control6volumeNtB7_16VolumeController9step_down0Bb_
FNDA:0,_RNCNvMs2_NtNtCslUrB7RWuRKg_8airplay27control6volumeNtB7_21GroupVolumeController10unmute_all0Bb_
FNDA:0,_RNCNvMs2_NtNtCslUrB7RWuRKg_8airplay27control6volumeNtB7_21GroupVolumeController13apply_volumes0Bb_
FNDA:0,_RNCNvMs2_NtNtCslUrB7RWuRKg_8airplay27control6volumeNtB7_21GroupVolumeController17set_device_volume0Bb_
FNDA:0,_RNCNvMs2_NtNtCslUrB7RWuRKg_8airplay27control6volumeNtB7_21GroupVolumeController17set_master_volume0Bb_
FNDA:0,_RNCNvMs2_NtNtCslUrB7RWuRKg_8airplay27control6volumeNtB7_21GroupVolumeController8mute_all0Bb_
FNDA:0,_RNvMNtNtCslUrB7RWuRKg_8airplay27control6volumeNtB2_6Volume10as_percent
FNDA:0,_RNvMNtNtCslUrB7RWuRKg_8airplay27control6volumeNtB2_6Volume12from_percent
FNDA:2,_RNvMNtNtCslUrB7RWuRKg_8airplay27control6volumeNtB2_6Volume3new
FNDA:4,_RNvMNtNtCslUrB7RWuRKg_8airplay27control6volumeNtB2_6Volume5to_db
FNDA:2,_RNvMNtNtCslUrB7RWuRKg_8airplay27control6volumeNtB2_6Volume6as_f32
FNDA:0,_RNvMNtNtCslUrB7RWuRKg_8airplay27control6volumeNtB2_6Volume6is_max
FNDA:0,_RNvMNtNtCslUrB7RWuRKg_8airplay27control6volumeNtB2_6Volume7from_db
FNDA:2,_RNvMNtNtCslUrB7RWuRKg_8airplay27control6volumeNtB2_6Volume9is_silent
FNDA:4,_RNvMs1_NtNtCslUrB7RWuRKg_8airplay27control6volumeNtB5_16VolumeController11send_volume
FNDA:0,_RNvMs1_NtNtCslUrB7RWuRKg_8airplay27control6volumeNtB5_16VolumeController11set_percent
FNDA:0,_RNvMs1_NtNtCslUrB7RWuRKg_8airplay27control6volumeNtB5_16VolumeController11toggle_mute
FNDA:0,_RNvMs1_NtNtCslUrB7RWuRKg_8airplay27control6volumeNtB5_16VolumeController16sync_from_device
FNDA:0,_RNvMs1_NtNtCslUrB7RWuRKg_8airplay27control6volumeNtB5_16VolumeController17get_device_volume
FNDA:3,_RNvMs1_NtNtCslUrB7RWuRKg_8airplay27control6volumeNtB5_16VolumeController3get
FNDA:5,_RNvMs1_NtNtCslUrB7RWuRKg_8airplay27control6volumeNtB5_16VolumeController3new
FNDA:2,_RNvMs1_NtNtCslUrB7RWuRKg_8airplay27control6volumeNtB5_16VolumeController3set
FNDA:1,_RNvMs1_NtNtCslUrB7RWuRKg_8airplay27control6volumeNtB5_16VolumeController4mute
FNDA:1,_RNvMs1_NtNtCslUrB7RWuRKg_8airplay27control6volumeNtB5_16VolumeController6unmute
FNDA:0,_RNvMs1_NtNtCslUrB7RWuRKg_8airplay27control6volumeNtB5_16VolumeController7step_up
FNDA:0,_RNvMs1_NtNtCslUrB7RWuRKg_8airplay27control6volumeNtB5_16VolumeController8decrease
FNDA:0,_RNvMs1_NtNtCslUrB7RWuRKg_8airplay27control6volumeNtB5_16VolumeController8increase
FNDA:2,_RNvMs1_NtNtCslUrB7RWuRKg_8airplay27control6volumeNtB5_16VolumeController8is_muted
FNDA:0,_RNvMs1_NtNtCslUrB7RWuRKg_8airplay27control6volumeNtB5_16VolumeController9step_down
FNDA:0,_RNvMs2_NtNtCslUrB7RWuRKg_8airplay27control6volumeNtB5_21GroupVolumeController10add_device
FNDA:0,_RNvMs2_NtNtCslUrB7RWuRKg_8airplay27control6volumeNtB5_21GroupVolumeController10unmute_all
FNDA:0,_RNvMs2_NtNtCslUrB7RWuRKg_8airplay27control6volumeNtB5_21GroupVolumeController13apply_volumes
FNDA:0,_RNvMs2_NtNtCslUrB7RWuRKg_8airplay27control6volumeNtB5_21GroupVolumeController13remove_device
FNDA:0,_RNvMs2_NtNtCslUrB7RWuRKg_8airplay27control6volumeNtB5_21GroupVolumeController17set_device_volume
FNDA:0,_RNvMs2_NtNtCslUrB7RWuRKg_8airplay27control6volumeNtB5_21GroupVolumeController17set_master_volume
FNDA:0,_RNvMs2_NtNtCslUrB7RWuRKg_8airplay27control6volumeNtB5_21GroupVolumeController3new
FNDA:0,_RNvMs2_NtNtCslUrB7RWuRKg_8airplay27control6volumeNtB5_21GroupVolumeController8mute_all
FNDA:0,_RNvXs0_NtNtCslUrB7RWuRKg_8airplay27control6volumeNtB5_6VolumeINtNtCs3XFJfFEDSOQ_4core7convert4FromfE4from
FNDA:0,_RNvXs3_NtNtCslUrB7RWuRKg_8airplay27control6volumeNtB5_21GroupVolumeControllerNtNtCs3XFJfFEDSOQ_4core7default7Default7default
FNDA:0,_RNvXs_NtNtCslUrB7RWuRKg_8airplay27control6volumeNtB4_6VolumeNtNtCs3XFJfFEDSOQ_4core7default7Default7default
FNDA:4,_RNCNvMs1_NtNtCslUrB7RWuRKg_8airplay27control6volumeNtB7_16VolumeController11send_volume0Bb_
FNDA:3,_RNCNvMs1_NtNtCslUrB7RWuRKg_8airplay27control6volumeNtB7_16VolumeController3get0Bb_
FNDA:2,_RNCNvMs1_NtNtCslUrB7RWuRKg_8airplay27control6volumeNtB7_16VolumeController3set0Bb_
FNDA:0,_RNCNvMs2_NtNtCslUrB7RWuRKg_8airplay27control6volumeNtB7_21GroupVolumeController13remove_device0Bb_
FNDA:0,_RNCNCNvMs1_NtNtCs41oluKY1Omx_8airplay27control6volumeNtB9_16VolumeController17get_device_volume00Bd_
FNDA:0,_RNCNCNvMs1_NtNtCs41oluKY1Omx_8airplay27control6volumeNtB9_16VolumeController17get_device_volume0s_0Bd_
FNDA:0,_RNCNCNvMs2_NtNtCs41oluKY1Omx_8airplay27control6volumeNtB9_21GroupVolumeController17set_device_volume00Bd_
FNDA:0,_RNCNvMs1_NtNtCs41oluKY1Omx_8airplay27control6volumeNtB7_16VolumeController11set_percent0Bb_
FNDA:0,_RNCNvMs1_NtNtCs41oluKY1Omx_8airplay27control6volumeNtB7_16VolumeController11toggle_mute0Bb_
FNDA:0,_RNCNvMs1_NtNtCs41oluKY1Omx_8airplay27control6volumeNtB7_16VolumeController16sync_from_device0Bb_
FNDA:0,_RNCNvMs1_NtNtCs41oluKY1Omx_8airplay27control6volumeNtB7_16VolumeController17get_device_volume0Bb_
FNDA:0,_RNCNvMs1_NtNtCs41oluKY1Omx_8airplay27control6volumeNtB7_16VolumeController7step_up0Bb_
FNDA:0,_RNCNvMs1_NtNtCs41oluKY1Omx_8airplay27control6volumeNtB7_16VolumeController8decrease0Bb_
FNDA:0,_RNCNvMs1_NtNtCs41oluKY1Omx_8airplay27control6volumeNtB7_16VolumeController8increase0Bb_
FNDA:0,_RNCNvMs1_NtNtCs41oluKY1Omx_8airplay27control6volumeNtB7_16VolumeController9step_down0Bb_
FNDA:0,_RNCNvMs2_NtNtCs41oluKY1Omx_8airplay27control6volumeNtB7_21GroupVolumeController10unmute_all0Bb_
FNDA:0,_RNCNvMs2_NtNtCs41oluKY1Omx_8airplay27control6volumeNtB7_21GroupVolumeController13apply_volumes0Bb_
FNDA:0,_RNCNvMs2_NtNtCs41oluKY1Omx_8airplay27control6volumeNtB7_21GroupVolumeController13remove_device0Bb_
FNDA:0,_RNCNvMs2_NtNtCs41oluKY1Omx_8airplay27control6volumeNtB7_21GroupVolumeController17set_device_volume0Bb_
FNDA:0,_RNCNvMs2_NtNtCs41oluKY1Omx_8airplay27control6volumeNtB7_21GroupVolumeController17set_master_volume0Bb_
FNDA:0,_RNCNvMs2_NtNtCs41oluKY1Omx_8airplay27control6volumeNtB7_21GroupVolumeController8mute_all0Bb_
FNDA:0,_RNvMNtNtCs41oluKY1Omx_8airplay27control6volumeNtB2_6Volume6is_max
FNDA:0,_RNvMs1_NtNtCs41oluKY1Omx_8airplay27control6volumeNtB5_16VolumeController11set_percent
FNDA:0,_RNvMs1_NtNtCs41oluKY1Omx_8airplay27control6volumeNtB5_16VolumeController11toggle_mute
FNDA:0,_RNvMs1_NtNtCs41oluKY1Omx_8airplay27control6volumeNtB5_16VolumeController16sync_from_device
FNDA:0,_RNvMs1_NtNtCs41oluKY1Omx_8airplay27control6volumeNtB5_16VolumeController17get_device_volume
FNDA:0,_RNvMs1_NtNtCs41oluKY1Omx_8airplay27control6volumeNtB5_16VolumeController7step_up
FNDA:0,_RNvMs1_NtNtCs41oluKY1Omx_8airplay27control6volumeNtB5_16VolumeController8decrease
FNDA:0,_RNvMs1_NtNtCs41oluKY1Omx_8airplay27control6volumeNtB5_16VolumeController8increase
FNDA:0,_RNvMs1_NtNtCs41oluKY1Omx_8airplay27control6volumeNtB5_16VolumeController9step_down
FNDA:0,_RNvMs2_NtNtCs41oluKY1Omx_8airplay27control6volumeNtB5_21GroupVolumeController10add_device
FNDA:0,_RNvMs2_NtNtCs41oluKY1Omx_8airplay27control6volumeNtB5_21GroupVolumeController10unmute_all
FNDA:0,_RNvMs2_NtNtCs41oluKY1Omx_8airplay27control6volumeNtB5_21GroupVolumeController13apply_volumes
FNDA:0,_RNvMs2_NtNtCs41oluKY1Omx_8airplay27control6volumeNtB5_21GroupVolumeController13remove_device
FNDA:0,_RNvMs2_NtNtCs41oluKY1Omx_8airplay27control6volumeNtB5_21GroupVolumeController17set_device_volume
FNDA:0,_RNvMs2_NtNtCs41oluKY1Omx_8airplay27control6volumeNtB5_21GroupVolumeController17set_master_volume
FNDA:0,_RNvMs2_NtNtCs41oluKY1Omx_8airplay27control6volumeNtB5_21GroupVolumeController3new
FNDA:0,_RNvMs2_NtNtCs41oluKY1Omx_8airplay27control6volumeNtB5_21GroupVolumeController8mute_all
FNDA:0,_RNvXs0_NtNtCs41oluKY1Omx_8airplay27control6volumeNtB5_6VolumeINtNtCs3XFJfFEDSOQ_4core7convert4FromfE4from
FNDA:0,_RNvXs3_NtNtCs41oluKY1Omx_8airplay27control6volumeNtB5_21GroupVolumeControllerNtNtCs3XFJfFEDSOQ_4core7default7Default7default
FNDA:0,_RNvXs_NtNtCs41oluKY1Omx_8airplay27control6volumeNtB4_6VolumeNtNtCs3XFJfFEDSOQ_4core7default7Default7default
FNDA:0,_RNCNvMs1_NtNtCs41oluKY1Omx_8airplay27control6volumeNtB7_16VolumeController11send_volume0Bb_
FNDA:3,_RNCNvMs1_NtNtCs41oluKY1Omx_8airplay27control6volumeNtB7_16VolumeController3get0Bb_
FNDA:0,_RNCNvMs1_NtNtCs41oluKY1Omx_8airplay27control6volumeNtB7_16VolumeController3set0Bb_
FNDA:0,_RNCNvMs1_NtNtCs41oluKY1Omx_8airplay27control6volumeNtB7_16VolumeController4mute0Bb_
FNDA:0,_RNCNvMs1_NtNtCs41oluKY1Omx_8airplay27control6volumeNtB7_16VolumeController6unmute0Bb_
FNDA:0,_RNCNvMs1_NtNtCs41oluKY1Omx_8airplay27control6volumeNtB7_16VolumeController8is_muted0Bb_
FNDA:2,_RNvMNtNtCs41oluKY1Omx_8airplay27control6volumeNtB2_6Volume10as_percent
FNDA:5,_RNvMNtNtCs41oluKY1Omx_8airplay27control6volumeNtB2_6Volume12from_percent
FNDA:12,_RNvMNtNtCs41oluKY1Omx_8airplay27control6volumeNtB2_6Volume3new
FNDA:3,_RNvMNtNtCs41oluKY1Omx_8airplay27control6volumeNtB2_6Volume5to_db
FNDA:11,_RNvMNtNtCs41oluKY1Omx_8airplay27control6volumeNtB2_6Volume6as_f32
FNDA:1,_RNvMNtNtCs41oluKY1Omx_8airplay27control6volumeNtB2_6Volume7from_db
FNDA:3,_RNvMNtNtCs41oluKY1Omx_8airplay27control6volumeNtB2_6Volume9is_silent
FNDA:0,_RNvMs1_NtNtCs41oluKY1Omx_8airplay27control6volumeNtB5_16VolumeController11send_volume
FNDA:3,_RNvMs1_NtNtCs41oluKY1Omx_8airplay27control6volumeNtB5_16VolumeController3get
FNDA:25,_RNvMs1_NtNtCs41oluKY1Omx_8airplay27control6volumeNtB5_16VolumeController3new
FNDA:0,_RNvMs1_NtNtCs41oluKY1Omx_8airplay27control6volumeNtB5_16VolumeController3set
FNDA:0,_RNvMs1_NtNtCs41oluKY1Omx_8airplay27control6volumeNtB5_16VolumeController4mute
FNDA:0,_RNvMs1_NtNtCs41oluKY1Omx_8airplay27control6volumeNtB5_16VolumeController6unmute
FNDA:0,_RNvMs1_NtNtCs41oluKY1Omx_8airplay27control6volumeNtB5_16VolumeController8is_muted
FNDA:1,_RNCNvMs1_NtNtCslUrB7RWuRKg_8airplay27control6volumeNtB7_16VolumeController4mute0CsjZ7WIzFe7Th_18player_integration
FNDA:1,_RNCNvMs1_NtNtCslUrB7RWuRKg_8airplay27control6volumeNtB7_16VolumeController6unmute0CsjZ7WIzFe7Th_18player_integration
FNDA:2,_RNCNvMs1_NtNtCslUrB7RWuRKg_8airplay27control6volumeNtB7_16VolumeController8is_muted0CsjZ7WIzFe7Th_18player_integration
FNF:57
FNH:20
DA:25,14
DA:26,14
DA:27,14
DA:31,13
DA:32,13
DA:33,13
DA:42,2
DA:43,2
DA:44,2
DA:48,5
DA:49,5
DA:50,5
DA:54,7
DA:55,7
DA:56,2
DA:59,5
DA:61,7
DA:65,1
DA:66,1
DA:67,0
DA:69,1
DA:71,1
DA:75,5
DA:76,5
DA:77,5
DA:81,0
DA:82,0
DA:83,0
DA:87,0
DA:88,0
DA:89,0
DA:93,0
DA:94,0
DA:95,0
DA:113,30
DA:114,30
DA:115,30
DA:116,30
DA:117,30
DA:118,30
DA:119,30
DA:120,30
DA:123,6
DA:124,6
DA:125,6
DA:132,2
DA:134,2
DA:137,2
DA:140,2
DA:141,2
DA:142,0
DA:144,2
DA:145,2
DA:152,0
DA:153,0
DA:154,0
DA:161,0
DA:162,0
DA:163,0
DA:164,0
DA:165,0
DA:166,0
DA:173,0
DA:174,0
DA:175,0
DA:176,0
DA:177,0
DA:178,0
DA:185,0
DA:186,0
DA:187,0
DA:194,0
DA:195,0
DA:196,0
DA:199,2
DA:200,2
DA:201,2
DA:208,1
DA:209,1
DA:211,1
DA:214,1
DA:215,1
DA:216,0
DA:217,1
DA:218,1
DA:225,1
DA:226,1
DA:227,1
DA:228,1
DA:229,1
DA:230,1
DA:231,0
DA:232,1
DA:233,1
DA:240,0
DA:241,0
DA:242,0
DA:243,0
DA:245,0
DA:246,0
DA:248,0
DA:255,0
DA:256,0
DA:257,0
DA:258,0
DA:259,0
DA:260,0
DA:263,4
DA:265,4
DA:268,4
DA:270,4
DA:271,4
DA:272,4
DA:273,4
DA:274,4
DA:275,4
DA:276,4
DA:278,4
DA:279,4
DA:282,0
DA:283,0
DA:284,0
DA:285,0
DA:286,0
DA:287,0
DA:288,0
DA:289,0
DA:290,0
DA:291,0
DA:294,0
DA:295,0
DA:296,0
DA:297,0
DA:299,0
DA:300,0
DA:301,0
DA:302,0
DA:303,0
DA:304,0
DA:305,0
DA:306,0
DA:307,0
DA:308,0
DA:309,0
DA:312,0
DA:313,0
DA:337,0
DA:338,0
DA:339,0
DA:340,0
DA:341,0
DA:342,0
DA:345,0
DA:346,0
DA:347,0
DA:348,0
DA:349,0
DA:350,0
DA:351,0
DA:354,0
DA:355,0
DA:356,0
DA:363,0
DA:364,0
DA:365,0
DA:366,0
DA:373,0
DA:374,0
DA:375,0
DA:376,0
DA:377,0
DA:378,0
DA:379,0
DA:380,0
DA:381,0
DA:382,0
DA:385,0
DA:386,0
DA:387,0
DA:388,0
DA:390,0
DA:391,0
DA:398,0
DA:399,0
DA:400,0
DA:402,0
DA:403,0
DA:410,0
DA:411,0
DA:412,0
DA:414,0
DA:415,0
DA:419,0
DA:420,0
DA:421,0
BRF:0
BRH:0
LF:218
LH:78
end_of_record
SF:/app/src/discovery/advertiser.rs
FN:579,_RNCNCNvMs5_NtNtCslUrB7RWuRKg_8airplay29discovery10advertiserNtB9_19AsyncRaopAdvertiser5start00Cs2cnxBKqvEA5_22advertiser_integration
FN:589,_RNCNCNvMs5_NtNtCslUrB7RWuRKg_8airplay29discovery10advertiserNtB9_19AsyncRaopAdvertiser5start0s_0Cs2cnxBKqvEA5_22advertiser_integration
FN:634,_RNCNvMs5_NtNtCslUrB7RWuRKg_8airplay29discovery10advertiserNtB7_19AsyncRaopAdvertiser13update_status0Cs2cnxBKqvEA5_22advertiser_integration
FN:571,_RNCNvMs5_NtNtCslUrB7RWuRKg_8airplay29discovery10advertiserNtB7_19AsyncRaopAdvertiser5start0Cs2cnxBKqvEA5_22advertiser_integration
FN:670,_RNCNvMs5_NtNtCslUrB7RWuRKg_8airplay29discovery10advertiserNtB7_19AsyncRaopAdvertiser8shutdown0Cs2cnxBKqvEA5_22advertiser_integration
FN:579,_RNCNCNvMs5_NtNtCslUrB7RWuRKg_8airplay29discovery10advertiserNtB9_19AsyncRaopAdvertiser5start00Bd_
FN:589,_RNCNCNvMs5_NtNtCslUrB7RWuRKg_8airplay29discovery10advertiserNtB9_19AsyncRaopAdvertiser5start0s_0Bd_
FN:719,_RNCNCNvMs6_NtNtCslUrB7RWuRKg_8airplay29discovery10advertiserNtB9_17ServiceAdvertiser8register00Bd_
FN:634,_RNCNvMs5_NtNtCslUrB7RWuRKg_8airplay29discovery10advertiserNtB7_19AsyncRaopAdvertiser13update_status0Bb_
FN:571,_RNCNvMs5_NtNtCslUrB7RWuRKg_8airplay29discovery10advertiserNtB7_19AsyncRaopAdvertiser5start0Bb_
FN:651,_RNCNvMs5_NtNtCslUrB7RWuRKg_8airplay29discovery10advertiserNtB7_19AsyncRaopAdvertiser8set_busy0Bb_
FN:670,_RNCNvMs5_NtNtCslUrB7RWuRKg_8airplay29discovery10advertiserNtB7_19AsyncRaopAdvertiser8shutdown0Bb_
FN:741,_RNCNvMs6_NtNtCslUrB7RWuRKg_8airplay29discovery10advertiserNtB7_17ServiceAdvertiser10unregister0Bb_
FN:759,_RNCNvMs6_NtNtCslUrB7RWuRKg_8airplay29discovery10advertiserNtB7_17ServiceAdvertiser14unregister_all0Bb_
FN:708,_RNCNvMs6_NtNtCslUrB7RWuRKg_8airplay29discovery10advertiserNtB7_17ServiceAdvertiser8register0Bb_
FN:351,_RNvMs0_NtNtCslUrB7RWuRKg_8airplay29discovery10advertiserNtB5_16TxtRecordBuilder11format_list
FN:282,_RNvMs0_NtNtCslUrB7RWuRKg_8airplay29discovery10advertiserNtB5_16TxtRecordBuilder17from_capabilities
FN:331,_RNvMs0_NtNtCslUrB7RWuRKg_8airplay29discovery10advertiserNtB5_16TxtRecordBuilder3add
FN:274,_RNvMs0_NtNtCslUrB7RWuRKg_8airplay29discovery10advertiserNtB5_16TxtRecordBuilder3new
FN:338,_RNvMs0_NtNtCslUrB7RWuRKg_8airplay29discovery10advertiserNtB5_16TxtRecordBuilder5build
FN:347,_RNvMs0_NtNtCslUrB7RWuRKg_8airplay29discovery10advertiserNtB5_16TxtRecordBuilder9build_map
FN:483,_RNvMs3_NtNtCslUrB7RWuRKg_8airplay29discovery10advertiserNtB5_14RaopAdvertiser10unregister
FN:428,_RNvMs3_NtNtCslUrB7RWuRKg_8airplay29discovery10advertiserNtB5_14RaopAdvertiser12service_name
FN:531,_RNvMs3_NtNtCslUrB7RWuRKg_8airplay29discovery10advertiserNtB5_14RaopAdvertiser13status_handle
FN:503,_RNvMs3_NtNtCslUrB7RWuRKg_8airplay29discovery10advertiserNtB5_14RaopAdvertiser13update_status
FN:408,_RNvMs3_NtNtCslUrB7RWuRKg_8airplay29discovery10advertiserNtB5_14RaopAdvertiser3new
FN:437,_RNvMs3_NtNtCslUrB7RWuRKg_8airplay29discovery10advertiserNtB5_14RaopAdvertiser8register
FN:524,_RNvMs3_NtNtCslUrB7RWuRKg_8airplay29discovery10advertiserNtB5_14RaopAdvertiser8set_busy
FN:659,_RNvMs5_NtNtCslUrB7RWuRKg_8airplay29discovery10advertiserNtB5_19AsyncRaopAdvertiser12service_name
FN:634,_RNvMs5_NtNtCslUrB7RWuRKg_8airplay29discovery10advertiserNtB5_19AsyncRaopAdvertiser13update_status
FN:665,_RNvMs5_NtNtCslUrB7RWuRKg_8airplay29discovery10advertiserNtB5_19AsyncRaopAdvertiser3mac
FN:571,_RNvMs5_NtNtCslUrB7RWuRKg_8airplay29discovery10advertiserNtB5_19AsyncRaopAdvertiser5start
FN:651,_RNvMs5_NtNtCslUrB7RWuRKg_8airplay29discovery10advertiserNtB5_19AsyncRaopAdvertiser8set_busy
FN:670,_RNvMs5_NtNtCslUrB7RWuRKg_8airplay29discovery10advertiserNtB5_19AsyncRaopAdvertiser8shutdown
FN:741,_RNvMs6_NtNtCslUrB7RWuRKg_8airplay29discovery10advertiserNtB5_17ServiceAdvertiser10unregister
FN:774,_RNvMs6_NtNtCslUrB7RWuRKg_8airplay29discovery10advertiserNtB5_17ServiceAdvertiser12get_hostname
FN:759,_RNvMs6_NtNtCslUrB7RWuRKg_8airplay29discovery10advertiserNtB5_17ServiceAdvertiser14unregister_all
FN:688,_RNvMs6_NtNtCslUrB7RWuRKg_8airplay29discovery10advertiserNtB5_17ServiceAdvertiser3new
FN:702,_RNvMs6_NtNtCslUrB7RWuRKg_8airplay29discovery10advertiserNtB5_17ServiceAdvertiser8register
FN:245,_RNvMs_NtNtCslUrB7RWuRKg_8airplay29discovery10advertiserNtB4_19ReceiverStatusFlags8to_flags
FN:76,_RNvNtNtCslUrB7RWuRKg_8airplay29discovery10advertiser13get_mac_linux
FN:42,_RNvNtNtCslUrB7RWuRKg_8airplay29discovery10advertiser14get_device_mac
FN:122,_RNvNtNtCslUrB7RWuRKg_8airplay29discovery10advertiser16parse_mac_string
FN:144,_RNvNtNtCslUrB7RWuRKg_8airplay29discovery10advertiser19generate_stable_mac
FN:175,_RNvNtNtCslUrB7RWuRKg_8airplay29discovery10advertiser22format_mac_for_service
FN:208,_RNvXNtNtCslUrB7RWuRKg_8airplay29discovery10advertiserNtB2_16RaopCapabilitiesNtNtCs3XFJfFEDSOQ_4core7default7Default7default
FN:361,_RNvXs1_NtNtCslUrB7RWuRKg_8airplay29discovery10advertiserNtB5_16TxtRecordBuilderNtNtCs3XFJfFEDSOQ_4core7default7Default7default
FN:380,_RNvXs2_NtNtCslUrB7RWuRKg_8airplay29discovery10advertiserNtB5_16AdvertiserConfigNtNtCs3XFJfFEDSOQ_4core7default7Default7default
FN:537,_RNvXs4_NtNtCslUrB7RWuRKg_8airplay29discovery10advertiserNtB5_14RaopAdvertiserNtNtNtCs3XFJfFEDSOQ_4core3ops4drop4Drop4drop
FN:152,_RNCNCNvNtNtCslUrB7RWuRKg_8airplay29discovery10advertiser19generate_stable_mac00B9_
FN:153,_RNCNCNvNtNtCslUrB7RWuRKg_8airplay29discovery10advertiser19generate_stable_mac0s_0B9_
FN:341,_RNCNvMs0_NtNtCslUrB7RWuRKg_8airplay29discovery10advertiserNtB7_16TxtRecordBuilder5build0Bb_
FN:411,_RNCNvMs3_NtNtCslUrB7RWuRKg_8airplay29discovery10advertiserNtB7_14RaopAdvertiser3new0Bb_
FN:776,_RNCNvMs6_NtNtCslUrB7RWuRKg_8airplay29discovery10advertiserNtB7_17ServiceAdvertiser12get_hostname0Bb_
FN:777,_RNCNvMs6_NtNtCslUrB7RWuRKg_8airplay29discovery10advertiserNtB7_17ServiceAdvertiser12get_hostnames_0Bb_
FN:89,_RNCNvNtNtCslUrB7RWuRKg_8airplay29discovery10advertiser13get_mac_linux0B7_
FN:91,_RNCNvNtNtCslUrB7RWuRKg_8airplay29discovery10advertiser13get_mac_linuxs_0B7_
FN:51,_RNCNvNtNtCslUrB7RWuRKg_8airplay29discovery10advertiser14get_device_mac0B7_
FN:133,_RNCNvNtNtCslUrB7RWuRKg_8airplay29discovery10advertiser16parse_mac_string0B7_
FN:149,_RNCNvNtNtCslUrB7RWuRKg_8airplay29discovery10advertiser19generate_stable_mac0B7_
FN:579,_RNCNCNvMs5_NtNtCs41oluKY1Omx_8airplay29discovery10advertiserNtB9_19AsyncRaopAdvertiser5start00Bd_
FN:589,_RNCNCNvMs5_NtNtCs41oluKY1Omx_8airplay29discovery10advertiserNtB9_19AsyncRaopAdvertiser5start0s_0Bd_
FN:719,_RNCNCNvMs6_NtNtCs41oluKY1Omx_8airplay29discovery10advertiserNtB9_17ServiceAdvertiser8register00Bd_
FN:634,_RNCNvMs5_NtNtCs41oluKY1Omx_8airplay29discovery10advertiserNtB7_19AsyncRaopAdvertiser13update_status0Bb_
FN:571,_RNCNvMs5_NtNtCs41oluKY1Omx_8airplay29discovery10advertiserNtB7_19AsyncRaopAdvertiser5start0Bb_
FN:651,_RNCNvMs5_NtNtCs41oluKY1Omx_8airplay29discovery10advertiserNtB7_19AsyncRaopAdvertiser8set_busy0Bb_
FN:670,_RNCNvMs5_NtNtCs41oluKY1Omx_8airplay29discovery10advertiserNtB7_19AsyncRaopAdvertiser8shutdown0Bb_
FN:741,_RNCNvMs6_NtNtCs41oluKY1Omx_8airplay29discovery10advertiserNtB7_17ServiceAdvertiser10unregister0Bb_
FN:776,_RNCNvMs6_NtNtCs41oluKY1Omx_8airplay29discovery10advertiserNtB7_17ServiceAdvertiser12get_hostname0Bb_
FN:777,_RNCNvMs6_NtNtCs41oluKY1Omx_8airplay29discovery10advertiserNtB7_17ServiceAdvertiser12get_hostnames_0Bb_
FN:759,_RNCNvMs6_NtNtCs41oluKY1Omx_8airplay29discovery10advertiserNtB7_17ServiceAdvertiser14unregister_all0Bb_
FN:708,_RNCNvMs6_NtNtCs41oluKY1Omx_8airplay29discovery10advertiserNtB7_17ServiceAdvertiser8register0Bb_
FN:89,_RNCNvNtNtCs41oluKY1Omx_8airplay29discovery10advertiser13get_mac_linux0B7_
FN:91,_RNCNvNtNtCs41oluKY1Omx_8airplay29discovery10advertiser13get_mac_linuxs_0B7_
FN:51,_RNCNvNtNtCs41oluKY1Omx_8airplay29discovery10advertiser14get_device_mac0B7_
FN:531,_RNvMs3_NtNtCs41oluKY1Omx_8airplay29discovery10advertiserNtB5_14RaopAdvertiser13status_handle
FN:503,_RNvMs3_NtNtCs41oluKY1Omx_8airplay29discovery10advertiserNtB5_14RaopAdvertiser13update_status
FN:437,_RNvMs3_NtNtCs41oluKY1Omx_8airplay29discovery10advertiserNtB5_14RaopAdvertiser8register
FN:524,_RNvMs3_NtNtCs41oluKY1Omx_8airplay29discovery10advertiserNtB5_14RaopAdvertiser8set_busy
FN:659,_RNvMs5_NtNtCs41oluKY1Omx_8airplay29discovery10advertiserNtB5_19AsyncRaopAdvertiser12service_name
FN:634,_RNvMs5_NtNtCs41oluKY1Omx_8airplay29discovery10advertiserNtB5_19AsyncRaopAdvertiser13update_status
FN:665,_RNvMs5_NtNtCs41oluKY1Omx_8airplay29discovery10advertiserNtB5_19AsyncRaopAdvertiser3mac
FN:571,_RNvMs5_NtNtCs41oluKY1Omx_8airplay29discovery10advertiserNtB5_19AsyncRaopAdvertiser5start
FN:651,_RNvMs5_NtNtCs41oluKY1Omx_8airplay29discovery10advertiserNtB5_19AsyncRaopAdvertiser8set_busy
FN:670,_RNvMs5_NtNtCs41oluKY1Omx_8airplay29discovery10advertiserNtB5_19AsyncRaopAdvertiser8shutdown
FN:741,_RNvMs6_NtNtCs41oluKY1Omx_8airplay29discovery10advertiserNtB5_17ServiceAdvertiser10unregister
FN:774,_RNvMs6_NtNtCs41oluKY1Omx_8airplay29discovery10advertiserNtB5_17ServiceAdvertiser12get_hostname
FN:759,_RNvMs6_NtNtCs41oluKY1Omx_8airplay29discovery10advertiserNtB5_17ServiceAdvertiser14unregister_all
FN:688,_RNvMs6_NtNtCs41oluKY1Omx_8airplay29discovery10advertiserNtB5_17ServiceAdvertiser3new
FN:702,_RNvMs6_NtNtCs41oluKY1Omx_8airplay29discovery10advertiserNtB5_17ServiceAdvertiser8register
FN:76,_RNvNtNtCs41oluKY1Omx_8airplay29discovery10advertiser13get_mac_linux
FN:42,_RNvNtNtCs41oluKY1Omx_8airplay29discovery10advertiser14get_device_mac
FN:361,_RNvXs1_NtNtCs41oluKY1Omx_8airplay29discovery10advertiserNtB5_16TxtRecordBuilderNtNtCs3XFJfFEDSOQ_4core7default7Default7default
FN:537,_RNvXs4_NtNtCs41oluKY1Omx_8airplay29discovery10advertiserNtB5_14RaopAdvertiserNtNtNtCs3XFJfFEDSOQ_4core3ops4drop4Drop4drop
FN:351,_RNvMs0_NtNtCs41oluKY1Omx_8airplay29discovery10advertiserNtB5_16TxtRecordBuilder11format_list
FN:282,_RNvMs0_NtNtCs41oluKY1Omx_8airplay29discovery10advertiserNtB5_16TxtRecordBuilder17from_capabilities
FN:331,_RNvMs0_NtNtCs41oluKY1Omx_8airplay29discovery10advertiserNtB5_16TxtRecordBuilder3add
FN:274,_RNvMs0_NtNtCs41oluKY1Omx_8airplay29discovery10advertiserNtB5_16TxtRecordBuilder3new
FN:338,_RNvMs0_NtNtCs41oluKY1Omx_8airplay29discovery10advertiserNtB5_16TxtRecordBuilder5build
FN:347,_RNvMs0_NtNtCs41oluKY1Omx_8airplay29discovery10advertiserNtB5_16TxtRecordBuilder9build_map
FN:483,_RNvMs3_NtNtCs41oluKY1Omx_8airplay29discovery10advertiserNtB5_14RaopAdvertiser10unregister
FN:428,_RNvMs3_NtNtCs41oluKY1Omx_8airplay29discovery10advertiserNtB5_14RaopAdvertiser12service_name
FN:408,_RNvMs3_NtNtCs41oluKY1Omx_8airplay29discovery10advertiserNtB5_14RaopAdvertiser3new
FN:245,_RNvMs_NtNtCs41oluKY1Omx_8airplay29discovery10advertiserNtB4_19ReceiverStatusFlags8to_flags
FN:122,_RNvNtNtCs41oluKY1Omx_8airplay29discovery10advertiser16parse_mac_string
FN:144,_RNvNtNtCs41oluKY1Omx_8airplay29discovery10advertiser19generate_stable_mac
FN:175,_RNvNtNtCs41oluKY1Omx_8airplay29discovery10advertiser22format_mac_for_service
FN:208,_RNvXNtNtCs41oluKY1Omx_8airplay29discovery10advertiserNtB2_16RaopCapabilitiesNtNtCs3XFJfFEDSOQ_4core7default7Default7default
FN:380,_RNvXs2_NtNtCs41oluKY1Omx_8airplay29discovery10advertiserNtB5_16AdvertiserConfigNtNtCs3XFJfFEDSOQ_4core7default7Default7default
FN:152,_RNCNCNvNtNtCs41oluKY1Omx_8airplay29discovery10advertiser19generate_stable_mac00B9_
FN:153,_RNCNCNvNtNtCs41oluKY1Omx_8airplay29discovery10advertiser19generate_stable_mac0s_0B9_
FN:341,_RNCNvMs0_NtNtCs41oluKY1Omx_8airplay29discovery10advertiserNtB7_16TxtRecordBuilder5build0Bb_
FN:411,_RNCNvMs3_NtNtCs41oluKY1Omx_8airplay29discovery10advertiserNtB7_14RaopAdvertiser3new0Bb_
FN:133,_RNCNvNtNtCs41oluKY1Omx_8airplay29discovery10advertiser16parse_mac_string0B7_
FN:149,_RNCNvNtNtCs41oluKY1Omx_8airplay29discovery10advertiser19generate_stable_mac0B7_
FN:579,_RNCNCNvMs5_NtNtCslUrB7RWuRKg_8airplay29discovery10advertiserNtB9_19AsyncRaopAdvertiser5start00Cs7qOya6UwqVm_14full_handshake
FN:589,_RNCNCNvMs5_NtNtCslUrB7RWuRKg_8airplay29discovery10advertiserNtB9_19AsyncRaopAdvertiser5start0s_0Cs7qOya6UwqVm_14full_handshake
FN:571,_RNCNvMs5_NtNtCslUrB7RWuRKg_8airplay29discovery10advertiserNtB7_19AsyncRaopAdvertiser5start0Cs7qOya6UwqVm_14full_handshake
FN:670,_RNCNvMs5_NtNtCslUrB7RWuRKg_8airplay29discovery10advertiserNtB7_19AsyncRaopAdvertiser8shutdown0Cs7qOya6UwqVm_14full_handshake
FN:579,_RNCNCNvMs5_NtNtCslUrB7RWuRKg_8airplay29discovery10advertiserNtB9_19AsyncRaopAdvertiser5start00CskOUeWxhMxgQ_8receiver
FN:589,_RNCNCNvMs5_NtNtCslUrB7RWuRKg_8airplay29discovery10advertiserNtB9_19AsyncRaopAdvertiser5start0s_0CskOUeWxhMxgQ_8receiver
FN:571,_RNCNvMs5_NtNtCslUrB7RWuRKg_8airplay29discovery10advertiserNtB7_19AsyncRaopAdvertiser5start0CskOUeWxhMxgQ_8receiver
FN:670,_RNCNvMs5_NtNtCslUrB7RWuRKg_8airplay29discovery10advertiserNtB7_19AsyncRaopAdvertiser8shutdown0CskOUeWxhMxgQ_8receiver
FN:579,_RNCNCNvMs5_NtNtCslUrB7RWuRKg_8airplay29discovery10advertiserNtB9_19AsyncRaopAdvertiser5start00CsfXRwIH3W2T4_20receiver_integration
FN:589,_RNCNCNvMs5_NtNtCslUrB7RWuRKg_8airplay29discovery10advertiserNtB9_19AsyncRaopAdvertiser5start0s_0CsfXRwIH3W2T4_20receiver_integration
FN:571,_RNCNvMs5_NtNtCslUrB7RWuRKg_8airplay29discovery10advertiserNtB7_19AsyncRaopAdvertiser5start0CsfXRwIH3W2T4_20receiver_integration
FN:670,_RNCNvMs5_NtNtCslUrB7RWuRKg_8airplay29discovery10advertiserNtB7_19AsyncRaopAdvertiser8shutdown0CsfXRwIH3W2T4_20receiver_integration
FNDA:0,_RNCNCNvMs5_NtNtCslUrB7RWuRKg_8airplay29discovery10advertiserNtB9_19AsyncRaopAdvertiser5start00Cs2cnxBKqvEA5_22advertiser_integration
FNDA:0,_RNCNCNvMs5_NtNtCslUrB7RWuRKg_8airplay29discovery10advertiserNtB9_19AsyncRaopAdvertiser5start0s_0Cs2cnxBKqvEA5_22advertiser_integration
FNDA:0,_RNCNvMs5_NtNtCslUrB7RWuRKg_8airplay29discovery10advertiserNtB7_19AsyncRaopAdvertiser13update_status0Cs2cnxBKqvEA5_22advertiser_integration
FNDA:0,_RNCNvMs5_NtNtCslUrB7RWuRKg_8airplay29discovery10advertiserNtB7_19AsyncRaopAdvertiser5start0Cs2cnxBKqvEA5_22advertiser_integration
FNDA:0,_RNCNvMs5_NtNtCslUrB7RWuRKg_8airplay29discovery10advertiserNtB7_19AsyncRaopAdvertiser8shutdown0Cs2cnxBKqvEA5_22advertiser_integration
FNDA:0,_RNCNCNvMs5_NtNtCslUrB7RWuRKg_8airplay29discovery10advertiserNtB9_19AsyncRaopAdvertiser5start00Bd_
FNDA:0,_RNCNCNvMs5_NtNtCslUrB7RWuRKg_8airplay29discovery10advertiserNtB9_19AsyncRaopAdvertiser5start0s_0Bd_
FNDA:0,_RNCNCNvMs6_NtNtCslUrB7RWuRKg_8airplay29discovery10advertiserNtB9_17ServiceAdvertiser8register00Bd_
FNDA:0,_RNCNvMs5_NtNtCslUrB7RWuRKg_8airplay29discovery10advertiserNtB7_19AsyncRaopAdvertiser13update_status0Bb_
FNDA:0,_RNCNvMs5_NtNtCslUrB7RWuRKg_8airplay29discovery10advertiserNtB7_19AsyncRaopAdvertiser5start0Bb_
FNDA:0,_RNCNvMs5_NtNtCslUrB7RWuRKg_8airplay29discovery10advertiserNtB7_19AsyncRaopAdvertiser8set_busy0Bb_
FNDA:0,_RNCNvMs5_NtNtCslUrB7RWuRKg_8airplay29discovery10advertiserNtB7_19AsyncRaopAdvertiser8shutdown0Bb_
FNDA:0,_RNCNvMs6_NtNtCslUrB7RWuRKg_8airplay29discovery10advertiserNtB7_17ServiceAdvertiser10unregister0Bb_
FNDA:0,_RNCNvMs6_NtNtCslUrB7RWuRKg_8airplay29discovery10advertiserNtB7_17ServiceAdvertiser14unregister_all0Bb_
FNDA:0,_RNCNvMs6_NtNtCslUrB7RWuRKg_8airplay29discovery10advertiserNtB7_17ServiceAdvertiser8register0Bb_
FNDA:24,_RNvMs0_NtNtCslUrB7RWuRKg_8airplay29discovery10advertiserNtB5_16TxtRecordBuilder11format_list
FNDA:8,_RNvMs0_NtNtCslUrB7RWuRKg_8airplay29discovery10advertiserNtB5_16TxtRecordBuilder17from_capabilities
FNDA:112,_RNvMs0_NtNtCslUrB7RWuRKg_8airplay29discovery10advertiserNtB5_16TxtRecordBuilder3add
FNDA:8,_RNvMs0_NtNtCslUrB7RWuRKg_8airplay29discovery10advertiserNtB5_16TxtRecordBuilder3new
FNDA:0,_RNvMs0_NtNtCslUrB7RWuRKg_8airplay29discovery10advertiserNtB5_16TxtRecordBuilder5build
FNDA:8,_RNvMs0_NtNtCslUrB7RWuRKg_8airplay29discovery10advertiserNtB5_16TxtRecordBuilder9build_map
FNDA:8,_RNvMs3_NtNtCslUrB7RWuRKg_8airplay29discovery10advertiserNtB5_14RaopAdvertiser10unregister
FNDA:8,_RNvMs3_NtNtCslUrB7RWuRKg_8airplay29discovery10advertiserNtB5_14RaopAdvertiser12service_name
FNDA:0,_RNvMs3_NtNtCslUrB7RWuRKg_8airplay29discovery10advertiserNtB5_14RaopAdvertiser13status_handle
FNDA:0,_RNvMs3_NtNtCslUrB7RWuRKg_8airplay29discovery10advertiserNtB5_14RaopAdvertiser13update_status
FNDA:8,_RNvMs3_NtNtCslUrB7RWuRKg_8airplay29discovery10advertiserNtB5_14RaopAdvertiser3new
FNDA:8,_RNvMs3_NtNtCslUrB7RWuRKg_8airplay29discovery10advertiserNtB5_14RaopAdvertiser8register
FNDA:0,_RNvMs3_NtNtCslUrB7RWuRKg_8airplay29discovery10advertiserNtB5_14RaopAdvertiser8set_busy
FNDA:0,_RNvMs5_NtNtCslUrB7RWuRKg_8airplay29discovery10advertiserNtB5_19AsyncRaopAdvertiser12service_name
FNDA:0,_RNvMs5_NtNtCslUrB7RWuRKg_8airplay29discovery10advertiserNtB5_19AsyncRaopAdvertiser13update_status
FNDA:0,_RNvMs5_NtNtCslUrB7RWuRKg_8airplay29discovery10advertiserNtB5_19AsyncRaopAdvertiser3mac
FNDA:8,_RNvMs5_NtNtCslUrB7RWuRKg_8airplay29discovery10advertiserNtB5_19AsyncRaopAdvertiser5start
FNDA:0,_RNvMs5_NtNtCslUrB7RWuRKg_8airplay29discovery10advertiserNtB5_19AsyncRaopAdvertiser8set_busy
FNDA:1,_RNvMs5_NtNtCslUrB7RWuRKg_8airplay29discovery10advertiserNtB5_19AsyncRaopAdvertiser8shutdown
FNDA:0,_RNvMs6_NtNtCslUrB7RWuRKg_8airplay29discovery10advertiserNtB5_17ServiceAdvertiser10unregister
FNDA:0,_RNvMs6_NtNtCslUrB7RWuRKg_8airplay29discovery10advertiserNtB5_17ServiceAdvertiser12get_hostname
FNDA:0,_RNvMs6_NtNtCslUrB7RWuRKg_8airplay29discovery10advertiserNtB5_17ServiceAdvertiser14unregister_all
FNDA:0,_RNvMs6_NtNtCslUrB7RWuRKg_8airplay29discovery10advertiserNtB5_17ServiceAdvertiser3new
FNDA:0,_RNvMs6_NtNtCslUrB7RWuRKg_8airplay29discovery10advertiserNtB5_17ServiceAdvertiser8register
FNDA:8,_RNvMs_NtNtCslUrB7RWuRKg_8airplay29discovery10advertiserNtB4_19ReceiverStatusFlags8to_flags
FNDA:8,_RNvNtNtCslUrB7RWuRKg_8airplay29discovery10advertiser13get_mac_linux
FNDA:8,_RNvNtNtCslUrB7RWuRKg_8airplay29discovery10advertiser14get_device_mac
FNDA:8,_RNvNtNtCslUrB7RWuRKg_8airplay29discovery10advertiser16parse_mac_string
FNDA:8,_RNvNtNtCslUrB7RWuRKg_8airplay29discovery10advertiser19generate_stable_mac
FNDA:16,_RNvNtNtCslUrB7RWuRKg_8airplay29discovery10advertiser22format_mac_for_service
FNDA:16,_RNvXNtNtCslUrB7RWuRKg_8airplay29discovery10advertiserNtB2_16RaopCapabilitiesNtNtCs3XFJfFEDSOQ_4core7default7Default7default
FNDA:0,_RNvXs1_NtNtCslUrB7RWuRKg_8airplay29discovery10advertiserNtB5_16TxtRecordBuilderNtNtCs3XFJfFEDSOQ_4core7default7Default7default
FNDA:8,_RNvXs2_NtNtCslUrB7RWuRKg_8airplay29discovery10advertiserNtB5_16AdvertiserConfigNtNtCs3XFJfFEDSOQ_4core7default7Default7default
FNDA:8,_RNvXs4_NtNtCslUrB7RWuRKg_8airplay29discovery10advertiserNtB5_14RaopAdvertiserNtNtNtCs3XFJfFEDSOQ_4core3ops4drop4Drop4drop
FNDA:0,_RNCNCNvNtNtCslUrB7RWuRKg_8airplay29discovery10advertiser19generate_stable_mac00B9_
FNDA:0,_RNCNCNvNtNtCslUrB7RWuRKg_8airplay29discovery10advertiser19generate_stable_mac0s_0B9_
FNDA:0,_RNCNvMs0_NtNtCslUrB7RWuRKg_8airplay29discovery10advertiserNtB7_16TxtRecordBuilder5build0Bb_
FNDA:0,_RNCNvMs3_NtNtCslUrB7RWuRKg_8airplay29discovery10advertiserNtB7_14RaopAdvertiser3new0Bb_
FNDA:0,_RNCNvMs6_NtNtCslUrB7RWuRKg_8airplay29discovery10advertiserNtB7_17ServiceAdvertiser12get_hostname0Bb_
FNDA:0,_RNCNvMs6_NtNtCslUrB7RWuRKg_8airplay29discovery10advertiserNtB7_17ServiceAdvertiser12get_hostnames_0Bb_
FNDA:0,_RNCNvNtNtCslUrB7RWuRKg_8airplay29discovery10advertiser13get_mac_linux0B7_
FNDA:0,_RNCNvNtNtCslUrB7RWuRKg_8airplay29discovery10advertiser13get_mac_linuxs_0B7_
FNDA:8,_RNCNvNtNtCslUrB7RWuRKg_8airplay29discovery10advertiser14get_device_mac0B7_
FNDA:0,_RNCNvNtNtCslUrB7RWuRKg_8airplay29discovery10advertiser16parse_mac_string0B7_
FNDA:0,_RNCNvNtNtCslUrB7RWuRKg_8airplay29discovery10advertiser19generate_stable_mac0B7_
FNDA:0,_RNCNCNvMs5_NtNtCs41oluKY1Omx_8airplay29discovery10advertiserNtB9_19AsyncRaopAdvertiser5start00Bd_
FNDA:0,_RNCNCNvMs5_NtNtCs41oluKY1Omx_8airplay29discovery10advertiserNtB9_19AsyncRaopAdvertiser5start0s_0Bd_
FNDA:0,_RNCNCNvMs6_NtNtCs41oluKY1Omx_8airplay29discovery10advertiserNtB9_17ServiceAdvertiser8register00Bd_
FNDA:0,_RNCNvMs5_NtNtCs41oluKY1Omx_8airplay29discovery10advertiserNtB7_19AsyncRaopAdvertiser13update_status0Bb_
FNDA:0,_RNCNvMs5_NtNtCs41oluKY1Omx_8airplay29discovery10advertiserNtB7_19AsyncRaopAdvertiser5start0Bb_
FNDA:0,_RNCNvMs5_NtNtCs41oluKY1Omx_8airplay29discovery10advertiserNtB7_19AsyncRaopAdvertiser8set_busy0Bb_
FNDA:0,_RNCNvMs5_NtNtCs41oluKY1Omx_8airplay29discovery10advertiserNtB7_19AsyncRaopAdvertiser8shutdown0Bb_
FNDA:0,_RNCNvMs6_NtNtCs41oluKY1Omx_8airplay29discovery10advertiserNtB7_17ServiceAdvertiser10unregister0Bb_
FNDA:0,_RNCNvMs6_NtNtCs41oluKY1Omx_8airplay29discovery10advertiserNtB7_17ServiceAdvertiser12get_hostname0Bb_
FNDA:0,_RNCNvMs6_NtNtCs41oluKY1Omx_8airplay29discovery10advertiserNtB7_17ServiceAdvertiser12get_hostnames_0Bb_
FNDA:0,_RNCNvMs6_NtNtCs41oluKY1Omx_8airplay29discovery10advertiserNtB7_17ServiceAdvertiser14unregister_all0Bb_
FNDA:0,_RNCNvMs6_NtNtCs41oluKY1Omx_8airplay29discovery10advertiserNtB7_17ServiceAdvertiser8register0Bb_
FNDA:0,_RNCNvNtNtCs41oluKY1Omx_8airplay29discovery10advertiser13get_mac_linux0B7_
FNDA:0,_RNCNvNtNtCs41oluKY1Omx_8airplay29discovery10advertiser13get_mac_linuxs_0B7_
FNDA:0,_RNCNvNtNtCs41oluKY1Omx_8airplay29discovery10advertiser14get_device_mac0B7_
FNDA:0,_RNvMs3_NtNtCs41oluKY1Omx_8airplay29discovery10advertiserNtB5_14RaopAdvertiser13status_handle
FNDA:0,_RNvMs3_NtNtCs41oluKY1Omx_8airplay29discovery10advertiserNtB5_14RaopAdvertiser13update_status
FNDA:0,_RNvMs3_NtNtCs41oluKY1Omx_8airplay29discovery10advertiserNtB5_14RaopAdvertiser8register
FNDA:0,_RNvMs3_NtNtCs41oluKY1Omx_8airplay29discovery10advertiserNtB5_14RaopAdvertiser8set_busy
FNDA:0,_RNvMs5_NtNtCs41oluKY1Omx_8airplay29discovery10advertiserNtB5_19AsyncRaopAdvertiser12service_name
FNDA:0,_RNvMs5_NtNtCs41oluKY1Omx_8airplay29discovery10advertiserNtB5_19AsyncRaopAdvertiser13update_status
FNDA:0,_RNvMs5_NtNtCs41oluKY1Omx_8airplay29discovery10advertiserNtB5_19AsyncRaopAdvertiser3mac
FNDA:0,_RNvMs5_NtNtCs41oluKY1Omx_8airplay29discovery10advertiserNtB5_19AsyncRaopAdvertiser5start
FNDA:0,_RNvMs5_NtNtCs41oluKY1Omx_8airplay29discovery10advertiserNtB5_19AsyncRaopAdvertiser8set_busy
FNDA:0,_RNvMs5_NtNtCs41oluKY1Omx_8airplay29discovery10advertiserNtB5_19AsyncRaopAdvertiser8shutdown
FNDA:0,_RNvMs6_NtNtCs41oluKY1Omx_8airplay29discovery10advertiserNtB5_17ServiceAdvertiser10unregister
FNDA:0,_RNvMs6_NtNtCs41oluKY1Omx_8airplay29discovery10advertiserNtB5_17ServiceAdvertiser12get_hostname
FNDA:0,_RNvMs6_NtNtCs41oluKY1Omx_8airplay29discovery10advertiserNtB5_17ServiceAdvertiser14unregister_all
FNDA:0,_RNvMs6_NtNtCs41oluKY1Omx_8airplay29discovery10advertiserNtB5_17ServiceAdvertiser3new
FNDA:0,_RNvMs6_NtNtCs41oluKY1Omx_8airplay29discovery10advertiserNtB5_17ServiceAdvertiser8register
FNDA:0,_RNvNtNtCs41oluKY1Omx_8airplay29discovery10advertiser13get_mac_linux
FNDA:0,_RNvNtNtCs41oluKY1Omx_8airplay29discovery10advertiser14get_device_mac
FNDA:0,_RNvXs1_NtNtCs41oluKY1Omx_8airplay29discovery10advertiserNtB5_16TxtRecordBuilderNtNtCs3XFJfFEDSOQ_4core7default7Default7default
FNDA:2,_RNvXs4_NtNtCs41oluKY1Omx_8airplay29discovery10advertiserNtB5_14RaopAdvertiserNtNtNtCs3XFJfFEDSOQ_4core3ops4drop4Drop4drop
FNDA:21,_RNvMs0_NtNtCs41oluKY1Omx_8airplay29discovery10advertiserNtB5_16TxtRecordBuilder11format_list
FNDA:7,_RNvMs0_NtNtCs41oluKY1Omx_8airplay29discovery10advertiserNtB5_16TxtRecordBuilder17from_capabilities
FNDA:101,_RNvMs0_NtNtCs41oluKY1Omx_8airplay29discovery10advertiserNtB5_16TxtRecordBuilder3add
FNDA:9,_RNvMs0_NtNtCs41oluKY1Omx_8airplay29discovery10advertiserNtB5_16TxtRecordBuilder3new
FNDA:2,_RNvMs0_NtNtCs41oluKY1Omx_8airplay29discovery10advertiserNtB5_16TxtRecordBuilder5build
FNDA:9,_RNvMs0_NtNtCs41oluKY1Omx_8airplay29discovery10advertiserNtB5_16TxtRecordBuilder9build_map
FNDA:0,_RNvMs3_NtNtCs41oluKY1Omx_8airplay29discovery10advertiserNtB5_14RaopAdvertiser10unregister
FNDA:2,_RNvMs3_NtNtCs41oluKY1Omx_8airplay29discovery10advertiserNtB5_14RaopAdvertiser12service_name
FNDA:3,_RNvMs3_NtNtCs41oluKY1Omx_8airplay29discovery10advertiserNtB5_14RaopAdvertiser3new
FNDA:11,_RNvMs_NtNtCs41oluKY1Omx_8airplay29discovery10advertiserNtB4_19ReceiverStatusFlags8to_flags
FNDA:5,_RNvNtNtCs41oluKY1Omx_8airplay29discovery10advertiser16parse_mac_string
FNDA:2,_RNvNtNtCs41oluKY1Omx_8airplay29discovery10advertiser19generate_stable_mac
FNDA:4,_RNvNtNtCs41oluKY1Omx_8airplay29discovery10advertiser22format_mac_for_service
FNDA:17,_RNvXNtNtCs41oluKY1Omx_8airplay29discovery10advertiserNtB2_16RaopCapabilitiesNtNtCs3XFJfFEDSOQ_4core7default7Default7default
FNDA:6,_RNvXs2_NtNtCs41oluKY1Omx_8airplay29discovery10advertiserNtB5_16AdvertiserConfigNtNtCs3XFJfFEDSOQ_4core7default7Default7default
FNDA:0,_RNCNCNvNtNtCs41oluKY1Omx_8airplay29discovery10advertiser19generate_stable_mac00B9_
FNDA:0,_RNCNCNvNtNtCs41oluKY1Omx_8airplay29discovery10advertiser19generate_stable_mac0s_0B9_
FNDA:1,_RNCNvMs0_NtNtCs41oluKY1Omx_8airplay29discovery10advertiserNtB7_16TxtRecordBuilder5build0Bb_
FNDA:1,_RNCNvMs3_NtNtCs41oluKY1Omx_8airplay29discovery10advertiserNtB7_14RaopAdvertiser3new0Bb_
FNDA:1,_RNCNvNtNtCs41oluKY1Omx_8airplay29discovery10advertiser16parse_mac_string0B7_
FNDA:0,_RNCNvNtNtCs41oluKY1Omx_8airplay29discovery10advertiser19generate_stable_mac0B7_
FNDA:0,_RNCNCNvMs5_NtNtCslUrB7RWuRKg_8airplay29discovery10advertiserNtB9_19AsyncRaopAdvertiser5start00Cs7qOya6UwqVm_14full_handshake
FNDA:1,_RNCNCNvMs5_NtNtCslUrB7RWuRKg_8airplay29discovery10advertiserNtB9_19AsyncRaopAdvertiser5start0s_0Cs7qOya6UwqVm_14full_handshake
FNDA:1,_RNCNvMs5_NtNtCslUrB7RWuRKg_8airplay29discovery10advertiserNtB7_19AsyncRaopAdvertiser5start0Cs7qOya6UwqVm_14full_handshake
FNDA:0,_RNCNvMs5_NtNtCslUrB7RWuRKg_8airplay29discovery10advertiserNtB7_19AsyncRaopAdvertiser8shutdown0Cs7qOya6UwqVm_14full_handshake
FNDA:0,_RNCNCNvMs5_NtNtCslUrB7RWuRKg_8airplay29discovery10advertiserNtB9_19AsyncRaopAdvertiser5start00CskOUeWxhMxgQ_8receiver
FNDA:6,_RNCNCNvMs5_NtNtCslUrB7RWuRKg_8airplay29discovery10advertiserNtB9_19AsyncRaopAdvertiser5start0s_0CskOUeWxhMxgQ_8receiver
FNDA:6,_RNCNvMs5_NtNtCslUrB7RWuRKg_8airplay29discovery10advertiserNtB7_19AsyncRaopAdvertiser5start0CskOUeWxhMxgQ_8receiver
FNDA:0,_RNCNvMs5_NtNtCslUrB7RWuRKg_8airplay29discovery10advertiserNtB7_19AsyncRaopAdvertiser8shutdown0CskOUeWxhMxgQ_8receiver
FNDA:0,_RNCNCNvMs5_NtNtCslUrB7RWuRKg_8airplay29discovery10advertiserNtB9_19AsyncRaopAdvertiser5start00CsfXRwIH3W2T4_20receiver_integration
FNDA:1,_RNCNCNvMs5_NtNtCslUrB7RWuRKg_8airplay29discovery10advertiserNtB9_19AsyncRaopAdvertiser5start0s_0CsfXRwIH3W2T4_20receiver_integration
FNDA:1,_RNCNvMs5_NtNtCslUrB7RWuRKg_8airplay29discovery10advertiserNtB7_19AsyncRaopAdvertiser5start0CsfXRwIH3W2T4_20receiver_integration
FNDA:1,_RNCNvMs5_NtNtCslUrB7RWuRKg_8airplay29discovery10advertiserNtB7_19AsyncRaopAdvertiser8shutdown0CsfXRwIH3W2T4_20receiver_integration
FNF:55
FNH:28
DA:42,8
DA:51,8
DA:64,8
DA:76,8
DA:81,8
DA:82,8
DA:83,0
DA:84,0
DA:85,0
DA:86,8
DA:88,8
DA:89,8
DA:91,8
DA:92,8
DA:93,8
DA:96,8
DA:97,0
DA:98,8
DA:100,8
DA:101,8
DA:102,8
DA:103,8
DA:104,8
DA:105,0
DA:106,0
DA:109,0
DA:110,0
DA:111,0
DA:112,8
DA:122,13
DA:123,13
DA:124,13
DA:125,11
DA:126,11
DA:127,11
DA:128,2
DA:130,2
DA:131,9
DA:132,9
DA:133,9
DA:136,1
DA:137,13
DA:144,10
DA:149,10
DA:151,0
DA:152,0
DA:153,0
DA:155,0
DA:157,10
DA:158,10
DA:159,10
DA:162,10
DA:163,10
DA:164,10
DA:165,10
DA:166,10
DA:167,10
DA:168,10
DA:170,10
DA:171,10
DA:175,20
DA:176,20
DA:177,20
DA:178,20
DA:180,20
DA:208,33
DA:209,33
DA:210,33
DA:211,33
DA:212,33
DA:213,33
DA:214,33
DA:215,33
DA:216,33
DA:217,33
DA:218,33
DA:219,33
DA:220,33
DA:221,33
DA:245,19
DA:246,19
DA:249,19
DA:250,4
DA:251,15
DA:252,19
DA:253,3
DA:254,16
DA:255,19
DA:256,4
DA:257,15
DA:258,19
DA:259,3
DA:260,16
DA:262,19
DA:263,19
DA:274,17
DA:275,17
DA:276,17
DA:277,17
DA:278,17
DA:282,15
DA:283,15
DA:286,15
DA:289,15
DA:290,15
DA:291,15
DA:294,15
DA:297,15
DA:300,15
DA:303,15
DA:306,15
DA:307,15
DA:308,15
DA:309,1
DA:311,14
DA:316,15
DA:317,15
DA:318,15
DA:321,15
DA:325,15
DA:327,15
DA:328,15
DA:331,213
DA:332,213
DA:333,213
DA:334,213
DA:338,2
DA:339,2
DA:340,2
DA:341,2
DA:342,2
DA:343,2
DA:347,17
DA:348,17
DA:349,17
DA:351,45
DA:352,45
DA:353,45
DA:354,45
DA:355,45
DA:356,45
DA:357,45
DA:361,0
DA:362,0
DA:363,0
DA:380,14
DA:381,14
DA:382,14
DA:383,14
DA:384,14
DA:385,14
DA:386,14
DA:387,14
DA:408,11
DA:409,11
DA:411,11
DA:412,1
DA:413,1
DA:414,1
DA:415,1
DA:417,10
DA:418,10
DA:419,10
DA:420,10
DA:421,10
DA:422,10
DA:423,10
DA:424,11
DA:428,10
DA:429,10
DA:430,10
DA:437,8
DA:438,8
DA:439,0
DA:440,8
DA:442,8
DA:443,8
DA:446,8
DA:447,8
DA:451,8
DA:452,8
DA:453,8
DA:455,8
DA:456,8
DA:457,8
DA:458,8
DA:460,8
DA:461,8
DA:462,0
DA:465,8
DA:467,8
DA:469,8
DA:472,0
DA:475,8
DA:476,8
DA:483,8
DA:484,8
DA:485,8
DA:486,8
DA:487,8
DA:489,8
DA:491,8
DA:493,8
DA:494,8
DA:503,0
DA:504,0
DA:505,0
DA:506,0
DA:507,0
DA:510,0
DA:512,0
DA:513,0
DA:514,0
DA:516,0
DA:517,0
DA:524,0
DA:525,0
DA:526,0
DA:527,0
DA:531,0
DA:532,0
DA:533,0
DA:537,10
DA:539,10
DA:540,0
DA:541,10
DA:542,10
DA:571,8
DA:572,8
DA:574,8
DA:575,0
DA:577,8
DA:578,8
DA:579,8
DA:580,0
DA:582,8
DA:583,8
DA:587,8
DA:589,8
DA:590,8
DA:591,8
DA:592,0
DA:593,0
DA:594,0
DA:598,8
DA:599,0
DA:600,0
DA:601,8
DA:604,8
DA:605,1
DA:606,0
DA:607,0
DA:608,0
DA:609,0
DA:612,1
DA:618,8
DA:619,8
DA:621,8
DA:622,8
DA:623,8
DA:624,8
DA:625,8
DA:626,8
DA:627,8
DA:634,0
DA:636,0
DA:637,0
DA:640,0
DA:641,0
DA:642,0
DA:643,0
DA:644,0
DA:651,0
DA:652,0
DA:653,0
DA:654,0
DA:655,0
DA:659,0
DA:660,0
DA:661,0
DA:665,0
DA:666,0
DA:667,0
DA:670,1
DA:671,1
DA:672,1
DA:688,0
DA:689,0
DA:691,0
DA:692,0
DA:693,0
DA:694,0
DA:695,0
DA:702,0
DA:703,0
DA:704,0
DA:705,0
DA:706,0
DA:707,0
DA:708,0
DA:709,0
DA:711,0
DA:712,0
DA:713,0
DA:714,0
DA:716,0
DA:717,0
DA:718,0
DA:719,0
DA:720,0
DA:722,0
DA:724,0
DA:726,0
DA:728,0
DA:729,0
DA:730,0
DA:731,0
DA:733,0
DA:734,0
DA:741,0
DA:742,0
DA:743,0
DA:744,0
DA:745,0
DA:746,0
DA:747,0
DA:749,0
DA:750,0
DA:751,0
DA:752,0
DA:759,0
DA:761,0
DA:762,0
DA:763,0
DA:767,0
DA:768,0
DA:771,0
DA:772,0
DA:774,0
DA:775,0
DA:776,0
DA:777,0
DA:779,0
BRF:0
BRH:0
LF:361
LH:226
end_of_record
SF:/app/src/discovery/browser.rs
FN:242,_RNCNCNvMs0_NtNtCslUrB7RWuRKg_8airplay29discovery7browserNtB9_19DeviceBrowserStream15handle_resolveds5_00Bd_
FN:342,_RNCNvMs0_NtNtCslUrB7RWuRKg_8airplay29discovery7browserNtB7_19DeviceBrowserStream14handle_removed0Bb_
FN:179,_RNCNvMs0_NtNtCslUrB7RWuRKg_8airplay29discovery7browserNtB7_19DeviceBrowserStream15handle_resolved0Bb_
FN:203,_RNCNvMs0_NtNtCslUrB7RWuRKg_8airplay29discovery7browserNtB7_19DeviceBrowserStream15handle_resolveds0_0Bb_
FN:213,_RNCNvMs0_NtNtCslUrB7RWuRKg_8airplay29discovery7browserNtB7_19DeviceBrowserStream15handle_resolveds1_0Bb_
FN:229,_RNCNvMs0_NtNtCslUrB7RWuRKg_8airplay29discovery7browserNtB7_19DeviceBrowserStream15handle_resolveds2_0Bb_
FN:236,_RNCNvMs0_NtNtCslUrB7RWuRKg_8airplay29discovery7browserNtB7_19DeviceBrowserStream15handle_resolveds4_0Bb_
FN:238,_RNCNvMs0_NtNtCslUrB7RWuRKg_8airplay29discovery7browserNtB7_19DeviceBrowserStream15handle_resolveds5_0Bb_
FN:253,_RNCNvMs0_NtNtCslUrB7RWuRKg_8airplay29discovery7browserNtB7_19DeviceBrowserStream15handle_resolveds6_0Bb_
FN:201,_RNCNvMs0_NtNtCslUrB7RWuRKg_8airplay29discovery7browserNtB7_19DeviceBrowserStream15handle_resolveds_0Bb_
FN:107,_RNCNvMs0_NtNtCslUrB7RWuRKg_8airplay29discovery7browserNtB7_19DeviceBrowserStream3new0Bb_
FN:123,_RNCNvMs0_NtNtCslUrB7RWuRKg_8airplay29discovery7browserNtB7_19DeviceBrowserStream3news0_0Bb_
FN:130,_RNCNvMs0_NtNtCslUrB7RWuRKg_8airplay29discovery7browserNtB7_19DeviceBrowserStream3news1_0Bb_
FN:138,_RNCNvMs0_NtNtCslUrB7RWuRKg_8airplay29discovery7browserNtB7_19DeviceBrowserStream3news2_0Bb_
FN:114,_RNCNvMs0_NtNtCslUrB7RWuRKg_8airplay29discovery7browserNtB7_19DeviceBrowserStream3news_0Bb_
FN:153,_RNvMs0_NtNtCslUrB7RWuRKg_8airplay29discovery7browserNtB5_19DeviceBrowserStream13process_event
FN:329,_RNvMs0_NtNtCslUrB7RWuRKg_8airplay29discovery7browserNtB5_19DeviceBrowserStream14handle_removed
FN:168,_RNvMs0_NtNtCslUrB7RWuRKg_8airplay29discovery7browserNtB5_19DeviceBrowserStream15handle_resolved
FN:105,_RNvMs0_NtNtCslUrB7RWuRKg_8airplay29discovery7browserNtB5_19DeviceBrowserStream3new
FN:79,_RNvMs_NtNtCslUrB7RWuRKg_8airplay29discovery7browserNtB4_13DeviceBrowser12with_options
FN:66,_RNvMs_NtNtCslUrB7RWuRKg_8airplay29discovery7browserNtB4_13DeviceBrowser3new
FN:88,_RNvMs_NtNtCslUrB7RWuRKg_8airplay29discovery7browserNtB4_13DeviceBrowser6browse
FN:26,_RNvXNtNtCslUrB7RWuRKg_8airplay29discovery7browserNtB2_16DiscoveryOptionsNtNtCs3XFJfFEDSOQ_4core7default7Default7default
FN:362,_RNvXs1_NtNtCslUrB7RWuRKg_8airplay29discovery7browserNtB5_19DeviceBrowserStreamNtNtCshv7XfChRVjw_12futures_core6stream6Stream9poll_next
FN:378,_RNvXs2_NtNtCslUrB7RWuRKg_8airplay29discovery7browserNtB5_19DeviceBrowserStreamNtNtNtCs3XFJfFEDSOQ_4core3ops4drop4Drop4drop
FN:153,_RNvMs0_NtNtCs41oluKY1Omx_8airplay29discovery7browserNtB5_19DeviceBrowserStream13process_event
FN:329,_RNvMs0_NtNtCs41oluKY1Omx_8airplay29discovery7browserNtB5_19DeviceBrowserStream14handle_removed
FN:168,_RNvMs0_NtNtCs41oluKY1Omx_8airplay29discovery7browserNtB5_19DeviceBrowserStream15handle_resolved
FN:105,_RNvMs0_NtNtCs41oluKY1Omx_8airplay29discovery7browserNtB5_19DeviceBrowserStream3new
FN:79,_RNvMs_NtNtCs41oluKY1Omx_8airplay29discovery7browserNtB4_13DeviceBrowser12with_options
FN:66,_RNvMs_NtNtCs41oluKY1Omx_8airplay29discovery7browserNtB4_13DeviceBrowser3new
FN:88,_RNvMs_NtNtCs41oluKY1Omx_8airplay29discovery7browserNtB4_13DeviceBrowser6browse
FN:26,_RNvXNtNtCs41oluKY1Omx_8airplay29discovery7browserNtB2_16DiscoveryOptionsNtNtCs3XFJfFEDSOQ_4core7default7Default7default
FN:362,_RNvXs1_NtNtCs41oluKY1Omx_8airplay29discovery7browserNtB5_19DeviceBrowserStreamNtNtCshv7XfChRVjw_12futures_core6stream6Stream9poll_next
FN:378,_RNvXs2_NtNtCs41oluKY1Omx_8airplay29discovery7browserNtB5_19DeviceBrowserStreamNtNtNtCs3XFJfFEDSOQ_4core3ops4drop4Drop4drop
FN:242,_RNCNCNvMs0_NtNtCs41oluKY1Omx_8airplay29discovery7browserNtB9_19DeviceBrowserStream15handle_resolveds5_00Bd_
FN:342,_RNCNvMs0_NtNtCs41oluKY1Omx_8airplay29discovery7browserNtB7_19DeviceBrowserStream14handle_removed0Bb_
FN:179,_RNCNvMs0_NtNtCs41oluKY1Omx_8airplay29discovery7browserNtB7_19DeviceBrowserStream15handle_resolved0Bb_
FN:203,_RNCNvMs0_NtNtCs41oluKY1Omx_8airplay29discovery7browserNtB7_19DeviceBrowserStream15handle_resolveds0_0Bb_
FN:213,_RNCNvMs0_NtNtCs41oluKY1Omx_8airplay29discovery7browserNtB7_19DeviceBrowserStream15handle_resolveds1_0Bb_
FN:229,_RNCNvMs0_NtNtCs41oluKY1Omx_8airplay29discovery7browserNtB7_19DeviceBrowserStream15handle_resolveds2_0Bb_
FN:236,_RNCNvMs0_NtNtCs41oluKY1Omx_8airplay29discovery7browserNtB7_19DeviceBrowserStream15handle_resolveds4_0Bb_
FN:238,_RNCNvMs0_NtNtCs41oluKY1Omx_8airplay29discovery7browserNtB7_19DeviceBrowserStream15handle_resolveds5_0Bb_
FN:253,_RNCNvMs0_NtNtCs41oluKY1Omx_8airplay29discovery7browserNtB7_19DeviceBrowserStream15handle_resolveds6_0Bb_
FN:201,_RNCNvMs0_NtNtCs41oluKY1Omx_8airplay29discovery7browserNtB7_19DeviceBrowserStream15handle_resolveds_0Bb_
FN:107,_RNCNvMs0_NtNtCs41oluKY1Omx_8airplay29discovery7browserNtB7_19DeviceBrowserStream3new0Bb_
FN:123,_RNCNvMs0_NtNtCs41oluKY1Omx_8airplay29discovery7browserNtB7_19DeviceBrowserStream3news0_0Bb_
FN:130,_RNCNvMs0_NtNtCs41oluKY1Omx_8airplay29discovery7browserNtB7_19DeviceBrowserStream3news1_0Bb_
FN:138,_RNCNvMs0_NtNtCs41oluKY1Omx_8airplay29discovery7browserNtB7_19DeviceBrowserStream3news2_0Bb_
FN:114,_RNCNvMs0_NtNtCs41oluKY1Omx_8airplay29discovery7browserNtB7_19DeviceBrowserStream3news_0Bb_
FNDA:0,_RNCNCNvMs0_NtNtCslUrB7RWuRKg_8airplay29discovery7browserNtB9_19DeviceBrowserStream15handle_resolveds5_00Bd_
FNDA:0,_RNCNvMs0_NtNtCslUrB7RWuRKg_8airplay29discovery7browserNtB7_19DeviceBrowserStream14handle_removed0Bb_
FNDA:0,_RNCNvMs0_NtNtCslUrB7RWuRKg_8airplay29discovery7browserNtB7_19DeviceBrowserStream15handle_resolved0Bb_
FNDA:0,_RNCNvMs0_NtNtCslUrB7RWuRKg_8airplay29discovery7browserNtB7_19DeviceBrowserStream15handle_resolveds0_0Bb_
FNDA:0,_RNCNvMs0_NtNtCslUrB7RWuRKg_8airplay29discovery7browserNtB7_19DeviceBrowserStream15handle_resolveds1_0Bb_
FNDA:0,_RNCNvMs0_NtNtCslUrB7RWuRKg_8airplay29discovery7browserNtB7_19DeviceBrowserStream15handle_resolveds2_0Bb_
FNDA:0,_RNCNvMs0_NtNtCslUrB7RWuRKg_8airplay29discovery7browserNtB7_19DeviceBrowserStream15handle_resolveds4_0Bb_
FNDA:0,_RNCNvMs0_NtNtCslUrB7RWuRKg_8airplay29discovery7browserNtB7_19DeviceBrowserStream15handle_resolveds5_0Bb_
FNDA:0,_RNCNvMs0_NtNtCslUrB7RWuRKg_8airplay29discovery7browserNtB7_19DeviceBrowserStream15handle_resolveds6_0Bb_
FNDA:0,_RNCNvMs0_NtNtCslUrB7RWuRKg_8airplay29discovery7browserNtB7_19DeviceBrowserStream15handle_resolveds_0Bb_
FNDA:0,_RNCNvMs0_NtNtCslUrB7RWuRKg_8airplay29discovery7browserNtB7_19DeviceBrowserStream3new0Bb_
FNDA:5,_RNCNvMs0_NtNtCslUrB7RWuRKg_8airplay29discovery7browserNtB7_19DeviceBrowserStream3news0_0Bb_
FNDA:0,_RNCNvMs0_NtNtCslUrB7RWuRKg_8airplay29discovery7browserNtB7_19DeviceBrowserStream3news1_0Bb_
FNDA:5,_RNCNvMs0_NtNtCslUrB7RWuRKg_8airplay29discovery7browserNtB7_19DeviceBrowserStream3news2_0Bb_
FNDA:0,_RNCNvMs0_NtNtCslUrB7RWuRKg_8airplay29discovery7browserNtB7_19DeviceBrowserStream3news_0Bb_
FNDA:10,_RNvMs0_NtNtCslUrB7RWuRKg_8airplay29discovery7browserNtB5_19DeviceBrowserStream13process_event
FNDA:0,_RNvMs0_NtNtCslUrB7RWuRKg_8airplay29discovery7browserNtB5_19DeviceBrowserStream14handle_removed
FNDA:0,_RNvMs0_NtNtCslUrB7RWuRKg_8airplay29discovery7browserNtB5_19DeviceBrowserStream15handle_resolved
FNDA:2,_RNvMs0_NtNtCslUrB7RWuRKg_8airplay29discovery7browserNtB5_19DeviceBrowserStream3new
FNDA:0,_RNvMs_NtNtCslUrB7RWuRKg_8airplay29discovery7browserNtB4_13DeviceBrowser12with_options
FNDA:2,_RNvMs_NtNtCslUrB7RWuRKg_8airplay29discovery7browserNtB4_13DeviceBrowser3new
FNDA:2,_RNvMs_NtNtCslUrB7RWuRKg_8airplay29discovery7browserNtB4_13DeviceBrowser6browse
FNDA:2,_RNvXNtNtCslUrB7RWuRKg_8airplay29discovery7browserNtB2_16DiscoveryOptionsNtNtCs3XFJfFEDSOQ_4core7default7Default7default
FNDA:14,_RNvXs1_NtNtCslUrB7RWuRKg_8airplay29discovery7browserNtB5_19DeviceBrowserStreamNtNtCshv7XfChRVjw_12futures_core6stream6Stream9poll_next
FNDA:2,_RNvXs2_NtNtCslUrB7RWuRKg_8airplay29discovery7browserNtB5_19DeviceBrowserStreamNtNtNtCs3XFJfFEDSOQ_4core3ops4drop4Drop4drop
FNDA:2,_RNvMs0_NtNtCs41oluKY1Omx_8airplay29discovery7browserNtB5_19DeviceBrowserStream13process_event
FNDA:0,_RNvMs0_NtNtCs41oluKY1Omx_8airplay29discovery7browserNtB5_19DeviceBrowserStream14handle_removed
FNDA:0,_RNvMs0_NtNtCs41oluKY1Omx_8airplay29discovery7browserNtB5_19DeviceBrowserStream15handle_resolved
FNDA:1,_RNvMs0_NtNtCs41oluKY1Omx_8airplay29discovery7browserNtB5_19DeviceBrowserStream3new
FNDA:0,_RNvMs_NtNtCs41oluKY1Omx_8airplay29discovery7browserNtB4_13DeviceBrowser12with_options
FNDA:1,_RNvMs_NtNtCs41oluKY1Omx_8airplay29discovery7browserNtB4_13DeviceBrowser3new
FNDA:1,_RNvMs_NtNtCs41oluKY1Omx_8airplay29discovery7browserNtB4_13DeviceBrowser6browse
FNDA:1,_RNvXNtNtCs41oluKY1Omx_8airplay29discovery7browserNtB2_16DiscoveryOptionsNtNtCs3XFJfFEDSOQ_4core7default7Default7default
FNDA:4,_RNvXs1_NtNtCs41oluKY1Omx_8airplay29discovery7browserNtB5_19DeviceBrowserStreamNtNtCshv7XfChRVjw_12futures_core6stream6Stream9poll_next
FNDA:1,_RNvXs2_NtNtCs41oluKY1Omx_8airplay29discovery7browserNtB5_19DeviceBrowserStreamNtNtNtCs3XFJfFEDSOQ_4core3ops4drop4Drop4drop
FNDA:0,_RNCNCNvMs0_NtNtCs41oluKY1Omx_8airplay29discovery7browserNtB9_19DeviceBrowserStream15handle_resolveds5_00Bd_
FNDA:0,_RNCNvMs0_NtNtCs41oluKY1Omx_8airplay29discovery7browserNtB7_19DeviceBrowserStream14handle_removed0Bb_
FNDA:0,_RNCNvMs0_NtNtCs41oluKY1Omx_8airplay29discovery7browserNtB7_19DeviceBrowserStream15handle_resolved0Bb_
FNDA:0,_RNCNvMs0_NtNtCs41oluKY1Omx_8airplay29discovery7browserNtB7_19DeviceBrowserStream15handle_resolveds0_0Bb_
FNDA:0,_RNCNvMs0_NtNtCs41oluKY1Omx_8airplay29discovery7browserNtB7_19DeviceBrowserStream15handle_resolveds1_0Bb_
FNDA:0,_RNCNvMs0_NtNtCs41oluKY1Omx_8airplay29discovery7browserNtB7_19DeviceBrowserStream15handle_resolveds2_0Bb_
FNDA:0,_RNCNvMs0_NtNtCs41oluKY1Omx_8airplay29discovery7browserNtB7_19DeviceBrowserStream15handle_resolveds4_0Bb_
FNDA:0,_RNCNvMs0_NtNtCs41oluKY1Omx_8airplay29discovery7browserNtB7_19DeviceBrowserStream15handle_resolveds5_0Bb_
FNDA:0,_RNCNvMs0_NtNtCs41oluKY1Omx_8airplay29discovery7browserNtB7_19DeviceBrowserStream15handle_resolveds6_0Bb_
FNDA:0,_RNCNvMs0_NtNtCs41oluKY1Omx_8airplay29discovery7browserNtB7_19DeviceBrowserStream15handle_resolveds_0Bb_
FNDA:0,_RNCNvMs0_NtNtCs41oluKY1Omx_8airplay29discovery7browserNtB7_19DeviceBrowserStream3new0Bb_
FNDA:1,_RNCNvMs0_NtNtCs41oluKY1Omx_8airplay29discovery7browserNtB7_19DeviceBrowserStream3news0_0Bb_
FNDA:0,_RNCNvMs0_NtNtCs41oluKY1Omx_8airplay29discovery7browserNtB7_19DeviceBrowserStream3news1_0Bb_
FNDA:1,_RNCNvMs0_NtNtCs41oluKY1Omx_8airplay29discovery7browserNtB7_19DeviceBrowserStream3news2_0Bb_
FNDA:0,_RNCNvMs0_NtNtCs41oluKY1Omx_8airplay29discovery7browserNtB7_19DeviceBrowserStream3news_0Bb_
FNF:25
FNH:9
DA:26,3
DA:27,3
DA:28,3
DA:29,3
DA:30,3
DA:31,3
DA:32,3
DA:33,3
DA:66,3
DA:69,3
DA:70,3
DA:71,3
DA:72,3
DA:73,3
DA:74,3
DA:75,3
DA:79,0
DA:80,0
DA:81,0
DA:88,3
DA:89,3
DA:90,3
DA:105,3
DA:106,3
DA:107,0
DA:108,0
DA:109,0
DA:111,3
DA:113,3
DA:114,3
DA:115,0
DA:116,0
DA:117,0
DA:118,0
DA:119,0
DA:121,3
DA:122,3
DA:123,6
DA:126,3
DA:127,0
DA:129,3
DA:130,3
DA:131,0
DA:132,0
DA:133,0
DA:134,0
DA:135,0
DA:136,3
DA:137,3
DA:138,6
DA:139,3
DA:140,0
DA:142,3
DA:144,3
DA:145,3
DA:146,3
DA:147,3
DA:148,3
DA:149,3
DA:150,3
DA:151,3
DA:153,12
DA:154,12
DA:155,12
DA:156,12
DA:157,12
DA:158,12
DA:159,0
DA:160,0
DA:162,0
DA:163,12
DA:165,12
DA:168,0
DA:169,0
DA:170,0
DA:171,0
DA:172,0
DA:173,0
DA:176,0
DA:177,0
DA:178,0
DA:179,0
DA:180,0
DA:181,0
DA:182,0
DA:183,0
DA:186,0
DA:191,0
DA:192,0
DA:195,0
DA:199,0
DA:200,0
DA:201,0
DA:202,0
DA:203,0
DA:207,0
DA:210,0
DA:211,0
DA:212,0
DA:213,0
DA:215,0
DA:216,0
DA:217,0
DA:218,0
DA:220,0
DA:221,0
DA:222,0
DA:223,0
DA:224,0
DA:227,0
DA:228,0
DA:229,0
DA:234,0
DA:235,0
DA:236,0
DA:237,0
DA:238,0
DA:239,0
DA:240,0
DA:241,0
DA:242,0
DA:243,0
DA:249,0
DA:250,0
DA:251,0
DA:252,0
DA:253,0
DA:255,0
DA:256,0
DA:257,0
DA:258,0
DA:259,0
DA:260,0
DA:261,0
DA:262,0
DA:263,0
DA:264,0
DA:265,0
DA:266,0
DA:270,0
DA:271,0
DA:272,0
DA:273,0
DA:274,0
DA:275,0
DA:278,0
DA:279,0
DA:280,0
DA:281,0
DA:285,0
DA:288,0
DA:289,0
DA:290,0
DA:291,0
DA:292,0
DA:293,0
DA:294,0
DA:295,0
DA:296,0
DA:297,0
DA:301,0
DA:302,0
DA:303,0
DA:304,0
DA:307,0
DA:308,0
DA:309,0
DA:310,0
DA:312,0
DA:313,0
DA:315,0
DA:318,0
DA:319,0
DA:321,0
DA:324,0
DA:326,0
DA:327,0
DA:329,0
DA:331,0
DA:333,0
DA:334,0
DA:342,0
DA:344,0
DA:348,0
DA:350,0
DA:351,0
DA:354,0
DA:356,0
DA:362,18
DA:364,30
DA:365,12
DA:366,0
DA:367,18
DA:370,12
DA:371,0
DA:372,12
DA:374,18
DA:378,3
DA:380,3
DA:381,3
DA:382,3
DA:383,3
DA:384,3
DA:385,3
DA:386,3
DA:387,3
BRF:0
BRH:0
LF:222
LH:69
end_of_record
SF:/app/src/discovery/mod.rs
FN:127,_RNCNvNtCslUrB7RWuRKg_8airplay29discovery16scan_with_config0B5_
FN:171,_RNCNvNtCslUrB7RWuRKg_8airplay29discovery17scan_with_options0B5_
FN:115,_RNCNvNtCslUrB7RWuRKg_8airplay29discovery4scan0B5_
FN:124,_RNvNtCslUrB7RWuRKg_8airplay29discovery16scan_with_config
FN:169,_RNvNtCslUrB7RWuRKg_8airplay29discovery17scan_with_options
FN:68,_RNvNtCslUrB7RWuRKg_8airplay29discovery20discover_with_config
FN:80,_RNvNtCslUrB7RWuRKg_8airplay29discovery21discover_with_options
FN:115,_RNvNtCslUrB7RWuRKg_8airplay29discovery4scan
FN:58,_RNvNtCslUrB7RWuRKg_8airplay29discovery8discover
FN:169,_RNvNtCs41oluKY1Omx_8airplay29discovery17scan_with_options
FN:68,_RNvNtCs41oluKY1Omx_8airplay29discovery20discover_with_config
FN:80,_RNvNtCs41oluKY1Omx_8airplay29discovery21discover_with_options
FN:58,_RNvNtCs41oluKY1Omx_8airplay29discovery8discover
FN:127,_RNCNvNtCs41oluKY1Omx_8airplay29discovery16scan_with_config0B5_
FN:171,_RNCNvNtCs41oluKY1Omx_8airplay29discovery17scan_with_options0B5_
FN:115,_RNCNvNtCs41oluKY1Omx_8airplay29discovery4scan0B5_
FN:124,_RNvNtCs41oluKY1Omx_8airplay29discovery16scan_with_config
FN:115,_RNvNtCs41oluKY1Omx_8airplay29discovery4scan
FNDA:2,_RNCNvNtCslUrB7RWuRKg_8airplay29discovery16scan_with_config0B5_
FNDA:0,_RNCNvNtCslUrB7RWuRKg_8airplay29discovery17scan_with_options0B5_
FNDA:2,_RNCNvNtCslUrB7RWuRKg_8airplay29discovery4scan0B5_
FNDA:2,_RNvNtCslUrB7RWuRKg_8airplay29discovery16scan_with_config
FNDA:0,_RNvNtCslUrB7RWuRKg_8airplay29discovery17scan_with_options
FNDA:0,_RNvNtCslUrB7RWuRKg_8airplay29discovery20discover_with_config
FNDA:0,_RNvNtCslUrB7RWuRKg_8airplay29discovery21discover_with_options
FNDA:2,_RNvNtCslUrB7RWuRKg_8airplay29discovery4scan
FNDA:0,_RNvNtCslUrB7RWuRKg_8airplay29discovery8discover
FNDA:0,_RNvNtCs41oluKY1Omx_8airplay29discovery17scan_with_options
FNDA:0,_RNvNtCs41oluKY1Omx_8airplay29discovery20discover_with_config
FNDA:0,_RNvNtCs41oluKY1Omx_8airplay29discovery21discover_with_options
FNDA:0,_RNvNtCs41oluKY1Omx_8airplay29discovery8discover
FNDA:1,_RNCNvNtCs41oluKY1Omx_8airplay29discovery16scan_with_config0B5_
FNDA:0,_RNCNvNtCs41oluKY1Omx_8airplay29discovery17scan_with_options0B5_
FNDA:1,_RNCNvNtCs41oluKY1Omx_8airplay29discovery4scan0B5_
FNDA:1,_RNvNtCs41oluKY1Omx_8airplay29discovery16scan_with_config
FNDA:1,_RNvNtCs41oluKY1Omx_8airplay29discovery4scan
FNF:9
FNH:4
DA:58,0
DA:59,0
DA:60,0
DA:68,0
DA:69,0
DA:70,0
DA:71,0
DA:72,0
DA:73,0
DA:80,0
DA:81,0
DA:82,0
DA:83,0
DA:84,0
DA:85,0
DA:115,3
DA:116,3
DA:117,3
DA:124,3
DA:125,3
DA:126,3
DA:127,3
DA:132,3
DA:133,3
DA:135,3
DA:138,3
DA:140,3
DA:143,3
DA:144,3
DA:145,3
DA:147,3
DA:148,0
DA:149,0
DA:150,0
DA:151,0
DA:152,0
DA:153,0
DA:154,0
DA:155,0
DA:161,3
DA:162,3
DA:169,0
DA:170,0
DA:171,0
DA:176,0
DA:177,0
DA:178,0
DA:180,0
DA:181,0
DA:183,0
DA:186,0
DA:187,0
DA:188,0
DA:190,0
DA:191,0
DA:192,0
DA:193,0
DA:194,0
DA:195,0
DA:196,0
DA:197,0
DA:198,0
DA:204,0
DA:205,0
BRF:0
BRH:0
LF:67
LH:20
end_of_record
SF:/app/src/discovery/parser.rs
FN:12,_RNCNvNtNtCslUrB7RWuRKg_8airplay29discovery6parser17parse_txt_records0B7_
FN:51,_RNCNvNtNtCslUrB7RWuRKg_8airplay29discovery6parser9parse_hex0B7_
FN:26,_RNvNtNtCslUrB7RWuRKg_8airplay29discovery6parser14parse_features
FN:58,_RNvNtNtCslUrB7RWuRKg_8airplay29discovery6parser16parse_model_name
FN:9,_RNvNtNtCslUrB7RWuRKg_8airplay29discovery6parser17parse_txt_records
FN:47,_RNvNtNtCslUrB7RWuRKg_8airplay29discovery6parser9parse_hex
FN:12,_RNCNvNtNtCs41oluKY1Omx_8airplay29discovery6parser17parse_txt_records0B7_
FN:51,_RNCNvNtNtCs41oluKY1Omx_8airplay29discovery6parser9parse_hex0B7_
FN:26,_RNvNtNtCs41oluKY1Omx_8airplay29discovery6parser14parse_features
FN:58,_RNvNtNtCs41oluKY1Omx_8airplay29discovery6parser16parse_model_name
FN:9,_RNvNtNtCs41oluKY1Omx_8airplay29discovery6parser17parse_txt_records
FN:47,_RNvNtNtCs41oluKY1Omx_8airplay29discovery6parser9parse_hex
FNDA:0,_RNCNvNtNtCslUrB7RWuRKg_8airplay29discovery6parser17parse_txt_records0B7_
FNDA:0,_RNCNvNtNtCslUrB7RWuRKg_8airplay29discovery6parser9parse_hex0B7_
FNDA:0,_RNvNtNtCslUrB7RWuRKg_8airplay29discovery6parser14parse_features
FNDA:0,_RNvNtNtCslUrB7RWuRKg_8airplay29discovery6parser16parse_model_name
FNDA:0,_RNvNtNtCslUrB7RWuRKg_8airplay29discovery6parser17parse_txt_records
FNDA:0,_RNvNtNtCslUrB7RWuRKg_8airplay29discovery6parser9parse_hex
FNDA:8,_RNCNvNtNtCs41oluKY1Omx_8airplay29discovery6parser17parse_txt_records0B7_
FNDA:5,_RNCNvNtNtCs41oluKY1Omx_8airplay29discovery6parser9parse_hex0B7_
FNDA:11,_RNvNtNtCs41oluKY1Omx_8airplay29discovery6parser14parse_features
FNDA:2,_RNvNtNtCs41oluKY1Omx_8airplay29discovery6parser16parse_model_name
FNDA:2,_RNvNtNtCs41oluKY1Omx_8airplay29discovery6parser17parse_txt_records
FNDA:13,_RNvNtNtCs41oluKY1Omx_8airplay29discovery6parser9parse_hex
FNF:6
FNH:6
DA:9,2
DA:10,2
DA:11,2
DA:12,8
DA:13,8
DA:14,8
DA:15,8
DA:16,8
DA:17,8
DA:18,2
DA:19,2
DA:26,11
DA:27,11
DA:30,2
DA:31,2
DA:32,2
DA:33,2
DA:34,1
DA:36,0
DA:40,9
DA:43,7
DA:44,11
DA:47,13
DA:48,13
DA:49,13
DA:50,13
DA:51,13
DA:52,13
DA:53,13
DA:54,13
DA:58,2
DA:60,2
DA:61,2
DA:62,2
DA:63,1
DA:64,1
DA:65,1
DA:66,1
DA:67,1
DA:68,1
DA:69,1
DA:71,2
BRF:0
BRH:0
LF:44
LH:43
end_of_record
SF:/app/src/discovery/raop.rs
FN:27,_RNvNtNtCslUrB7RWuRKg_8airplay29discovery4raop18format_mac_address
FN:11,_RNvNtNtCslUrB7RWuRKg_8airplay29discovery4raop23parse_raop_service_name
FN:31,_RNCNvNtNtCslUrB7RWuRKg_8airplay29discovery4raop18format_mac_address0B7_
FN:18,_RNCNvNtNtCslUrB7RWuRKg_8airplay29discovery4raop23parse_raop_service_name0B7_
FN:31,_RNCNvNtNtCs41oluKY1Omx_8airplay29discovery4raop18format_mac_address0B7_
FN:18,_RNCNvNtNtCs41oluKY1Omx_8airplay29discovery4raop23parse_raop_service_name0B7_
FN:27,_RNvNtNtCs41oluKY1Omx_8airplay29discovery4raop18format_mac_address
FN:11,_RNvNtNtCs41oluKY1Omx_8airplay29discovery4raop23parse_raop_service_name
FNDA:0,_RNvNtNtCslUrB7RWuRKg_8airplay29discovery4raop18format_mac_address
FNDA:1,_RNvNtNtCslUrB7RWuRKg_8airplay29discovery4raop23parse_raop_service_name
FNDA:0,_RNCNvNtNtCslUrB7RWuRKg_8airplay29discovery4raop18format_mac_address0B7_
FNDA:12,_RNCNvNtNtCslUrB7RWuRKg_8airplay29discovery4raop23parse_raop_service_name0B7_
FNDA:6,_RNCNvNtNtCs41oluKY1Omx_8airplay29discovery4raop18format_mac_address0B7_
FNDA:24,_RNCNvNtNtCs41oluKY1Omx_8airplay29discovery4raop23parse_raop_service_name0B7_
FNDA:1,_RNvNtNtCs41oluKY1Omx_8airplay29discovery4raop18format_mac_address
FNDA:2,_RNvNtNtCs41oluKY1Omx_8airplay29discovery4raop23parse_raop_service_name
FNF:4
FNH:4
DA:11,3
DA:12,3
DA:13,3
DA:14,3
DA:15,3
DA:18,36
DA:19,3
DA:20,0
DA:21,0
DA:22,0
DA:23,3
DA:27,1
DA:28,1
DA:29,1
DA:30,1
DA:31,6
DA:32,1
DA:33,1
DA:34,1
BRF:0
BRH:0
LF:21
LH:18
end_of_record
SF:/app/src/error.rs
FN:247,_RNvMNtCslUrB7RWuRKg_8airplay25errorNtB2_12AirPlayError14is_recoverable
FN:259,_RNvMNtCslUrB7RWuRKg_8airplay25errorNtB2_12AirPlayError18is_connection_lost
FN:247,_RNvMNtCs41oluKY1Omx_8airplay25errorNtB2_12AirPlayError14is_recoverable
FN:259,_RNvMNtCs41oluKY1Omx_8airplay25errorNtB2_12AirPlayError18is_connection_lost
FNDA:0,_RNvMNtCslUrB7RWuRKg_8airplay25errorNtB2_12AirPlayError14is_recoverable
FNDA:0,_RNvMNtCslUrB7RWuRKg_8airplay25errorNtB2_12AirPlayError18is_connection_lost
FNDA:6,_RNvMNtCs41oluKY1Omx_8airplay25errorNtB2_12AirPlayError14is_recoverable
FNDA:2,_RNvMNtCs41oluKY1Omx_8airplay25errorNtB2_12AirPlayError18is_connection_lost
FNF:2
FNH:2
DA:247,6
DA:248,4
DA:249,6
DA:255,6
DA:259,2
DA:260,1
DA:261,2
DA:266,2
BRF:0
BRH:0
LF:8
LH:8
end_of_record
SF:/app/src/group/manager.rs
FN:26,_RINvMNtNtCslUrB7RWuRKg_8airplay25group7managerNtB3_7GroupId11from_stringpEB7_
FN:86,_RINvMs0_NtNtCslUrB7RWuRKg_8airplay25group7managerNtB6_11DeviceGroup11with_leaderpEBa_
FN:74,_RINvMs0_NtNtCslUrB7RWuRKg_8airplay25group7managerNtB6_11DeviceGroup3newpEBa_
FN:232,_RINvMs1_NtNtCslUrB7RWuRKg_8airplay25group7managerNtB6_12GroupManager12create_grouppEBa_
FN:244,_RINvMs1_NtNtCslUrB7RWuRKg_8airplay25group7managerNtB6_12GroupManager25create_group_with_devicespEBa_
FN:232,_RNCINvMs1_NtNtCslUrB7RWuRKg_8airplay25group7managerNtB8_12GroupManager12create_grouppE0Bc_
FN:248,_RNCINvMs1_NtNtCslUrB7RWuRKg_8airplay25group7managerNtB8_12GroupManager25create_group_with_devicespE0Bc_
FN:297,_RNCNvMs1_NtNtCslUrB7RWuRKg_8airplay25group7managerNtB7_12GroupManager10all_groups0Bb_
FN:276,_RNCNvMs1_NtNtCslUrB7RWuRKg_8airplay25group7managerNtB7_12GroupManager12delete_group0Bb_
FN:376,_RNCNvMs1_NtNtCslUrB7RWuRKg_8airplay25group7managerNtB7_12GroupManager16set_group_volume0Bb_
FN:302,_RNCNvMs1_NtNtCslUrB7RWuRKg_8airplay25group7managerNtB7_12GroupManager17find_device_group0Bb_
FN:398,_RNCNvMs1_NtNtCslUrB7RWuRKg_8airplay25group7managerNtB7_12GroupManager17set_member_volume0Bb_
FN:315,_RNCNvMs1_NtNtCslUrB7RWuRKg_8airplay25group7managerNtB7_12GroupManager19add_device_to_group0Bb_
FN:348,_RNCNvMs1_NtNtCslUrB7RWuRKg_8airplay25group7managerNtB7_12GroupManager24remove_device_from_group0Bb_
FN:292,_RNCNvMs1_NtNtCslUrB7RWuRKg_8airplay25group7managerNtB7_12GroupManager9get_group0Bb_
FN:106,_RNCNvMs0_NtNtCslUrB7RWuRKg_8airplay25group7managerNtB7_11DeviceGroup10add_member0Bb_
FN:159,_RNCNvMs0_NtNtCslUrB7RWuRKg_8airplay25group7managerNtB7_11DeviceGroup10member_mut0Bb_
FN:125,_RNCNvMs0_NtNtCslUrB7RWuRKg_8airplay25group7managerNtB7_11DeviceGroup13remove_member0Bb_
FN:154,_RNCNvMs0_NtNtCslUrB7RWuRKg_8airplay25group7managerNtB7_11DeviceGroup6member0Bb_
FN:19,_RNvMNtNtCslUrB7RWuRKg_8airplay25group7managerNtB2_7GroupId3new
FN:32,_RNvMNtNtCslUrB7RWuRKg_8airplay25group7managerNtB2_7GroupId6as_str
FN:105,_RNvMs0_NtNtCslUrB7RWuRKg_8airplay25group7managerNtB5_11DeviceGroup10add_member
FN:158,_RNvMs0_NtNtCslUrB7RWuRKg_8airplay25group7managerNtB5_11DeviceGroup10member_mut
FN:176,_RNvMs0_NtNtCslUrB7RWuRKg_8airplay25group7managerNtB5_11DeviceGroup10set_volume
FN:196,_RNvMs0_NtNtCslUrB7RWuRKg_8airplay25group7managerNtB5_11DeviceGroup12member_count
FN:202,_RNvMs0_NtNtCslUrB7RWuRKg_8airplay25group7managerNtB5_11DeviceGroup13all_connected
FN:124,_RNvMs0_NtNtCslUrB7RWuRKg_8airplay25group7managerNtB5_11DeviceGroup13remove_member
FN:208,_RNvMs0_NtNtCslUrB7RWuRKg_8airplay25group7managerNtB5_11DeviceGroup15connected_count
FN:182,_RNvMs0_NtNtCslUrB7RWuRKg_8airplay25group7managerNtB5_11DeviceGroup16effective_volume
FN:163,_RNvMs0_NtNtCslUrB7RWuRKg_8airplay25group7managerNtB5_11DeviceGroup17set_member_volume
FN:141,_RNvMs0_NtNtCslUrB7RWuRKg_8airplay25group7managerNtB5_11DeviceGroup6leader
FN:153,_RNvMs0_NtNtCslUrB7RWuRKg_8airplay25group7managerNtB5_11DeviceGroup6member
FN:171,_RNvMs0_NtNtCslUrB7RWuRKg_8airplay25group7managerNtB5_11DeviceGroup6volume
FN:147,_RNvMs0_NtNtCslUrB7RWuRKg_8airplay25group7managerNtB5_11DeviceGroup7members
FN:190,_RNvMs0_NtNtCslUrB7RWuRKg_8airplay25group7managerNtB5_11DeviceGroup8is_empty
FN:297,_RNvMs1_NtNtCslUrB7RWuRKg_8airplay25group7managerNtB5_12GroupManager10all_groups
FN:276,_RNvMs1_NtNtCslUrB7RWuRKg_8airplay25group7managerNtB5_12GroupManager12delete_group
FN:372,_RNvMs1_NtNtCslUrB7RWuRKg_8airplay25group7managerNtB5_12GroupManager16set_group_volume
FN:302,_RNvMs1_NtNtCslUrB7RWuRKg_8airplay25group7managerNtB5_12GroupManager17find_device_group
FN:393,_RNvMs1_NtNtCslUrB7RWuRKg_8airplay25group7managerNtB5_12GroupManager17set_member_volume
FN:311,_RNvMs1_NtNtCslUrB7RWuRKg_8airplay25group7managerNtB5_12GroupManager19add_device_to_group
FN:348,_RNvMs1_NtNtCslUrB7RWuRKg_8airplay25group7managerNtB5_12GroupManager24remove_device_from_group
FN:224,_RNvMs1_NtNtCslUrB7RWuRKg_8airplay25group7managerNtB5_12GroupManager3new
FN:292,_RNvMs1_NtNtCslUrB7RWuRKg_8airplay25group7managerNtB5_12GroupManager9get_group
FN:412,_RNvXs2_NtNtCslUrB7RWuRKg_8airplay25group7managerNtB5_12GroupManagerNtNtCs3XFJfFEDSOQ_4core7default7Default7default
FN:38,_RNvXs_NtNtCslUrB7RWuRKg_8airplay25group7managerNtB4_7GroupIdNtNtCs3XFJfFEDSOQ_4core7default7Default7default
FN:26,_RINvMNtNtCs41oluKY1Omx_8airplay25group7managerNtB3_7GroupId11from_stringpEB7_
FN:86,_RINvMs0_NtNtCs41oluKY1Omx_8airplay25group7managerNtB6_11DeviceGroup11with_leaderpEBa_
FN:297,_RNCNvMs1_NtNtCs41oluKY1Omx_8airplay25group7managerNtB7_12GroupManager10all_groups0Bb_
FN:276,_RNCNvMs1_NtNtCs41oluKY1Omx_8airplay25group7managerNtB7_12GroupManager12delete_group0Bb_
FN:376,_RNCNvMs1_NtNtCs41oluKY1Omx_8airplay25group7managerNtB7_12GroupManager16set_group_volume0Bb_
FN:302,_RNCNvMs1_NtNtCs41oluKY1Omx_8airplay25group7managerNtB7_12GroupManager17find_device_group0Bb_
FN:398,_RNCNvMs1_NtNtCs41oluKY1Omx_8airplay25group7managerNtB7_12GroupManager17set_member_volume0Bb_
FN:348,_RNCNvMs1_NtNtCs41oluKY1Omx_8airplay25group7managerNtB7_12GroupManager24remove_device_from_group0Bb_
FN:202,_RNvMs0_NtNtCs41oluKY1Omx_8airplay25group7managerNtB5_11DeviceGroup13all_connected
FN:208,_RNvMs0_NtNtCs41oluKY1Omx_8airplay25group7managerNtB5_11DeviceGroup15connected_count
FN:141,_RNvMs0_NtNtCs41oluKY1Omx_8airplay25group7managerNtB5_11DeviceGroup6leader
FN:171,_RNvMs0_NtNtCs41oluKY1Omx_8airplay25group7managerNtB5_11DeviceGroup6volume
FN:190,_RNvMs0_NtNtCs41oluKY1Omx_8airplay25group7managerNtB5_11DeviceGroup8is_empty
FN:297,_RNvMs1_NtNtCs41oluKY1Omx_8airplay25group7managerNtB5_12GroupManager10all_groups
FN:276,_RNvMs1_NtNtCs41oluKY1Omx_8airplay25group7managerNtB5_12GroupManager12delete_group
FN:372,_RNvMs1_NtNtCs41oluKY1Omx_8airplay25group7managerNtB5_12GroupManager16set_group_volume
FN:302,_RNvMs1_NtNtCs41oluKY1Omx_8airplay25group7managerNtB5_12GroupManager17find_device_group
FN:393,_RNvMs1_NtNtCs41oluKY1Omx_8airplay25group7managerNtB5_12GroupManager17set_member_volume
FN:348,_RNvMs1_NtNtCs41oluKY1Omx_8airplay25group7managerNtB5_12GroupManager24remove_device_from_group
FN:412,_RNvXs2_NtNtCs41oluKY1Omx_8airplay25group7managerNtB5_12GroupManagerNtNtCs3XFJfFEDSOQ_4core7default7Default7default
FN:38,_RNvXs_NtNtCs41oluKY1Omx_8airplay25group7managerNtB4_7GroupIdNtNtCs3XFJfFEDSOQ_4core7default7Default7default
FN:74,_RINvMs0_NtNtCs41oluKY1Omx_8airplay25group7managerNtB6_11DeviceGroup3newReEBa_
FN:232,_RINvMs1_NtNtCs41oluKY1Omx_8airplay25group7managerNtB6_12GroupManager12create_groupReEBa_
FN:244,_RINvMs1_NtNtCs41oluKY1Omx_8airplay25group7managerNtB6_12GroupManager25create_group_with_devicesReEBa_
FN:232,_RNCINvMs1_NtNtCs41oluKY1Omx_8airplay25group7managerNtB8_12GroupManager12create_groupReE0Bc_
FN:248,_RNCINvMs1_NtNtCs41oluKY1Omx_8airplay25group7managerNtB8_12GroupManager25create_group_with_devicesReE0Bc_
FN:106,_RNCNvMs0_NtNtCs41oluKY1Omx_8airplay25group7managerNtB7_11DeviceGroup10add_member0Bb_
FN:159,_RNCNvMs0_NtNtCs41oluKY1Omx_8airplay25group7managerNtB7_11DeviceGroup10member_mut0Bb_
FN:125,_RNCNvMs0_NtNtCs41oluKY1Omx_8airplay25group7managerNtB7_11DeviceGroup13remove_member0Bb_
FN:154,_RNCNvMs0_NtNtCs41oluKY1Omx_8airplay25group7managerNtB7_11DeviceGroup6member0Bb_
FN:315,_RNCNvMs1_NtNtCs41oluKY1Omx_8airplay25group7managerNtB7_12GroupManager19add_device_to_group0Bb_
FN:292,_RNCNvMs1_NtNtCs41oluKY1Omx_8airplay25group7managerNtB7_12GroupManager9get_group0Bb_
FN:19,_RNvMNtNtCs41oluKY1Omx_8airplay25group7managerNtB2_7GroupId3new
FN:32,_RNvMNtNtCs41oluKY1Omx_8airplay25group7managerNtB2_7GroupId6as_str
FN:105,_RNvMs0_NtNtCs41oluKY1Omx_8airplay25group7managerNtB5_11DeviceGroup10add_member
FN:158,_RNvMs0_NtNtCs41oluKY1Omx_8airplay25group7managerNtB5_11DeviceGroup10member_mut
FN:176,_RNvMs0_NtNtCs41oluKY1Omx_8airplay25group7managerNtB5_11DeviceGroup10set_volume
FN:196,_RNvMs0_NtNtCs41oluKY1Omx_8airplay25group7managerNtB5_11DeviceGroup12member_count
FN:124,_RNvMs0_NtNtCs41oluKY1Omx_8airplay25group7managerNtB5_11DeviceGroup13remove_member
FN:182,_RNvMs0_NtNtCs41oluKY1Omx_8airplay25group7managerNtB5_11DeviceGroup16effective_volume
FN:163,_RNvMs0_NtNtCs41oluKY1Omx_8airplay25group7managerNtB5_11DeviceGroup17set_member_volume
FN:153,_RNvMs0_NtNtCs41oluKY1Omx_8airplay25group7managerNtB5_11DeviceGroup6member
FN:147,_RNvMs0_NtNtCs41oluKY1Omx_8airplay25group7managerNtB5_11DeviceGroup7members
FN:311,_RNvMs1_NtNtCs41oluKY1Omx_8airplay25group7managerNtB5_12GroupManager19add_device_to_group
FN:224,_RNvMs1_NtNtCs41oluKY1Omx_8airplay25group7managerNtB5_12GroupManager3new
FN:292,_RNvMs1_NtNtCs41oluKY1Omx_8airplay25group7managerNtB5_12GroupManager9get_group
FNDA:0,_RINvMNtNtCslUrB7RWuRKg_8airplay25group7managerNtB3_7GroupId11from_stringpEB7_
FNDA:0,_RINvMs0_NtNtCslUrB7RWuRKg_8airplay25group7managerNtB6_11DeviceGroup11with_leaderpEBa_
FNDA:0,_RINvMs0_NtNtCslUrB7RWuRKg_8airplay25group7managerNtB6_11DeviceGroup3newpEBa_
FNDA:0,_RINvMs1_NtNtCslUrB7RWuRKg_8airplay25group7managerNtB6_12GroupManager12create_grouppEBa_
FNDA:0,_RINvMs1_NtNtCslUrB7RWuRKg_8airplay25group7managerNtB6_12GroupManager25create_group_with_devicespEBa_
FNDA:0,_RNCINvMs1_NtNtCslUrB7RWuRKg_8airplay25group7managerNtB8_12GroupManager12create_grouppE0Bc_
FNDA:0,_RNCINvMs1_NtNtCslUrB7RWuRKg_8airplay25group7managerNtB8_12GroupManager25create_group_with_devicespE0Bc_
FNDA:0,_RNCNvMs1_NtNtCslUrB7RWuRKg_8airplay25group7managerNtB7_12GroupManager10all_groups0Bb_
FNDA:0,_RNCNvMs1_NtNtCslUrB7RWuRKg_8airplay25group7managerNtB7_12GroupManager12delete_group0Bb_
FNDA:0,_RNCNvMs1_NtNtCslUrB7RWuRKg_8airplay25group7managerNtB7_12GroupManager16set_group_volume0Bb_
FNDA:0,_RNCNvMs1_NtNtCslUrB7RWuRKg_8airplay25group7managerNtB7_12GroupManager17find_device_group0Bb_
FNDA:0,_RNCNvMs1_NtNtCslUrB7RWuRKg_8airplay25group7managerNtB7_12GroupManager17set_member_volume0Bb_
FNDA:0,_RNCNvMs1_NtNtCslUrB7RWuRKg_8airplay25group7managerNtB7_12GroupManager19add_device_to_group0Bb_
FNDA:0,_RNCNvMs1_NtNtCslUrB7RWuRKg_8airplay25group7managerNtB7_12GroupManager24remove_device_from_group0Bb_
FNDA:0,_RNCNvMs1_NtNtCslUrB7RWuRKg_8airplay25group7managerNtB7_12GroupManager9get_group0Bb_
FNDA:0,_RNCNvMs0_NtNtCslUrB7RWuRKg_8airplay25group7managerNtB7_11DeviceGroup10add_member0Bb_
FNDA:0,_RNCNvMs0_NtNtCslUrB7RWuRKg_8airplay25group7managerNtB7_11DeviceGroup10member_mut0Bb_
FNDA:0,_RNCNvMs0_NtNtCslUrB7RWuRKg_8airplay25group7managerNtB7_11DeviceGroup13remove_member0Bb_
FNDA:0,_RNCNvMs0_NtNtCslUrB7RWuRKg_8airplay25group7managerNtB7_11DeviceGroup6member0Bb_
FNDA:0,_RNvMNtNtCslUrB7RWuRKg_8airplay25group7managerNtB2_7GroupId3new
FNDA:0,_RNvMNtNtCslUrB7RWuRKg_8airplay25group7managerNtB2_7GroupId6as_str
FNDA:0,_RNvMs0_NtNtCslUrB7RWuRKg_8airplay25group7managerNtB5_11DeviceGroup10add_member
FNDA:0,_RNvMs0_NtNtCslUrB7RWuRKg_8airplay25group7managerNtB5_11DeviceGroup10member_mut
FNDA:0,_RNvMs0_NtNtCslUrB7RWuRKg_8airplay25group7managerNtB5_11DeviceGroup10set_volume
FNDA:0,_RNvMs0_NtNtCslUrB7RWuRKg_8airplay25group7managerNtB5_11DeviceGroup12member_count
FNDA:0,_RNvMs0_NtNtCslUrB7RWuRKg_8airplay25group7managerNtB5_11DeviceGroup13all_connected
FNDA:0,_RNvMs0_NtNtCslUrB7RWuRKg_8airplay25group7managerNtB5_11DeviceGroup13remove_member
FNDA:0,_RNvMs0_NtNtCslUrB7RWuRKg_8airplay25group7managerNtB5_11DeviceGroup15connected_count
FNDA:0,_RNvMs0_NtNtCslUrB7RWuRKg_8airplay25group7managerNtB5_11DeviceGroup16effective_volume
FNDA:0,_RNvMs0_NtNtCslUrB7RWuRKg_8airplay25group7managerNtB5_11DeviceGroup17set_member_volume
FNDA:0,_RNvMs0_NtNtCslUrB7RWuRKg_8airplay25group7managerNtB5_11DeviceGroup6leader
FNDA:0,_RNvMs0_NtNtCslUrB7RWuRKg_8airplay25group7managerNtB5_11DeviceGroup6member
FNDA:0,_RNvMs0_NtNtCslUrB7RWuRKg_8airplay25group7managerNtB5_11DeviceGroup6volume
FNDA:0,_RNvMs0_NtNtCslUrB7RWuRKg_8airplay25group7managerNtB5_11DeviceGroup7members
FNDA:0,_RNvMs0_NtNtCslUrB7RWuRKg_8airplay25group7managerNtB5_11DeviceGroup8is_empty
FNDA:0,_RNvMs1_NtNtCslUrB7RWuRKg_8airplay25group7managerNtB5_12GroupManager10all_groups
FNDA:0,_RNvMs1_NtNtCslUrB7RWuRKg_8airplay25group7managerNtB5_12GroupManager12delete_group
FNDA:0,_RNvMs1_NtNtCslUrB7RWuRKg_8airplay25group7managerNtB5_12GroupManager16set_group_volume
FNDA:0,_RNvMs1_NtNtCslUrB7RWuRKg_8airplay25group7managerNtB5_12GroupManager17find_device_group
FNDA:0,_RNvMs1_NtNtCslUrB7RWuRKg_8airplay25group7managerNtB5_12GroupManager17set_member_volume
FNDA:0,_RNvMs1_NtNtCslUrB7RWuRKg_8airplay25group7managerNtB5_12GroupManager19add_device_to_group
FNDA:0,_RNvMs1_NtNtCslUrB7RWuRKg_8airplay25group7managerNtB5_12GroupManager24remove_device_from_group
FNDA:0,_RNvMs1_NtNtCslUrB7RWuRKg_8airplay25group7managerNtB5_12GroupManager3new
FNDA:0,_RNvMs1_NtNtCslUrB7RWuRKg_8airplay25group7managerNtB5_12GroupManager9get_group
FNDA:0,_RNvXs2_NtNtCslUrB7RWuRKg_8airplay25group7managerNtB5_12GroupManagerNtNtCs3XFJfFEDSOQ_4core7default7Default7default
FNDA:0,_RNvXs_NtNtCslUrB7RWuRKg_8airplay25group7managerNtB4_7GroupIdNtNtCs3XFJfFEDSOQ_4core7default7Default7default
FNDA:0,_RINvMNtNtCs41oluKY1Omx_8airplay25group7managerNtB3_7GroupId11from_stringpEB7_
FNDA:0,_RINvMs0_NtNtCs41oluKY1Omx_8airplay25group7managerNtB6_11DeviceGroup11with_leaderpEBa_
FNDA:0,_RNCNvMs1_NtNtCs41oluKY1Omx_8airplay25group7managerNtB7_12GroupManager10all_groups0Bb_
FNDA:0,_RNCNvMs1_NtNtCs41oluKY1Omx_8airplay25group7managerNtB7_12GroupManager12delete_group0Bb_
FNDA:0,_RNCNvMs1_NtNtCs41oluKY1Omx_8airplay25group7managerNtB7_12GroupManager16set_group_volume0Bb_
FNDA:0,_RNCNvMs1_NtNtCs41oluKY1Omx_8airplay25group7managerNtB7_12GroupManager17find_device_group0Bb_
FNDA:0,_RNCNvMs1_NtNtCs41oluKY1Omx_8airplay25group7managerNtB7_12GroupManager17set_member_volume0Bb_
FNDA:0,_RNCNvMs1_NtNtCs41oluKY1Omx_8airplay25group7managerNtB7_12GroupManager24remove_device_from_group0Bb_
FNDA:0,_RNvMs0_NtNtCs41oluKY1Omx_8airplay25group7managerNtB5_11DeviceGroup13all_connected
FNDA:0,_RNvMs0_NtNtCs41oluKY1Omx_8airplay25group7managerNtB5_11DeviceGroup15connected_count
FNDA:0,_RNvMs0_NtNtCs41oluKY1Omx_8airplay25group7managerNtB5_11DeviceGroup6leader
FNDA:0,_RNvMs0_NtNtCs41oluKY1Omx_8airplay25group7managerNtB5_11DeviceGroup6volume
FNDA:0,_RNvMs0_NtNtCs41oluKY1Omx_8airplay25group7managerNtB5_11DeviceGroup8is_empty
FNDA:0,_RNvMs1_NtNtCs41oluKY1Omx_8airplay25group7managerNtB5_12GroupManager10all_groups
FNDA:0,_RNvMs1_NtNtCs41oluKY1Omx_8airplay25group7managerNtB5_12GroupManager12delete_group
FNDA:0,_RNvMs1_NtNtCs41oluKY1Omx_8airplay25group7managerNtB5_12GroupManager16set_group_volume
FNDA:0,_RNvMs1_NtNtCs41oluKY1Omx_8airplay25group7managerNtB5_12GroupManager17find_device_group
FNDA:0,_RNvMs1_NtNtCs41oluKY1Omx_8airplay25group7managerNtB5_12GroupManager17set_member_volume
FNDA:0,_RNvMs1_NtNtCs41oluKY1Omx_8airplay25group7managerNtB5_12GroupManager24remove_device_from_group
FNDA:0,_RNvXs2_NtNtCs41oluKY1Omx_8airplay25group7managerNtB5_12GroupManagerNtNtCs3XFJfFEDSOQ_4core7default7Default7default
FNDA:0,_RNvXs_NtNtCs41oluKY1Omx_8airplay25group7managerNtB4_7GroupIdNtNtCs3XFJfFEDSOQ_4core7default7Default7default
FNDA:7,_RINvMs0_NtNtCs41oluKY1Omx_8airplay25group7managerNtB6_11DeviceGroup3newReEBa_
FNDA:3,_RINvMs1_NtNtCs41oluKY1Omx_8airplay25group7managerNtB6_12GroupManager12create_groupReEBa_
FNDA:3,_RINvMs1_NtNtCs41oluKY1Omx_8airplay25group7managerNtB6_12GroupManager25create_group_with_devicesReEBa_
FNDA:3,_RNCINvMs1_NtNtCs41oluKY1Omx_8airplay25group7managerNtB8_12GroupManager12create_groupReE0Bc_
FNDA:3,_RNCINvMs1_NtNtCs41oluKY1Omx_8airplay25group7managerNtB8_12GroupManager25create_group_with_devicesReE0Bc_
FNDA:3,_RNCNvMs0_NtNtCs41oluKY1Omx_8airplay25group7managerNtB7_11DeviceGroup10add_member0Bb_
FNDA:1,_RNCNvMs0_NtNtCs41oluKY1Omx_8airplay25group7managerNtB7_11DeviceGroup10member_mut0Bb_
FNDA:1,_RNCNvMs0_NtNtCs41oluKY1Omx_8airplay25group7managerNtB7_11DeviceGroup13remove_member0Bb_
FNDA:1,_RNCNvMs0_NtNtCs41oluKY1Omx_8airplay25group7managerNtB7_11DeviceGroup6member0Bb_
FNDA:4,_RNCNvMs1_NtNtCs41oluKY1Omx_8airplay25group7managerNtB7_12GroupManager19add_device_to_group0Bb_
FNDA:2,_RNCNvMs1_NtNtCs41oluKY1Omx_8airplay25group7managerNtB7_12GroupManager9get_group0Bb_
FNDA:7,_RNvMNtNtCs41oluKY1Omx_8airplay25group7managerNtB2_7GroupId3new
FNDA:3,_RNvMNtNtCs41oluKY1Omx_8airplay25group7managerNtB2_7GroupId6as_str
FNDA:9,_RNvMs0_NtNtCs41oluKY1Omx_8airplay25group7managerNtB5_11DeviceGroup10add_member
FNDA:1,_RNvMs0_NtNtCs41oluKY1Omx_8airplay25group7managerNtB5_11DeviceGroup10member_mut
FNDA:1,_RNvMs0_NtNtCs41oluKY1Omx_8airplay25group7managerNtB5_11DeviceGroup10set_volume
FNDA:4,_RNvMs0_NtNtCs41oluKY1Omx_8airplay25group7managerNtB5_11DeviceGroup12member_count
FNDA:1,_RNvMs0_NtNtCs41oluKY1Omx_8airplay25group7managerNtB5_11DeviceGroup13remove_member
FNDA:1,_RNvMs0_NtNtCs41oluKY1Omx_8airplay25group7managerNtB5_11DeviceGroup16effective_volume
FNDA:1,_RNvMs0_NtNtCs41oluKY1Omx_8airplay25group7managerNtB5_11DeviceGroup17set_member_volume
FNDA:1,_RNvMs0_NtNtCs41oluKY1Omx_8airplay25group7managerNtB5_11DeviceGroup6member
FNDA:3,_RNvMs0_NtNtCs41oluKY1Omx_8airplay25group7managerNtB5_11DeviceGroup7members
FNDA:4,_RNvMs1_NtNtCs41oluKY1Omx_8airplay25group7managerNtB5_12GroupManager19add_device_to_group
FNDA:4,_RNvMs1_NtNtCs41oluKY1Omx_8airplay25group7managerNtB5_12GroupManager3new
FNDA:2,_RNvMs1_NtNtCs41oluKY1Omx_8airplay25group7managerNtB5_12GroupManager9get_group
FNF:46
FNH:25
DA:19,7
DA:20,7
DA:21,7
DA:22,7
DA:26,0
DA:27,0
DA:28,0
DA:32,3
DA:33,3
DA:34,3
DA:38,0
DA:39,0
DA:40,0
DA:74,7
DA:75,7
DA:76,7
DA:77,7
DA:78,7
DA:79,7
DA:80,7
DA:81,7
DA:82,7
DA:86,0
DA:87,0
DA:88,0
DA:89,0
DA:90,0
DA:91,0
DA:92,0
DA:93,0
DA:95,0
DA:96,0
DA:97,0
DA:98,0
DA:99,0
DA:100,0
DA:101,0
DA:102,0
DA:105,9
DA:106,9
DA:107,0
DA:108,9
DA:110,9
DA:111,9
DA:112,6
DA:113,6
DA:115,9
DA:116,9
DA:117,9
DA:118,9
DA:119,9
DA:120,9
DA:121,9
DA:124,1
DA:125,1
DA:126,1
DA:129,1
DA:130,1
DA:131,1
DA:132,1
DA:133,0
DA:134,0
DA:136,1
DA:137,1
DA:141,0
DA:142,0
DA:143,0
DA:147,3
DA:148,3
DA:149,3
DA:153,1
DA:154,1
DA:155,1
DA:158,1
DA:159,1
DA:160,1
DA:163,1
DA:164,1
DA:165,1
DA:166,1
DA:167,1
DA:171,0
DA:172,0
DA:173,0
DA:176,1
DA:177,1
DA:178,1
DA:182,1
DA:183,1
DA:185,1
DA:186,1
DA:190,0
DA:191,0
DA:192,0
DA:196,4
DA:197,4
DA:198,4
DA:202,0
DA:203,0
DA:204,0
DA:208,0
DA:209,0
DA:210,0
DA:224,4
DA:225,4
DA:226,4
DA:227,4
DA:228,4
DA:229,4
DA:232,3
DA:233,3
DA:234,3
DA:235,3
DA:236,3
DA:237,3
DA:244,3
DA:245,3
DA:246,3
DA:247,3
DA:248,3
DA:249,3
DA:250,3
DA:253,6
DA:254,4
DA:255,1
DA:256,1
DA:257,1
DA:258,1
DA:259,3
DA:262,2
DA:264,5
DA:265,3
DA:266,3
DA:267,3
DA:268,3
DA:270,2
DA:271,2
DA:272,2
DA:273,3
DA:276,0
DA:278,0
DA:279,0
DA:281,0
DA:284,0
DA:285,0
DA:286,0
DA:288,0
DA:289,0
DA:292,2
DA:293,2
DA:294,2
DA:297,0
DA:298,0
DA:299,0
DA:302,0
DA:303,0
DA:304,0
DA:311,4
DA:312,4
DA:313,4
DA:314,4
DA:315,4
DA:316,4
DA:319,4
DA:320,4
DA:323,4
DA:324,1
DA:325,1
DA:326,1
DA:327,1
DA:328,3
DA:331,3
DA:332,3
DA:333,3
DA:334,3
DA:335,3
DA:337,3
DA:338,3
DA:340,3
DA:341,4
DA:348,0
DA:350,0
DA:351,0
DA:353,0
DA:354,0
DA:355,0
DA:358,0
DA:359,0
DA:360,0
DA:361,0
DA:362,0
DA:364,0
DA:365,0
DA:372,0
DA:373,0
DA:374,0
DA:375,0
DA:376,0
DA:377,0
DA:378,0
DA:379,0
DA:380,0
DA:381,0
DA:382,0
DA:384,0
DA:385,0
DA:386,0
DA:393,0
DA:394,0
DA:395,0
DA:396,0
DA:397,0
DA:398,0
DA:399,0
DA:400,0
DA:401,0
DA:402,0
DA:403,0
DA:404,0
DA:406,0
DA:407,0
DA:408,0
DA:412,0
DA:413,0
DA:414,0
BRF:0
BRH:0
LF:239
LH:133
end_of_record
SF:/app/src/net/mod.rs
FN:35,_RNCNvMNtCslUrB7RWuRKg_8airplay23netNtB4_7Runtime5sleep0B6_
FN:50,_RINvMNtCslUrB7RWuRKg_8airplay23netNtB3_7Runtime7timeoutNCNvMNtNtB5_10connection7managerNtBW_17ConnectionManager16connect_internal0INtNtCs3XFJfFEDSOQ_4core6result6ResultuNtNtB5_5error12AirPlayErrorEEB5_
FN:53,_RNCINvMNtCslUrB7RWuRKg_8airplay23netNtB5_7Runtime7timeoutNCNvMNtNtB7_10connection7managerNtBY_17ConnectionManager16connect_internal0INtNtCs3XFJfFEDSOQ_4core6result6ResultuNtNtB7_5error12AirPlayErrorEE0B7_
FN:71,_RNvMNtCslUrB7RWuRKg_8airplay23netNtB2_7Runtime3now
FN:35,_RNvMNtCslUrB7RWuRKg_8airplay23netNtB2_7Runtime5sleep
FN:81,_RNvXs_NtCslUrB7RWuRKg_8airplay23netNtB4_12TimeoutErrorNtNtCs3XFJfFEDSOQ_4core3fmt7Display3fmt
FN:81,_RNvXs_NtCs41oluKY1Omx_8airplay23netNtB4_12TimeoutErrorNtNtCs3XFJfFEDSOQ_4core3fmt7Display3fmt
FN:50,_RINvMNtCs41oluKY1Omx_8airplay23netNtB3_7Runtime7timeoutNCNCNvNtNtB3_5tests11tokio_testss_20test_runtime_helpers00lEB5_
FN:50,_RINvMNtCs41oluKY1Omx_8airplay23netNtB3_7Runtime7timeoutNCNvB2_5sleep0uEB5_
FN:50,_RINvMNtCs41oluKY1Omx_8airplay23netNtB3_7Runtime7timeoutNCNvMNtNtB5_10connection7managerNtBW_17ConnectionManager16connect_internal0INtNtCs3XFJfFEDSOQ_4core6result6ResultuNtNtB5_5error12AirPlayErrorEEB5_
FN:53,_RNCINvMNtCs41oluKY1Omx_8airplay23netNtB5_7Runtime7timeoutNCNCNvNtNtB5_5tests11tokio_testss_20test_runtime_helpers00lE0B7_
FN:53,_RNCINvMNtCs41oluKY1Omx_8airplay23netNtB5_7Runtime7timeoutNCNvB4_5sleep0uE0B7_
FN:53,_RNCINvMNtCs41oluKY1Omx_8airplay23netNtB5_7Runtime7timeoutNCNvMNtNtB7_10connection7managerNtBY_17ConnectionManager16connect_internal0INtNtCs3XFJfFEDSOQ_4core6result6ResultuNtNtB7_5error12AirPlayErrorEE0B7_
FN:35,_RNCNvMNtCs41oluKY1Omx_8airplay23netNtB4_7Runtime5sleep0B6_
FN:71,_RNvMNtCs41oluKY1Omx_8airplay23netNtB2_7Runtime3now
FN:35,_RNvMNtCs41oluKY1Omx_8airplay23netNtB2_7Runtime5sleep
FNDA:0,_RNCNvMNtCslUrB7RWuRKg_8airplay23netNtB4_7Runtime5sleep0B6_
FNDA:6,_RINvMNtCslUrB7RWuRKg_8airplay23netNtB3_7Runtime7timeoutNCNvMNtNtB5_10connection7managerNtBW_17ConnectionManager16connect_internal0INtNtCs3XFJfFEDSOQ_4core6result6ResultuNtNtB5_5error12AirPlayErrorEEB5_
FNDA:6,_RNCINvMNtCslUrB7RWuRKg_8airplay23netNtB5_7Runtime7timeoutNCNvMNtNtB7_10connection7managerNtBY_17ConnectionManager16connect_internal0INtNtCs3XFJfFEDSOQ_4core6result6ResultuNtNtB7_5error12AirPlayErrorEE0B7_
FNDA:0,_RNvMNtCslUrB7RWuRKg_8airplay23netNtB2_7Runtime3now
FNDA:0,_RNvMNtCslUrB7RWuRKg_8airplay23netNtB2_7Runtime5sleep
FNDA:0,_RNvXs_NtCslUrB7RWuRKg_8airplay23netNtB4_12TimeoutErrorNtNtCs3XFJfFEDSOQ_4core3fmt7Display3fmt
FNDA:0,_RNvXs_NtCs41oluKY1Omx_8airplay23netNtB4_12TimeoutErrorNtNtCs3XFJfFEDSOQ_4core3fmt7Display3fmt
FNDA:1,_RINvMNtCs41oluKY1Omx_8airplay23netNtB3_7Runtime7timeoutNCNCNvNtNtB3_5tests11tokio_testss_20test_runtime_helpers00lEB5_
FNDA:1,_RINvMNtCs41oluKY1Omx_8airplay23netNtB3_7Runtime7timeoutNCNvB2_5sleep0uEB5_
FNDA:3,_RINvMNtCs41oluKY1Omx_8airplay23netNtB3_7Runtime7timeoutNCNvMNtNtB5_10connection7managerNtBW_17ConnectionManager16connect_internal0INtNtCs3XFJfFEDSOQ_4core6result6ResultuNtNtB5_5error12AirPlayErrorEEB5_
FNDA:1,_RNCINvMNtCs41oluKY1Omx_8airplay23netNtB5_7Runtime7timeoutNCNCNvNtNtB5_5tests11tokio_testss_20test_runtime_helpers00lE0B7_
FNDA:1,_RNCINvMNtCs41oluKY1Omx_8airplay23netNtB5_7Runtime7timeoutNCNvB4_5sleep0uE0B7_
FNDA:3,_RNCINvMNtCs41oluKY1Omx_8airplay23netNtB5_7Runtime7timeoutNCNvMNtNtB7_10connection7managerNtBY_17ConnectionManager16connect_internal0INtNtCs3XFJfFEDSOQ_4core6result6ResultuNtNtB7_5error12AirPlayErrorEE0B7_
FNDA:2,_RNCNvMNtCs41oluKY1Omx_8airplay23netNtB4_7Runtime5sleep0B6_
FNDA:1,_RNvMNtCs41oluKY1Omx_8airplay23netNtB2_7Runtime3now
FNDA:2,_RNvMNtCs41oluKY1Omx_8airplay23netNtB2_7Runtime5sleep
FNF:6
FNH:5
DA:35,2
DA:36,2
DA:37,1
DA:50,11
DA:51,11
DA:52,11
DA:53,11
DA:54,11
DA:55,11
DA:56,10
DA:57,10
DA:71,1
DA:72,1
DA:73,1
DA:81,0
DA:82,0
DA:83,0
BRF:0
BRH:0
LF:18
LH:15
end_of_record
SF:/app/src/net/secure.rs
FN:105,_RNCNvMNtNtCslUrB7RWuRKg_8airplay23net6secureNtB4_16HapSecureSession13decrypt_block0B8_
FN:116,_RNCNvMNtNtCslUrB7RWuRKg_8airplay23net6secureNtB4_16HapSecureSession13decrypt_blocks_0B8_
FN:45,_RNCNvMNtNtCslUrB7RWuRKg_8airplay23net6secureNtB4_16HapSecureSession7encrypt0B8_
FN:61,_RNCNvMNtNtCslUrB7RWuRKg_8airplay23net6secureNtB4_16HapSecureSession7encrypts_0B8_
FN:81,_RNvMNtNtCslUrB7RWuRKg_8airplay23net6secureNtB2_16HapSecureSession13decrypt_block
FN:25,_RNvMNtNtCslUrB7RWuRKg_8airplay23net6secureNtB2_16HapSecureSession3new
FN:40,_RNvMNtNtCslUrB7RWuRKg_8airplay23net6secureNtB2_16HapSecureSession7encrypt
FN:105,_RNCNvMNtNtCs41oluKY1Omx_8airplay23net6secureNtB4_16HapSecureSession13decrypt_block0B8_
FN:116,_RNCNvMNtNtCs41oluKY1Omx_8airplay23net6secureNtB4_16HapSecureSession13decrypt_blocks_0B8_
FN:45,_RNCNvMNtNtCs41oluKY1Omx_8airplay23net6secureNtB4_16HapSecureSession7encrypt0B8_
FN:61,_RNCNvMNtNtCs41oluKY1Omx_8airplay23net6secureNtB4_16HapSecureSession7encrypts_0B8_
FN:81,_RNvMNtNtCs41oluKY1Omx_8airplay23net6secureNtB2_16HapSecureSession13decrypt_block
FN:25,_RNvMNtNtCs41oluKY1Omx_8airplay23net6secureNtB2_16HapSecureSession3new
FN:40,_RNvMNtNtCs41oluKY1Omx_8airplay23net6secureNtB2_16HapSecureSession7encrypt
FNDA:0,_RNCNvMNtNtCslUrB7RWuRKg_8airplay23net6secureNtB4_16HapSecureSession13decrypt_block0B8_
FNDA:0,_RNCNvMNtNtCslUrB7RWuRKg_8airplay23net6secureNtB4_16HapSecureSession13decrypt_blocks_0B8_
FNDA:0,_RNCNvMNtNtCslUrB7RWuRKg_8airplay23net6secureNtB4_16HapSecureSession7encrypt0B8_
FNDA:0,_RNCNvMNtNtCslUrB7RWuRKg_8airplay23net6secureNtB4_16HapSecureSession7encrypts_0B8_
FNDA:98,_RNvMNtNtCslUrB7RWuRKg_8airplay23net6secureNtB2_16HapSecureSession13decrypt_block
FNDA:10,_RNvMNtNtCslUrB7RWuRKg_8airplay23net6secureNtB2_16HapSecureSession3new
FNDA:98,_RNvMNtNtCslUrB7RWuRKg_8airplay23net6secureNtB2_16HapSecureSession7encrypt
FNDA:0,_RNCNvMNtNtCs41oluKY1Omx_8airplay23net6secureNtB4_16HapSecureSession13decrypt_block0B8_
FNDA:0,_RNCNvMNtNtCs41oluKY1Omx_8airplay23net6secureNtB4_16HapSecureSession13decrypt_blocks_0B8_
FNDA:0,_RNCNvMNtNtCs41oluKY1Omx_8airplay23net6secureNtB4_16HapSecureSession7encrypt0B8_
FNDA:0,_RNCNvMNtNtCs41oluKY1Omx_8airplay23net6secureNtB4_16HapSecureSession7encrypts_0B8_
FNDA:0,_RNvMNtNtCs41oluKY1Omx_8airplay23net6secureNtB2_16HapSecureSession13decrypt_block
FNDA:0,_RNvMNtNtCs41oluKY1Omx_8airplay23net6secureNtB2_16HapSecureSession3new
FNDA:0,_RNvMNtNtCs41oluKY1Omx_8airplay23net6secureNtB2_16HapSecureSession7encrypt
FNF:7
FNH:3
DA:25,10
DA:26,10
DA:27,10
DA:28,10
DA:29,10
DA:30,10
DA:31,10
DA:32,10
DA:40,98
DA:41,98
DA:43,98
DA:44,98
DA:45,0
DA:46,0
DA:47,0
DA:48,98
DA:49,98
DA:51,98
DA:52,98
DA:53,98
DA:55,98
DA:57,98
DA:58,98
DA:59,98
DA:60,98
DA:61,0
DA:63,0
DA:65,98
DA:66,98
DA:67,98
DA:69,98
DA:72,98
DA:73,98
DA:81,98
DA:82,98
DA:83,98
DA:84,98
DA:85,98
DA:86,0
DA:87,0
DA:88,0
DA:89,0
DA:90,98
DA:92,98
DA:93,98
DA:94,0
DA:95,0
DA:96,0
DA:97,0
DA:98,98
DA:100,98
DA:101,98
DA:102,98
DA:104,98
DA:105,98
DA:106,0
DA:107,0
DA:108,0
DA:109,0
DA:110,0
DA:113,98
DA:114,98
DA:115,98
DA:116,0
DA:118,0
DA:120,98
DA:122,98
DA:123,98
BRF:0
BRH:0
LF:73
LH:48
end_of_record
SF:/app/src/net/tokio_impl.rs
FN:74,_RINvNtNtCslUrB7RWuRKg_8airplay23net10tokio_impl14spawn_blockingppEB6_
FN:65,_RINvNtNtCslUrB7RWuRKg_8airplay23net10tokio_impl5spawnpEB6_
FN:18,_RNvXNtNtCslUrB7RWuRKg_8airplay23net10tokio_implNtNtNtNtCs5y6Uqjkzgrv_5tokio3net3tcp6stream9TcpStreamNtNtB4_6traits9AsyncRead9poll_read
FN:37,_RNvXs_NtNtCslUrB7RWuRKg_8airplay23net10tokio_implNtNtNtNtCs5y6Uqjkzgrv_5tokio3net3tcp6stream9TcpStreamNtNtB6_6traits10AsyncWrite10poll_flush
FN:33,_RNvXs_NtNtCslUrB7RWuRKg_8airplay23net10tokio_implNtNtNtNtCs5y6Uqjkzgrv_5tokio3net3tcp6stream9TcpStreamNtNtB6_6traits10AsyncWrite10poll_write
FN:41,_RNvXs_NtNtCslUrB7RWuRKg_8airplay23net10tokio_implNtNtNtNtCs5y6Uqjkzgrv_5tokio3net3tcp6stream9TcpStreamNtNtB6_6traits10AsyncWrite13poll_shutdown
FN:51,_RNCNvNtNtCslUrB7RWuRKg_8airplay23net10tokio_impl11connect_tcp0B7_
FN:60,_RNCNvNtNtCslUrB7RWuRKg_8airplay23net10tokio_impl8bind_udp0B7_
FN:51,_RNvNtNtCslUrB7RWuRKg_8airplay23net10tokio_impl11connect_tcp
FN:60,_RNvNtNtCslUrB7RWuRKg_8airplay23net10tokio_impl8bind_udp
FN:74,_RINvNtNtCs41oluKY1Omx_8airplay23net10tokio_impl14spawn_blockingppEB6_
FN:60,_RNvNtNtCs41oluKY1Omx_8airplay23net10tokio_impl8bind_udp
FN:41,_RNvXs_NtNtCs41oluKY1Omx_8airplay23net10tokio_implNtNtNtNtCs5y6Uqjkzgrv_5tokio3net3tcp6stream9TcpStreamNtNtB6_6traits10AsyncWrite13poll_shutdown
FN:65,_RINvNtNtCs41oluKY1Omx_8airplay23net10tokio_impl5spawnNCNCNvNtNtB4_5tests11tokio_testss_10test_spawn00EB6_
FN:51,_RNCNvNtNtCs41oluKY1Omx_8airplay23net10tokio_impl11connect_tcp0B7_
FN:60,_RNCNvNtNtCs41oluKY1Omx_8airplay23net10tokio_impl8bind_udp0B7_
FN:18,_RNvXNtNtCs41oluKY1Omx_8airplay23net10tokio_implNtNtNtNtCs5y6Uqjkzgrv_5tokio3net3tcp6stream9TcpStreamNtNtB4_6traits9AsyncRead9poll_read
FN:37,_RNvXs_NtNtCs41oluKY1Omx_8airplay23net10tokio_implNtNtNtNtCs5y6Uqjkzgrv_5tokio3net3tcp6stream9TcpStreamNtNtB6_6traits10AsyncWrite10poll_flush
FN:33,_RNvXs_NtNtCs41oluKY1Omx_8airplay23net10tokio_implNtNtNtNtCs5y6Uqjkzgrv_5tokio3net3tcp6stream9TcpStreamNtNtB6_6traits10AsyncWrite10poll_write
FN:51,_RNvNtNtCs41oluKY1Omx_8airplay23net10tokio_impl11connect_tcp
FNDA:0,_RINvNtNtCslUrB7RWuRKg_8airplay23net10tokio_impl14spawn_blockingppEB6_
FNDA:0,_RINvNtNtCslUrB7RWuRKg_8airplay23net10tokio_impl5spawnpEB6_
FNDA:2298,_RNvXNtNtCslUrB7RWuRKg_8airplay23net10tokio_implNtNtNtNtCs5y6Uqjkzgrv_5tokio3net3tcp6stream9TcpStreamNtNtB4_6traits9AsyncRead9poll_read
FNDA:76,_RNvXs_NtNtCslUrB7RWuRKg_8airplay23net10tokio_implNtNtNtNtCs5y6Uqjkzgrv_5tokio3net3tcp6stream9TcpStreamNtNtB6_6traits10AsyncWrite10poll_flush
FNDA:680,_RNvXs_NtNtCslUrB7RWuRKg_8airplay23net10tokio_implNtNtNtNtCs5y6Uqjkzgrv_5tokio3net3tcp6stream9TcpStreamNtNtB6_6traits10AsyncWrite10poll_write
FNDA:0,_RNvXs_NtNtCslUrB7RWuRKg_8airplay23net10tokio_implNtNtNtNtCs5y6Uqjkzgrv_5tokio3net3tcp6stream9TcpStreamNtNtB6_6traits10AsyncWrite13poll_shutdown
FNDA:0,_RNCNvNtNtCslUrB7RWuRKg_8airplay23net10tokio_impl11connect_tcp0B7_
FNDA:0,_RNCNvNtNtCslUrB7RWuRKg_8airplay23net10tokio_impl8bind_udp0B7_
FNDA:0,_RNvNtNtCslUrB7RWuRKg_8airplay23net10tokio_impl11connect_tcp
FNDA:0,_RNvNtNtCslUrB7RWuRKg_8airplay23net10tokio_impl8bind_udp
FNDA:0,_RINvNtNtCs41oluKY1Omx_8airplay23net10tokio_impl14spawn_blockingppEB6_
FNDA:0,_RNvNtNtCs41oluKY1Omx_8airplay23net10tokio_impl8bind_udp
FNDA:0,_RNvXs_NtNtCs41oluKY1Omx_8airplay23net10tokio_implNtNtNtNtCs5y6Uqjkzgrv_5tokio3net3tcp6stream9TcpStreamNtNtB6_6traits10AsyncWrite13poll_shutdown
FNDA:1,_RINvNtNtCs41oluKY1Omx_8airplay23net10tokio_impl5spawnNCNCNvNtNtB4_5tests11tokio_testss_10test_spawn00EB6_
FNDA:1,_RNCNvNtNtCs41oluKY1Omx_8airplay23net10tokio_impl11connect_tcp0B7_
FNDA:0,_RNCNvNtNtCs41oluKY1Omx_8airplay23net10tokio_impl8bind_udp0B7_
FNDA:90,_RNvXNtNtCs41oluKY1Omx_8airplay23net10tokio_implNtNtNtNtCs5y6Uqjkzgrv_5tokio3net3tcp6stream9TcpStreamNtNtB4_6traits9AsyncRead9poll_read
FNDA:0,_RNvXs_NtNtCs41oluKY1Omx_8airplay23net10tokio_implNtNtNtNtCs5y6Uqjkzgrv_5tokio3net3tcp6stream9TcpStreamNtNtB6_6traits10AsyncWrite10poll_flush
FNDA:41,_RNvXs_NtNtCs41oluKY1Omx_8airplay23net10tokio_implNtNtNtNtCs5y6Uqjkzgrv_5tokio3net3tcp6stream9TcpStreamNtNtB6_6traits10AsyncWrite10poll_write
FNDA:1,_RNvNtNtCs41oluKY1Omx_8airplay23net10tokio_impl11connect_tcp
FNF:10
FNH:6
DA:18,2388
DA:19,2388
DA:20,2388
DA:21,2388
DA:22,2388
DA:23,2388
DA:24,2388
DA:25,1626
DA:26,0
DA:27,762
DA:29,2388
DA:33,721
DA:34,721
DA:35,721
DA:37,76
DA:38,76
DA:39,76
DA:41,0
DA:42,0
DA:43,0
DA:51,1
DA:52,1
DA:53,1
DA:60,0
DA:61,0
DA:62,0
DA:65,1
DA:66,1
DA:67,1
DA:68,1
DA:70,1
DA:71,1
DA:74,0
DA:75,0
DA:76,0
DA:77,0
DA:79,0
DA:80,0
BRF:0
BRH:0
LF:40
LH:26
end_of_record
SF:/app/src/net/traits.rs
FN:97,_RNvXs0_NtNtCslUrB7RWuRKg_8airplay23net6traitsINtB5_9ReadExactNtNtNtNtCs5y6Uqjkzgrv_5tokio3net3tcp6stream9TcpStreamENtNtNtCs3XFJfFEDSOQ_4core6future6future6Future4pollB9_
FN:124,_RNvXs1_NtNtCslUrB7RWuRKg_8airplay23net6traitsINtB5_4ReadNtNtNtNtCs5y6Uqjkzgrv_5tokio3net3tcp6stream9TcpStreamENtNtNtCs3XFJfFEDSOQ_4core6future6future6Future4pollB9_
FN:140,_RNvXs2_NtNtCslUrB7RWuRKg_8airplay23net6traitsINtB5_8WriteAllNtNtNtNtCs5y6Uqjkzgrv_5tokio3net3tcp6stream9TcpStreamENtNtNtCs3XFJfFEDSOQ_4core6future6future6Future4pollB9_
FN:166,_RNvXs3_NtNtCslUrB7RWuRKg_8airplay23net6traitsINtB5_5FlushNtNtNtNtCs5y6Uqjkzgrv_5tokio3net3tcp6stream9TcpStreamENtNtNtCs3XFJfFEDSOQ_4core6future6future6Future4pollB9_
FN:40,_RNvYNtNtNtNtCs5y6Uqjkzgrv_5tokio3net3tcp6stream9TcpStreamNtNtNtCslUrB7RWuRKg_8airplay23net6traits12AsyncReadExt10read_exactBZ_
FN:52,_RNvYNtNtNtNtCs5y6Uqjkzgrv_5tokio3net3tcp6stream9TcpStreamNtNtNtCslUrB7RWuRKg_8airplay23net6traits12AsyncReadExt4readBZ_
FN:77,_RNvYNtNtNtNtCs5y6Uqjkzgrv_5tokio3net3tcp6stream9TcpStreamNtNtNtCslUrB7RWuRKg_8airplay23net6traits13AsyncWriteExt5flushBZ_
FN:65,_RNvYNtNtNtNtCs5y6Uqjkzgrv_5tokio3net3tcp6stream9TcpStreamNtNtNtCslUrB7RWuRKg_8airplay23net6traits13AsyncWriteExt9write_allBZ_
FN:40,_RNvYNtNtNtNtCs5y6Uqjkzgrv_5tokio3net3tcp6stream9TcpStreamNtNtNtCs41oluKY1Omx_8airplay23net6traits12AsyncReadExt10read_exactBZ_
FN:52,_RNvYNtNtNtNtCs5y6Uqjkzgrv_5tokio3net3tcp6stream9TcpStreamNtNtNtCs41oluKY1Omx_8airplay23net6traits12AsyncReadExt4readBZ_
FN:77,_RNvYNtNtNtNtCs5y6Uqjkzgrv_5tokio3net3tcp6stream9TcpStreamNtNtNtCs41oluKY1Omx_8airplay23net6traits13AsyncWriteExt5flushBZ_
FN:65,_RNvYNtNtNtNtCs5y6Uqjkzgrv_5tokio3net3tcp6stream9TcpStreamNtNtNtCs41oluKY1Omx_8airplay23net6traits13AsyncWriteExt9write_allBZ_
FN:97,_RNvXs0_NtNtCs41oluKY1Omx_8airplay23net6traitsINtB5_9ReadExactNtNtNtNtCs5y6Uqjkzgrv_5tokio3net3tcp6stream9TcpStreamENtNtNtCs3XFJfFEDSOQ_4core6future6future6Future4pollB9_
FN:124,_RNvXs1_NtNtCs41oluKY1Omx_8airplay23net6traitsINtB5_4ReadNtNtNtNtCs5y6Uqjkzgrv_5tokio3net3tcp6stream9TcpStreamENtNtNtCs3XFJfFEDSOQ_4core6future6future6Future4pollB9_
FN:140,_RNvXs2_NtNtCs41oluKY1Omx_8airplay23net6traitsINtB5_8WriteAllNtNtNtNtCs5y6Uqjkzgrv_5tokio3net3tcp6stream9TcpStreamENtNtNtCs3XFJfFEDSOQ_4core6future6future6Future4pollB9_
FN:166,_RNvXs3_NtNtCs41oluKY1Omx_8airplay23net6traitsINtB5_5FlushNtNtNtNtCs5y6Uqjkzgrv_5tokio3net3tcp6stream9TcpStreamENtNtNtCs3XFJfFEDSOQ_4core6future6future6Future4pollB9_
FNDA:10,_RNvXs0_NtNtCslUrB7RWuRKg_8airplay23net6traitsINtB5_9ReadExactNtNtNtNtCs5y6Uqjkzgrv_5tokio3net3tcp6stream9TcpStreamENtNtNtCs3XFJfFEDSOQ_4core6future6future6Future4pollB9_
FNDA:2288,_RNvXs1_NtNtCslUrB7RWuRKg_8airplay23net6traitsINtB5_4ReadNtNtNtNtCs5y6Uqjkzgrv_5tokio3net3tcp6stream9TcpStreamENtNtNtCs3XFJfFEDSOQ_4core6future6future6Future4pollB9_
FNDA:680,_RNvXs2_NtNtCslUrB7RWuRKg_8airplay23net6traitsINtB5_8WriteAllNtNtNtNtCs5y6Uqjkzgrv_5tokio3net3tcp6stream9TcpStreamENtNtNtCs3XFJfFEDSOQ_4core6future6future6Future4pollB9_
FNDA:76,_RNvXs3_NtNtCslUrB7RWuRKg_8airplay23net6traitsINtB5_5FlushNtNtNtNtCs5y6Uqjkzgrv_5tokio3net3tcp6stream9TcpStreamENtNtNtCs3XFJfFEDSOQ_4core6future6future6Future4pollB9_
FNDA:10,_RNvYNtNtNtNtCs5y6Uqjkzgrv_5tokio3net3tcp6stream9TcpStreamNtNtNtCslUrB7RWuRKg_8airplay23net6traits12AsyncReadExt10read_exactBZ_
FNDA:1593,_RNvYNtNtNtNtCs5y6Uqjkzgrv_5tokio3net3tcp6stream9TcpStreamNtNtNtCslUrB7RWuRKg_8airplay23net6traits12AsyncReadExt4readBZ_
FNDA:76,_RNvYNtNtNtNtCs5y6Uqjkzgrv_5tokio3net3tcp6stream9TcpStreamNtNtNtCslUrB7RWuRKg_8airplay23net6traits13AsyncWriteExt5flushBZ_
FNDA:680,_RNvYNtNtNtNtCs5y6Uqjkzgrv_5tokio3net3tcp6stream9TcpStreamNtNtNtCslUrB7RWuRKg_8airplay23net6traits13AsyncWriteExt9write_allBZ_
FNDA:0,_RNvYNtNtNtNtCs5y6Uqjkzgrv_5tokio3net3tcp6stream9TcpStreamNtNtNtCs41oluKY1Omx_8airplay23net6traits12AsyncReadExt10read_exactBZ_
FNDA:49,_RNvYNtNtNtNtCs5y6Uqjkzgrv_5tokio3net3tcp6stream9TcpStreamNtNtNtCs41oluKY1Omx_8airplay23net6traits12AsyncReadExt4readBZ_
FNDA:0,_RNvYNtNtNtNtCs5y6Uqjkzgrv_5tokio3net3tcp6stream9TcpStreamNtNtNtCs41oluKY1Omx_8airplay23net6traits13AsyncWriteExt5flushBZ_
FNDA:41,_RNvYNtNtNtNtCs5y6Uqjkzgrv_5tokio3net3tcp6stream9TcpStreamNtNtNtCs41oluKY1Omx_8airplay23net6traits13AsyncWriteExt9write_allBZ_
FNDA:0,_RNvXs0_NtNtCs41oluKY1Omx_8airplay23net6traitsINtB5_9ReadExactNtNtNtNtCs5y6Uqjkzgrv_5tokio3net3tcp6stream9TcpStreamENtNtNtCs3XFJfFEDSOQ_4core6future6future6Future4pollB9_
FNDA:90,_RNvXs1_NtNtCs41oluKY1Omx_8airplay23net6traitsINtB5_4ReadNtNtNtNtCs5y6Uqjkzgrv_5tokio3net3tcp6stream9TcpStreamENtNtNtCs3XFJfFEDSOQ_4core6future6future6Future4pollB9_
FNDA:41,_RNvXs2_NtNtCs41oluKY1Omx_8airplay23net6traitsINtB5_8WriteAllNtNtNtNtCs5y6Uqjkzgrv_5tokio3net3tcp6stream9TcpStreamENtNtNtCs3XFJfFEDSOQ_4core6future6future6Future4pollB9_
FNDA:0,_RNvXs3_NtNtCs41oluKY1Omx_8airplay23net6traitsINtB5_5FlushNtNtNtNtCs5y6Uqjkzgrv_5tokio3net3tcp6stream9TcpStreamENtNtNtCs3XFJfFEDSOQ_4core6future6future6Future4pollB9_
FNF:8
FNH:8
DA:40,10
DA:41,10
DA:42,10
DA:44,10
DA:45,10
DA:46,10
DA:47,10
DA:48,10
DA:49,10
DA:52,1642
DA:53,1642
DA:54,1642
DA:56,1642
DA:57,1642
DA:65,721
DA:66,721
DA:67,721
DA:69,721
DA:70,721
DA:71,721
DA:72,721
DA:73,721
DA:74,721
DA:77,76
DA:78,76
DA:79,76
DA:81,76
DA:82,76
DA:97,10
DA:98,10
DA:100,20
DA:101,10
DA:102,10
DA:103,0
DA:104,0
DA:105,0
DA:106,0
DA:107,10
DA:108,10
DA:111,10
DA:112,10
DA:124,2378
DA:125,2378
DA:126,2378
DA:127,2378
DA:140,721
DA:141,721
DA:143,1442
DA:144,721
DA:145,721
DA:146,0
DA:147,0
DA:148,0
DA:149,0
DA:150,721
DA:151,721
DA:154,721
DA:155,721
DA:166,76
DA:167,76
DA:168,76
BRF:0
BRH:0
LF:61
LH:53
end_of_record
SF:/app/src/player/mod.rs
FN:564,_RINvMs0_NtCslUrB7RWuRKg_8airplay26playerNtB6_13PlayerBuilder11device_namepEB8_
FN:499,_RINvMs_NtCslUrB7RWuRKg_8airplay26playerNtB5_13AirPlayPlayer9play_filepEB7_
FN:502,_RNCINvMs_NtCslUrB7RWuRKg_8airplay26playerNtB7_13AirPlayPlayer9play_filepE0B9_
FN:505,_RNCNCINvMs_NtCslUrB7RWuRKg_8airplay26playerNtB9_13AirPlayPlayer9play_filepE00Bb_
FN:256,_RNCNvMs_NtCslUrB7RWuRKg_8airplay26playerNtB6_13AirPlayPlayer10disconnect0B8_
FN:466,_RNCNvMs_NtCslUrB7RWuRKg_8airplay26playerNtB6_13AirPlayPlayer10is_playing0B8_
FN:300,_RNCNvMs_NtCslUrB7RWuRKg_8airplay26playerNtB6_13AirPlayPlayer10play_track0B8_
FN:449,_RNCNvMs_NtCslUrB7RWuRKg_8airplay26playerNtB6_13AirPlayPlayer10repeat_all0B8_
FN:431,_RNCNvMs_NtCslUrB7RWuRKg_8airplay26playerNtB6_13AirPlayPlayer10repeat_off0B8_
FN:440,_RNCNvMs_NtCslUrB7RWuRKg_8airplay26playerNtB6_13AirPlayPlayer10repeat_one0B8_
FN:379,_RNCNvMs_NtCslUrB7RWuRKg_8airplay26playerNtB6_13AirPlayPlayer10set_volume0B8_
FN:413,_RNCNvMs_NtCslUrB7RWuRKg_8airplay26playerNtB6_13AirPlayPlayer10shuffle_on0B8_
FN:422,_RNCNvMs_NtCslUrB7RWuRKg_8airplay26playerNtB6_13AirPlayPlayer11shuffle_off0B8_
FN:261,_RNCNvMs_NtCslUrB7RWuRKg_8airplay26playerNtB6_13AirPlayPlayer12is_connected0B8_
FN:476,_RNCNvMs_NtCslUrB7RWuRKg_8airplay26playerNtB6_13AirPlayPlayer12queue_length0B8_
FN:456,_RNCNvMs_NtCslUrB7RWuRKg_8airplay26playerNtB6_13AirPlayPlayer13current_track0B8_
FN:461,_RNCNvMs_NtCslUrB7RWuRKg_8airplay26playerNtB6_13AirPlayPlayer14playback_state0B8_
FN:66,_RNCNvMs_NtCslUrB7RWuRKg_8airplay26playerNtB6_13AirPlayPlayer22set_target_device_name0B8_
FN:359,_RNCNvMs_NtCslUrB7RWuRKg_8airplay26playerNtB6_13AirPlayPlayer4back0B8_
FN:393,_RNCNvMs_NtCslUrB7RWuRKg_8airplay26playerNtB6_13AirPlayPlayer4mute0B8_
FN:314,_RNCNvMs_NtCslUrB7RWuRKg_8airplay26playerNtB6_13AirPlayPlayer4play0B8_
FN:368,_RNCNvMs_NtCslUrB7RWuRKg_8airplay26playerNtB6_13AirPlayPlayer4seek0B8_
FN:350,_RNCNvMs_NtCslUrB7RWuRKg_8airplay26playerNtB6_13AirPlayPlayer4skip0B8_
FN:341,_RNCNvMs_NtCslUrB7RWuRKg_8airplay26playerNtB6_13AirPlayPlayer4stop0B8_
FN:323,_RNCNvMs_NtCslUrB7RWuRKg_8airplay26playerNtB6_13AirPlayPlayer5pause0B8_
FN:471,_RNCNvMs_NtCslUrB7RWuRKg_8airplay26playerNtB6_13AirPlayPlayer6device0B8_
FN:332,_RNCNvMs_NtCslUrB7RWuRKg_8airplay26playerNtB6_13AirPlayPlayer6toggle0B8_
FN:402,_RNCNvMs_NtCslUrB7RWuRKg_8airplay26playerNtB6_13AirPlayPlayer6unmute0B8_
FN:384,_RNCNvMs_NtCslUrB7RWuRKg_8airplay26playerNtB6_13AirPlayPlayer6volume0B8_
FN:557,_RNvMs0_NtCslUrB7RWuRKg_8airplay26playerNtB5_13PlayerBuilder14auto_reconnect
FN:550,_RNvMs0_NtCslUrB7RWuRKg_8airplay26playerNtB5_13PlayerBuilder18connection_timeout
FN:540,_RNvMs0_NtCslUrB7RWuRKg_8airplay26playerNtB5_13PlayerBuilder3new
FN:571,_RNvMs0_NtCslUrB7RWuRKg_8airplay26playerNtB5_13PlayerBuilder5build
FN:489,_RNvMs_NtCslUrB7RWuRKg_8airplay26playerNtB4_13AirPlayPlayer10client_mut
FN:256,_RNvMs_NtCslUrB7RWuRKg_8airplay26playerNtB4_13AirPlayPlayer10disconnect
FN:466,_RNvMs_NtCslUrB7RWuRKg_8airplay26playerNtB4_13AirPlayPlayer10is_playing
FN:295,_RNvMs_NtCslUrB7RWuRKg_8airplay26playerNtB4_13AirPlayPlayer10play_track
FN:449,_RNvMs_NtCslUrB7RWuRKg_8airplay26playerNtB4_13AirPlayPlayer10repeat_all
FN:431,_RNvMs_NtCslUrB7RWuRKg_8airplay26playerNtB4_13AirPlayPlayer10repeat_off
FN:440,_RNvMs_NtCslUrB7RWuRKg_8airplay26playerNtB4_13AirPlayPlayer10repeat_one
FN:379,_RNvMs_NtCslUrB7RWuRKg_8airplay26playerNtB4_13AirPlayPlayer10set_volume
FN:413,_RNvMs_NtCslUrB7RWuRKg_8airplay26playerNtB4_13AirPlayPlayer10shuffle_on
FN:272,_RNvMs_NtCslUrB7RWuRKg_8airplay26playerNtB4_13AirPlayPlayer11play_tracks
FN:422,_RNvMs_NtCslUrB7RWuRKg_8airplay26playerNtB4_13AirPlayPlayer11shuffle_off
FN:47,_RNvMs_NtCslUrB7RWuRKg_8airplay26playerNtB4_13AirPlayPlayer11with_config
FN:190,_RNvMs_NtCslUrB7RWuRKg_8airplay26playerNtB4_13AirPlayPlayer12auto_connect
FN:261,_RNvMs_NtCslUrB7RWuRKg_8airplay26playerNtB4_13AirPlayPlayer12is_connected
FN:476,_RNvMs_NtCslUrB7RWuRKg_8airplay26playerNtB4_13AirPlayPlayer12queue_length
FN:456,_RNvMs_NtCslUrB7RWuRKg_8airplay26playerNtB4_13AirPlayPlayer13current_track
FN:461,_RNvMs_NtCslUrB7RWuRKg_8airplay26playerNtB4_13AirPlayPlayer14playback_state
FN:221,_RNvMs_NtCslUrB7RWuRKg_8airplay26playerNtB4_13AirPlayPlayer15connect_by_name
FN:61,_RNvMs_NtCslUrB7RWuRKg_8airplay26playerNtB4_13AirPlayPlayer18set_auto_reconnect
FN:66,_RNvMs_NtCslUrB7RWuRKg_8airplay26playerNtB4_13AirPlayPlayer22set_target_device_name
FN:70,_RNvMs_NtCslUrB7RWuRKg_8airplay26playerNtB4_13AirPlayPlayer23start_reconnect_monitor
FN:41,_RNvMs_NtCslUrB7RWuRKg_8airplay26playerNtB4_13AirPlayPlayer3new
FN:359,_RNvMs_NtCslUrB7RWuRKg_8airplay26playerNtB4_13AirPlayPlayer4back
FN:393,_RNvMs_NtCslUrB7RWuRKg_8airplay26playerNtB4_13AirPlayPlayer4mute
FN:314,_RNvMs_NtCslUrB7RWuRKg_8airplay26playerNtB4_13AirPlayPlayer4play
FN:368,_RNvMs_NtCslUrB7RWuRKg_8airplay26playerNtB4_13AirPlayPlayer4seek
FN:350,_RNvMs_NtCslUrB7RWuRKg_8airplay26playerNtB4_13AirPlayPlayer4skip
FN:341,_RNvMs_NtCslUrB7RWuRKg_8airplay26playerNtB4_13AirPlayPlayer4stop
FN:323,_RNvMs_NtCslUrB7RWuRKg_8airplay26playerNtB4_13AirPlayPlayer5pause
FN:484,_RNvMs_NtCslUrB7RWuRKg_8airplay26playerNtB4_13AirPlayPlayer6client
FN:471,_RNvMs_NtCslUrB7RWuRKg_8airplay26playerNtB4_13AirPlayPlayer6device
FN:332,_RNvMs_NtCslUrB7RWuRKg_8airplay26playerNtB4_13AirPlayPlayer6toggle
FN:402,_RNvMs_NtCslUrB7RWuRKg_8airplay26playerNtB4_13AirPlayPlayer6unmute
FN:384,_RNvMs_NtCslUrB7RWuRKg_8airplay26playerNtB4_13AirPlayPlayer6volume
FN:245,_RNvMs_NtCslUrB7RWuRKg_8airplay26playerNtB4_13AirPlayPlayer7connect
FN:594,_RNvNtCslUrB7RWuRKg_8airplay26player10quick_play
FN:608,_RNvNtCslUrB7RWuRKg_8airplay26player13quick_connect
FN:619,_RNvNtCslUrB7RWuRKg_8airplay26player16quick_connect_to
FN:33,_RNvXNtCslUrB7RWuRKg_8airplay26playerNtB2_13AirPlayPlayerNtNtCs3XFJfFEDSOQ_4core7default7Default7default
FN:582,_RNvXs1_NtCslUrB7RWuRKg_8airplay26playerNtB5_13PlayerBuilderNtNtCs3XFJfFEDSOQ_4core7default7Default7default
FN:199,_RNCNCNvMs_NtCslUrB7RWuRKg_8airplay26playerNtB8_13AirPlayPlayer12auto_connect00Ba_
FN:208,_RNCNCNvMs_NtCslUrB7RWuRKg_8airplay26playerNtB8_13AirPlayPlayer12auto_connect0s0_0Ba_
FN:201,_RNCNCNvMs_NtCslUrB7RWuRKg_8airplay26playerNtB8_13AirPlayPlayer12auto_connect0s_0Ba_
FN:231,_RNCNCNvMs_NtCslUrB7RWuRKg_8airplay26playerNtB8_13AirPlayPlayer15connect_by_name00Ba_
FN:233,_RNCNCNvMs_NtCslUrB7RWuRKg_8airplay26playerNtB8_13AirPlayPlayer15connect_by_name0s_0Ba_
FN:128,_RNCNCNvMs_NtCslUrB7RWuRKg_8airplay26playerNtB8_13AirPlayPlayer23start_reconnect_monitor00Ba_
FN:275,_RNCNvMs_NtCslUrB7RWuRKg_8airplay26playerNtB6_13AirPlayPlayer11play_tracks0B8_
FN:190,_RNCNvMs_NtCslUrB7RWuRKg_8airplay26playerNtB6_13AirPlayPlayer12auto_connect0B8_
FN:225,_RNCNvMs_NtCslUrB7RWuRKg_8airplay26playerNtB6_13AirPlayPlayer15connect_by_name0B8_
FN:77,_RNCNvMs_NtCslUrB7RWuRKg_8airplay26playerNtB6_13AirPlayPlayer23start_reconnect_monitor0B8_
FN:245,_RNCNvMs_NtCslUrB7RWuRKg_8airplay26playerNtB6_13AirPlayPlayer7connect0B8_
FN:596,_RNCNvNtCslUrB7RWuRKg_8airplay26player10quick_play0B5_
FN:608,_RNCNvNtCslUrB7RWuRKg_8airplay26player13quick_connect0B5_
FN:619,_RNCNvNtCslUrB7RWuRKg_8airplay26player16quick_connect_to0B5_
FN:256,_RNCNvMs_NtCs41oluKY1Omx_8airplay26playerNtB6_13AirPlayPlayer10disconnect0B8_
FN:456,_RNCNvMs_NtCs41oluKY1Omx_8airplay26playerNtB6_13AirPlayPlayer13current_track0B8_
FN:359,_RNCNvMs_NtCs41oluKY1Omx_8airplay26playerNtB6_13AirPlayPlayer4back0B8_
FN:350,_RNCNvMs_NtCs41oluKY1Omx_8airplay26playerNtB6_13AirPlayPlayer4skip0B8_
FN:332,_RNCNvMs_NtCs41oluKY1Omx_8airplay26playerNtB6_13AirPlayPlayer6toggle0B8_
FN:256,_RNvMs_NtCs41oluKY1Omx_8airplay26playerNtB4_13AirPlayPlayer10disconnect
FN:456,_RNvMs_NtCs41oluKY1Omx_8airplay26playerNtB4_13AirPlayPlayer13current_track
FN:359,_RNvMs_NtCs41oluKY1Omx_8airplay26playerNtB4_13AirPlayPlayer4back
FN:350,_RNvMs_NtCs41oluKY1Omx_8airplay26playerNtB4_13AirPlayPlayer4skip
FN:332,_RNvMs_NtCs41oluKY1Omx_8airplay26playerNtB4_13AirPlayPlayer6toggle
FN:594,_RNvNtCs41oluKY1Omx_8airplay26player10quick_play
FN:608,_RNvNtCs41oluKY1Omx_8airplay26player13quick_connect
FN:619,_RNvNtCs41oluKY1Omx_8airplay26player16quick_connect_to
FN:33,_RNvXNtCs41oluKY1Omx_8airplay26playerNtB2_13AirPlayPlayerNtNtCs3XFJfFEDSOQ_4core7default7Default7default
FN:582,_RNvXs1_NtCs41oluKY1Omx_8airplay26playerNtB5_13PlayerBuilderNtNtCs3XFJfFEDSOQ_4core7default7Default7default
FN:564,_RINvMs0_NtCs41oluKY1Omx_8airplay26playerNtB6_13PlayerBuilder11device_nameReEB8_
FN:499,_RINvMs_NtCs41oluKY1Omx_8airplay26playerNtB5_13AirPlayPlayer9play_fileReEB7_
FN:502,_RNCINvMs_NtCs41oluKY1Omx_8airplay26playerNtB7_13AirPlayPlayer9play_fileReE0B9_
FN:505,_RNCNCINvMs_NtCs41oluKY1Omx_8airplay26playerNtB9_13AirPlayPlayer9play_fileReE00Bb_
FN:199,_RNCNCNvMs_NtCs41oluKY1Omx_8airplay26playerNtB8_13AirPlayPlayer12auto_connect00Ba_
FN:208,_RNCNCNvMs_NtCs41oluKY1Omx_8airplay26playerNtB8_13AirPlayPlayer12auto_connect0s0_0Ba_
FN:201,_RNCNCNvMs_NtCs41oluKY1Omx_8airplay26playerNtB8_13AirPlayPlayer12auto_connect0s_0Ba_
FN:231,_RNCNCNvMs_NtCs41oluKY1Omx_8airplay26playerNtB8_13AirPlayPlayer15connect_by_name00Ba_
FN:233,_RNCNCNvMs_NtCs41oluKY1Omx_8airplay26playerNtB8_13AirPlayPlayer15connect_by_name0s_0Ba_
FN:128,_RNCNCNvMs_NtCs41oluKY1Omx_8airplay26playerNtB8_13AirPlayPlayer23start_reconnect_monitor00Ba_
FN:466,_RNCNvMs_NtCs41oluKY1Omx_8airplay26playerNtB6_13AirPlayPlayer10is_playing0B8_
FN:300,_RNCNvMs_NtCs41oluKY1Omx_8airplay26playerNtB6_13AirPlayPlayer10play_track0B8_
FN:449,_RNCNvMs_NtCs41oluKY1Omx_8airplay26playerNtB6_13AirPlayPlayer10repeat_all0B8_
FN:431,_RNCNvMs_NtCs41oluKY1Omx_8airplay26playerNtB6_13AirPlayPlayer10repeat_off0B8_
FN:440,_RNCNvMs_NtCs41oluKY1Omx_8airplay26playerNtB6_13AirPlayPlayer10repeat_one0B8_
FN:379,_RNCNvMs_NtCs41oluKY1Omx_8airplay26playerNtB6_13AirPlayPlayer10set_volume0B8_
FN:413,_RNCNvMs_NtCs41oluKY1Omx_8airplay26playerNtB6_13AirPlayPlayer10shuffle_on0B8_
FN:275,_RNCNvMs_NtCs41oluKY1Omx_8airplay26playerNtB6_13AirPlayPlayer11play_tracks0B8_
FN:422,_RNCNvMs_NtCs41oluKY1Omx_8airplay26playerNtB6_13AirPlayPlayer11shuffle_off0B8_
FN:190,_RNCNvMs_NtCs41oluKY1Omx_8airplay26playerNtB6_13AirPlayPlayer12auto_connect0B8_
FN:261,_RNCNvMs_NtCs41oluKY1Omx_8airplay26playerNtB6_13AirPlayPlayer12is_connected0B8_
FN:476,_RNCNvMs_NtCs41oluKY1Omx_8airplay26playerNtB6_13AirPlayPlayer12queue_length0B8_
FN:461,_RNCNvMs_NtCs41oluKY1Omx_8airplay26playerNtB6_13AirPlayPlayer14playback_state0B8_
FN:225,_RNCNvMs_NtCs41oluKY1Omx_8airplay26playerNtB6_13AirPlayPlayer15connect_by_name0B8_
FN:66,_RNCNvMs_NtCs41oluKY1Omx_8airplay26playerNtB6_13AirPlayPlayer22set_target_device_name0B8_
FN:77,_RNCNvMs_NtCs41oluKY1Omx_8airplay26playerNtB6_13AirPlayPlayer23start_reconnect_monitor0B8_
FN:393,_RNCNvMs_NtCs41oluKY1Omx_8airplay26playerNtB6_13AirPlayPlayer4mute0B8_
FN:314,_RNCNvMs_NtCs41oluKY1Omx_8airplay26playerNtB6_13AirPlayPlayer4play0B8_
FN:368,_RNCNvMs_NtCs41oluKY1Omx_8airplay26playerNtB6_13AirPlayPlayer4seek0B8_
FN:341,_RNCNvMs_NtCs41oluKY1Omx_8airplay26playerNtB6_13AirPlayPlayer4stop0B8_
FN:323,_RNCNvMs_NtCs41oluKY1Omx_8airplay26playerNtB6_13AirPlayPlayer5pause0B8_
FN:471,_RNCNvMs_NtCs41oluKY1Omx_8airplay26playerNtB6_13AirPlayPlayer6device0B8_
FN:402,_RNCNvMs_NtCs41oluKY1Omx_8airplay26playerNtB6_13AirPlayPlayer6unmute0B8_
FN:384,_RNCNvMs_NtCs41oluKY1Omx_8airplay26playerNtB6_13AirPlayPlayer6volume0B8_
FN:245,_RNCNvMs_NtCs41oluKY1Omx_8airplay26playerNtB6_13AirPlayPlayer7connect0B8_
FN:596,_RNCNvNtCs41oluKY1Omx_8airplay26player10quick_play0B5_
FN:608,_RNCNvNtCs41oluKY1Omx_8airplay26player13quick_connect0B5_
FN:619,_RNCNvNtCs41oluKY1Omx_8airplay26player16quick_connect_to0B5_
FN:557,_RNvMs0_NtCs41oluKY1Omx_8airplay26playerNtB5_13PlayerBuilder14auto_reconnect
FN:550,_RNvMs0_NtCs41oluKY1Omx_8airplay26playerNtB5_13PlayerBuilder18connection_timeout
FN:540,_RNvMs0_NtCs41oluKY1Omx_8airplay26playerNtB5_13PlayerBuilder3new
FN:571,_RNvMs0_NtCs41oluKY1Omx_8airplay26playerNtB5_13PlayerBuilder5build
FN:489,_RNvMs_NtCs41oluKY1Omx_8airplay26playerNtB4_13AirPlayPlayer10client_mut
FN:466,_RNvMs_NtCs41oluKY1Omx_8airplay26playerNtB4_13AirPlayPlayer10is_playing
FN:295,_RNvMs_NtCs41oluKY1Omx_8airplay26playerNtB4_13AirPlayPlayer10play_track
FN:449,_RNvMs_NtCs41oluKY1Omx_8airplay26playerNtB4_13AirPlayPlayer10repeat_all
FN:431,_RNvMs_NtCs41oluKY1Omx_8airplay26playerNtB4_13AirPlayPlayer10repeat_off
FN:440,_RNvMs_NtCs41oluKY1Omx_8airplay26playerNtB4_13AirPlayPlayer10repeat_one
FN:379,_RNvMs_NtCs41oluKY1Omx_8airplay26playerNtB4_13AirPlayPlayer10set_volume
FN:413,_RNvMs_NtCs41oluKY1Omx_8airplay26playerNtB4_13AirPlayPlayer10shuffle_on
FN:272,_RNvMs_NtCs41oluKY1Omx_8airplay26playerNtB4_13AirPlayPlayer11play_tracks
FN:422,_RNvMs_NtCs41oluKY1Omx_8airplay26playerNtB4_13AirPlayPlayer11shuffle_off
FN:47,_RNvMs_NtCs41oluKY1Omx_8airplay26playerNtB4_13AirPlayPlayer11with_config
FN:190,_RNvMs_NtCs41oluKY1Omx_8airplay26playerNtB4_13AirPlayPlayer12auto_connect
FN:261,_RNvMs_NtCs41oluKY1Omx_8airplay26playerNtB4_13AirPlayPlayer12is_connected
FN:476,_RNvMs_NtCs41oluKY1Omx_8airplay26playerNtB4_13AirPlayPlayer12queue_length
FN:461,_RNvMs_NtCs41oluKY1Omx_8airplay26playerNtB4_13AirPlayPlayer14playback_state
FN:221,_RNvMs_NtCs41oluKY1Omx_8airplay26playerNtB4_13AirPlayPlayer15connect_by_name
FN:61,_RNvMs_NtCs41oluKY1Omx_8airplay26playerNtB4_13AirPlayPlayer18set_auto_reconnect
FN:66,_RNvMs_NtCs41oluKY1Omx_8airplay26playerNtB4_13AirPlayPlayer22set_target_device_name
FN:70,_RNvMs_NtCs41oluKY1Omx_8airplay26playerNtB4_13AirPlayPlayer23start_reconnect_monitor
FN:41,_RNvMs_NtCs41oluKY1Omx_8airplay26playerNtB4_13AirPlayPlayer3new
FN:393,_RNvMs_NtCs41oluKY1Omx_8airplay26playerNtB4_13AirPlayPlayer4mute
FN:314,_RNvMs_NtCs41oluKY1Omx_8airplay26playerNtB4_13AirPlayPlayer4play
FN:368,_RNvMs_NtCs41oluKY1Omx_8airplay26playerNtB4_13AirPlayPlayer4seek
FN:341,_RNvMs_NtCs41oluKY1Omx_8airplay26playerNtB4_13AirPlayPlayer4stop
FN:323,_RNvMs_NtCs41oluKY1Omx_8airplay26playerNtB4_13AirPlayPlayer5pause
FN:484,_RNvMs_NtCs41oluKY1Omx_8airplay26playerNtB4_13AirPlayPlayer6client
FN:471,_RNvMs_NtCs41oluKY1Omx_8airplay26playerNtB4_13AirPlayPlayer6device
FN:402,_RNvMs_NtCs41oluKY1Omx_8airplay26playerNtB4_13AirPlayPlayer6unmute
FN:384,_RNvMs_NtCs41oluKY1Omx_8airplay26playerNtB4_13AirPlayPlayer6volume
FN:245,_RNvMs_NtCs41oluKY1Omx_8airplay26playerNtB4_13AirPlayPlayer7connect
FN:256,_RNCNvMs_NtCslUrB7RWuRKg_8airplay26playerNtB6_13AirPlayPlayer10disconnect0CsjZ7WIzFe7Th_18player_integration
FN:466,_RNCNvMs_NtCslUrB7RWuRKg_8airplay26playerNtB6_13AirPlayPlayer10is_playing0CsjZ7WIzFe7Th_18player_integration
FN:300,_RNCNvMs_NtCslUrB7RWuRKg_8airplay26playerNtB6_13AirPlayPlayer10play_track0CsjZ7WIzFe7Th_18player_integration
FN:449,_RNCNvMs_NtCslUrB7RWuRKg_8airplay26playerNtB6_13AirPlayPlayer10repeat_all0CsjZ7WIzFe7Th_18player_integration
FN:431,_RNCNvMs_NtCslUrB7RWuRKg_8airplay26playerNtB6_13AirPlayPlayer10repeat_off0CsjZ7WIzFe7Th_18player_integration
FN:440,_RNCNvMs_NtCslUrB7RWuRKg_8airplay26playerNtB6_13AirPlayPlayer10repeat_one0CsjZ7WIzFe7Th_18player_integration
FN:379,_RNCNvMs_NtCslUrB7RWuRKg_8airplay26playerNtB6_13AirPlayPlayer10set_volume0CsjZ7WIzFe7Th_18player_integration
FN:413,_RNCNvMs_NtCslUrB7RWuRKg_8airplay26playerNtB6_13AirPlayPlayer10shuffle_on0CsjZ7WIzFe7Th_18player_integration
FN:422,_RNCNvMs_NtCslUrB7RWuRKg_8airplay26playerNtB6_13AirPlayPlayer11shuffle_off0CsjZ7WIzFe7Th_18player_integration
FN:261,_RNCNvMs_NtCslUrB7RWuRKg_8airplay26playerNtB6_13AirPlayPlayer12is_connected0CsjZ7WIzFe7Th_18player_integration
FN:476,_RNCNvMs_NtCslUrB7RWuRKg_8airplay26playerNtB6_13AirPlayPlayer12queue_length0CsjZ7WIzFe7Th_18player_integration
FN:461,_RNCNvMs_NtCslUrB7RWuRKg_8airplay26playerNtB6_13AirPlayPlayer14playback_state0CsjZ7WIzFe7Th_18player_integration
FN:393,_RNCNvMs_NtCslUrB7RWuRKg_8airplay26playerNtB6_13AirPlayPlayer4mute0CsjZ7WIzFe7Th_18player_integration
FN:314,_RNCNvMs_NtCslUrB7RWuRKg_8airplay26playerNtB6_13AirPlayPlayer4play0CsjZ7WIzFe7Th_18player_integration
FN:368,_RNCNvMs_NtCslUrB7RWuRKg_8airplay26playerNtB6_13AirPlayPlayer4seek0CsjZ7WIzFe7Th_18player_integration
FN:350,_RNCNvMs_NtCslUrB7RWuRKg_8airplay26playerNtB6_13AirPlayPlayer4skip0CsjZ7WIzFe7Th_18player_integration
FN:323,_RNCNvMs_NtCslUrB7RWuRKg_8airplay26playerNtB6_13AirPlayPlayer5pause0CsjZ7WIzFe7Th_18player_integration
FN:402,_RNCNvMs_NtCslUrB7RWuRKg_8airplay26playerNtB6_13AirPlayPlayer6unmute0CsjZ7WIzFe7Th_18player_integration
FN:384,_RNCNvMs_NtCslUrB7RWuRKg_8airplay26playerNtB6_13AirPlayPlayer6volume0CsjZ7WIzFe7Th_18player_integration
FNDA:0,_RINvMs0_NtCslUrB7RWuRKg_8airplay26playerNtB6_13PlayerBuilder11device_namepEB8_
FNDA:0,_RINvMs_NtCslUrB7RWuRKg_8airplay26playerNtB5_13AirPlayPlayer9play_filepEB7_
FNDA:0,_RNCINvMs_NtCslUrB7RWuRKg_8airplay26playerNtB7_13AirPlayPlayer9play_filepE0B9_
FNDA:0,_RNCNCINvMs_NtCslUrB7RWuRKg_8airplay26playerNtB9_13AirPlayPlayer9play_filepE00Bb_
FNDA:0,_RNCNvMs_NtCslUrB7RWuRKg_8airplay26playerNtB6_13AirPlayPlayer10disconnect0B8_
FNDA:0,_RNCNvMs_NtCslUrB7RWuRKg_8airplay26playerNtB6_13AirPlayPlayer10is_playing0B8_
FNDA:0,_RNCNvMs_NtCslUrB7RWuRKg_8airplay26playerNtB6_13AirPlayPlayer10play_track0B8_
FNDA:0,_RNCNvMs_NtCslUrB7RWuRKg_8airplay26playerNtB6_13AirPlayPlayer10repeat_all0B8_
FNDA:0,_RNCNvMs_NtCslUrB7RWuRKg_8airplay26playerNtB6_13AirPlayPlayer10repeat_off0B8_
FNDA:0,_RNCNvMs_NtCslUrB7RWuRKg_8airplay26playerNtB6_13AirPlayPlayer10repeat_one0B8_
FNDA:0,_RNCNvMs_NtCslUrB7RWuRKg_8airplay26playerNtB6_13AirPlayPlayer10set_volume0B8_
FNDA:0,_RNCNvMs_NtCslUrB7RWuRKg_8airplay26playerNtB6_13AirPlayPlayer10shuffle_on0B8_
FNDA:0,_RNCNvMs_NtCslUrB7RWuRKg_8airplay26playerNtB6_13AirPlayPlayer11shuffle_off0B8_
FNDA:0,_RNCNvMs_NtCslUrB7RWuRKg_8airplay26playerNtB6_13AirPlayPlayer12is_connected0B8_
FNDA:0,_RNCNvMs_NtCslUrB7RWuRKg_8airplay26playerNtB6_13AirPlayPlayer12queue_length0B8_
FNDA:0,_RNCNvMs_NtCslUrB7RWuRKg_8airplay26playerNtB6_13AirPlayPlayer13current_track0B8_
FNDA:0,_RNCNvMs_NtCslUrB7RWuRKg_8airplay26playerNtB6_13AirPlayPlayer14playback_state0B8_
FNDA:0,_RNCNvMs_NtCslUrB7RWuRKg_8airplay26playerNtB6_13AirPlayPlayer22set_target_device_name0B8_
FNDA:0,_RNCNvMs_NtCslUrB7RWuRKg_8airplay26playerNtB6_13AirPlayPlayer4back0B8_
FNDA:0,_RNCNvMs_NtCslUrB7RWuRKg_8airplay26playerNtB6_13AirPlayPlayer4mute0B8_
FNDA:0,_RNCNvMs_NtCslUrB7RWuRKg_8airplay26playerNtB6_13AirPlayPlayer4play0B8_
FNDA:0,_RNCNvMs_NtCslUrB7RWuRKg_8airplay26playerNtB6_13AirPlayPlayer4seek0B8_
FNDA:0,_RNCNvMs_NtCslUrB7RWuRKg_8airplay26playerNtB6_13AirPlayPlayer4skip0B8_
FNDA:0,_RNCNvMs_NtCslUrB7RWuRKg_8airplay26playerNtB6_13AirPlayPlayer4stop0B8_
FNDA:0,_RNCNvMs_NtCslUrB7RWuRKg_8airplay26playerNtB6_13AirPlayPlayer5pause0B8_
FNDA:0,_RNCNvMs_NtCslUrB7RWuRKg_8airplay26playerNtB6_13AirPlayPlayer6device0B8_
FNDA:0,_RNCNvMs_NtCslUrB7RWuRKg_8airplay26playerNtB6_13AirPlayPlayer6toggle0B8_
FNDA:0,_RNCNvMs_NtCslUrB7RWuRKg_8airplay26playerNtB6_13AirPlayPlayer6unmute0B8_
FNDA:0,_RNCNvMs_NtCslUrB7RWuRKg_8airplay26playerNtB6_13AirPlayPlayer6volume0B8_
FNDA:0,_RNvMs0_NtCslUrB7RWuRKg_8airplay26playerNtB5_13PlayerBuilder14auto_reconnect
FNDA:0,_RNvMs0_NtCslUrB7RWuRKg_8airplay26playerNtB5_13PlayerBuilder18connection_timeout
FNDA:0,_RNvMs0_NtCslUrB7RWuRKg_8airplay26playerNtB5_13PlayerBuilder3new
FNDA:0,_RNvMs0_NtCslUrB7RWuRKg_8airplay26playerNtB5_13PlayerBuilder5build
FNDA:0,_RNvMs_NtCslUrB7RWuRKg_8airplay26playerNtB4_13AirPlayPlayer10client_mut
FNDA:2,_RNvMs_NtCslUrB7RWuRKg_8airplay26playerNtB4_13AirPlayPlayer10disconnect
FNDA:4,_RNvMs_NtCslUrB7RWuRKg_8airplay26playerNtB4_13AirPlayPlayer10is_playing
FNDA:1,_RNvMs_NtCslUrB7RWuRKg_8airplay26playerNtB4_13AirPlayPlayer10play_track
FNDA:1,_RNvMs_NtCslUrB7RWuRKg_8airplay26playerNtB4_13AirPlayPlayer10repeat_all
FNDA:1,_RNvMs_NtCslUrB7RWuRKg_8airplay26playerNtB4_13AirPlayPlayer10repeat_off
FNDA:1,_RNvMs_NtCslUrB7RWuRKg_8airplay26playerNtB4_13AirPlayPlayer10repeat_one
FNDA:1,_RNvMs_NtCslUrB7RWuRKg_8airplay26playerNtB4_13AirPlayPlayer10set_volume
FNDA:1,_RNvMs_NtCslUrB7RWuRKg_8airplay26playerNtB4_13AirPlayPlayer10shuffle_on
FNDA:2,_RNvMs_NtCslUrB7RWuRKg_8airplay26playerNtB4_13AirPlayPlayer11play_tracks
FNDA:1,_RNvMs_NtCslUrB7RWuRKg_8airplay26playerNtB4_13AirPlayPlayer11shuffle_off
FNDA:2,_RNvMs_NtCslUrB7RWuRKg_8airplay26playerNtB4_13AirPlayPlayer11with_config
FNDA:0,_RNvMs_NtCslUrB7RWuRKg_8airplay26playerNtB4_13AirPlayPlayer12auto_connect
FNDA:2,_RNvMs_NtCslUrB7RWuRKg_8airplay26playerNtB4_13AirPlayPlayer12is_connected
FNDA:2,_RNvMs_NtCslUrB7RWuRKg_8airplay26playerNtB4_13AirPlayPlayer12queue_length
FNDA:0,_RNvMs_NtCslUrB7RWuRKg_8airplay26playerNtB4_13AirPlayPlayer13current_track
FNDA:4,_RNvMs_NtCslUrB7RWuRKg_8airplay26playerNtB4_13AirPlayPlayer14playback_state
FNDA:0,_RNvMs_NtCslUrB7RWuRKg_8airplay26playerNtB4_13AirPlayPlayer15connect_by_name
FNDA:0,_RNvMs_NtCslUrB7RWuRKg_8airplay26playerNtB4_13AirPlayPlayer18set_auto_reconnect
FNDA:0,_RNvMs_NtCslUrB7RWuRKg_8airplay26playerNtB4_13AirPlayPlayer22set_target_device_name
FNDA:2,_RNvMs_NtCslUrB7RWuRKg_8airplay26playerNtB4_13AirPlayPlayer23start_reconnect_monitor
FNDA:2,_RNvMs_NtCslUrB7RWuRKg_8airplay26playerNtB4_13AirPlayPlayer3new
FNDA:0,_RNvMs_NtCslUrB7RWuRKg_8airplay26playerNtB4_13AirPlayPlayer4back
FNDA:1,_RNvMs_NtCslUrB7RWuRKg_8airplay26playerNtB4_13AirPlayPlayer4mute
FNDA:1,_RNvMs_NtCslUrB7RWuRKg_8airplay26playerNtB4_13AirPlayPlayer4play
FNDA:1,_RNvMs_NtCslUrB7RWuRKg_8airplay26playerNtB4_13AirPlayPlayer4seek
FNDA:1,_RNvMs_NtCslUrB7RWuRKg_8airplay26playerNtB4_13AirPlayPlayer4skip
FNDA:0,_RNvMs_NtCslUrB7RWuRKg_8airplay26playerNtB4_13AirPlayPlayer4stop
FNDA:1,_RNvMs_NtCslUrB7RWuRKg_8airplay26playerNtB4_13AirPlayPlayer5pause
FNDA:3,_RNvMs_NtCslUrB7RWuRKg_8airplay26playerNtB4_13AirPlayPlayer6client
FNDA:0,_RNvMs_NtCslUrB7RWuRKg_8airplay26playerNtB4_13AirPlayPlayer6device
FNDA:0,_RNvMs_NtCslUrB7RWuRKg_8airplay26playerNtB4_13AirPlayPlayer6toggle
FNDA:1,_RNvMs_NtCslUrB7RWuRKg_8airplay26playerNtB4_13AirPlayPlayer6unmute
FNDA:1,_RNvMs_NtCslUrB7RWuRKg_8airplay26playerNtB4_13AirPlayPlayer6volume
FNDA:2,_RNvMs_NtCslUrB7RWuRKg_8airplay26playerNtB4_13AirPlayPlayer7connect
FNDA:0,_RNvNtCslUrB7RWuRKg_8airplay26player10quick_play
FNDA:0,_RNvNtCslUrB7RWuRKg_8airplay26player13quick_connect
FNDA:0,_RNvNtCslUrB7RWuRKg_8airplay26player16quick_connect_to
FNDA:0,_RNvXNtCslUrB7RWuRKg_8airplay26playerNtB2_13AirPlayPlayerNtNtCs3XFJfFEDSOQ_4core7default7Default7default
FNDA:0,_RNvXs1_NtCslUrB7RWuRKg_8airplay26playerNtB5_13PlayerBuilderNtNtCs3XFJfFEDSOQ_4core7default7Default7default
FNDA:0,_RNCNCNvMs_NtCslUrB7RWuRKg_8airplay26playerNtB8_13AirPlayPlayer12auto_connect00Ba_
FNDA:0,_RNCNCNvMs_NtCslUrB7RWuRKg_8airplay26playerNtB8_13AirPlayPlayer12auto_connect0s0_0Ba_
FNDA:0,_RNCNCNvMs_NtCslUrB7RWuRKg_8airplay26playerNtB8_13AirPlayPlayer12auto_connect0s_0Ba_
FNDA:0,_RNCNCNvMs_NtCslUrB7RWuRKg_8airplay26playerNtB8_13AirPlayPlayer15connect_by_name00Ba_
FNDA:0,_RNCNCNvMs_NtCslUrB7RWuRKg_8airplay26playerNtB8_13AirPlayPlayer15connect_by_name0s_0Ba_
FNDA:0,_RNCNCNvMs_NtCslUrB7RWuRKg_8airplay26playerNtB8_13AirPlayPlayer23start_reconnect_monitor00Ba_
FNDA:2,_RNCNvMs_NtCslUrB7RWuRKg_8airplay26playerNtB6_13AirPlayPlayer11play_tracks0B8_
FNDA:0,_RNCNvMs_NtCslUrB7RWuRKg_8airplay26playerNtB6_13AirPlayPlayer12auto_connect0B8_
FNDA:0,_RNCNvMs_NtCslUrB7RWuRKg_8airplay26playerNtB6_13AirPlayPlayer15connect_by_name0B8_
FNDA:2,_RNCNvMs_NtCslUrB7RWuRKg_8airplay26playerNtB6_13AirPlayPlayer23start_reconnect_monitor0B8_
FNDA:2,_RNCNvMs_NtCslUrB7RWuRKg_8airplay26playerNtB6_13AirPlayPlayer7connect0B8_
FNDA:0,_RNCNvNtCslUrB7RWuRKg_8airplay26player10quick_play0B5_
FNDA:0,_RNCNvNtCslUrB7RWuRKg_8airplay26player13quick_connect0B5_
FNDA:0,_RNCNvNtCslUrB7RWuRKg_8airplay26player16quick_connect_to0B5_
FNDA:0,_RNCNvMs_NtCs41oluKY1Omx_8airplay26playerNtB6_13AirPlayPlayer10disconnect0B8_
FNDA:0,_RNCNvMs_NtCs41oluKY1Omx_8airplay26playerNtB6_13AirPlayPlayer13current_track0B8_
FNDA:0,_RNCNvMs_NtCs41oluKY1Omx_8airplay26playerNtB6_13AirPlayPlayer4back0B8_
FNDA:0,_RNCNvMs_NtCs41oluKY1Omx_8airplay26playerNtB6_13AirPlayPlayer4skip0B8_
FNDA:0,_RNCNvMs_NtCs41oluKY1Omx_8airplay26playerNtB6_13AirPlayPlayer6toggle0B8_
FNDA:0,_RNvMs_NtCs41oluKY1Omx_8airplay26playerNtB4_13AirPlayPlayer10disconnect
FNDA:0,_RNvMs_NtCs41oluKY1Omx_8airplay26playerNtB4_13AirPlayPlayer13current_track
FNDA:0,_RNvMs_NtCs41oluKY1Omx_8airplay26playerNtB4_13AirPlayPlayer4back
FNDA:0,_RNvMs_NtCs41oluKY1Omx_8airplay26playerNtB4_13AirPlayPlayer4skip
FNDA:0,_RNvMs_NtCs41oluKY1Omx_8airplay26playerNtB4_13AirPlayPlayer6toggle
FNDA:0,_RNvNtCs41oluKY1Omx_8airplay26player10quick_play
FNDA:0,_RNvNtCs41oluKY1Omx_8airplay26player13quick_connect
FNDA:0,_RNvNtCs41oluKY1Omx_8airplay26player16quick_connect_to
FNDA:0,_RNvXNtCs41oluKY1Omx_8airplay26playerNtB2_13AirPlayPlayerNtNtCs3XFJfFEDSOQ_4core7default7Default7default
FNDA:0,_RNvXs1_NtCs41oluKY1Omx_8airplay26playerNtB5_13PlayerBuilderNtNtCs3XFJfFEDSOQ_4core7default7Default7default
FNDA:1,_RINvMs0_NtCs41oluKY1Omx_8airplay26playerNtB6_13PlayerBuilder11device_nameReEB8_
FNDA:1,_RINvMs_NtCs41oluKY1Omx_8airplay26playerNtB5_13AirPlayPlayer9play_fileReEB7_
FNDA:1,_RNCINvMs_NtCs41oluKY1Omx_8airplay26playerNtB7_13AirPlayPlayer9play_fileReE0B9_
FNDA:1,_RNCNCINvMs_NtCs41oluKY1Omx_8airplay26playerNtB9_13AirPlayPlayer9play_fileReE00Bb_
FNDA:0,_RNCNCNvMs_NtCs41oluKY1Omx_8airplay26playerNtB8_13AirPlayPlayer12auto_connect00Ba_
FNDA:0,_RNCNCNvMs_NtCs41oluKY1Omx_8airplay26playerNtB8_13AirPlayPlayer12auto_connect0s0_0Ba_
FNDA:0,_RNCNCNvMs_NtCs41oluKY1Omx_8airplay26playerNtB8_13AirPlayPlayer12auto_connect0s_0Ba_
FNDA:0,_RNCNCNvMs_NtCs41oluKY1Omx_8airplay26playerNtB8_13AirPlayPlayer15connect_by_name00Ba_
FNDA:0,_RNCNCNvMs_NtCs41oluKY1Omx_8airplay26playerNtB8_13AirPlayPlayer15connect_by_name0s_0Ba_
FNDA:0,_RNCNCNvMs_NtCs41oluKY1Omx_8airplay26playerNtB8_13AirPlayPlayer23start_reconnect_monitor00Ba_
FNDA:2,_RNCNvMs_NtCs41oluKY1Omx_8airplay26playerNtB6_13AirPlayPlayer10is_playing0B8_
FNDA:1,_RNCNvMs_NtCs41oluKY1Omx_8airplay26playerNtB6_13AirPlayPlayer10play_track0B8_
FNDA:1,_RNCNvMs_NtCs41oluKY1Omx_8airplay26playerNtB6_13AirPlayPlayer10repeat_all0B8_
FNDA:1,_RNCNvMs_NtCs41oluKY1Omx_8airplay26playerNtB6_13AirPlayPlayer10repeat_off0B8_
FNDA:1,_RNCNvMs_NtCs41oluKY1Omx_8airplay26playerNtB6_13AirPlayPlayer10repeat_one0B8_
FNDA:1,_RNCNvMs_NtCs41oluKY1Omx_8airplay26playerNtB6_13AirPlayPlayer10set_volume0B8_
FNDA:1,_RNCNvMs_NtCs41oluKY1Omx_8airplay26playerNtB6_13AirPlayPlayer10shuffle_on0B8_
FNDA:3,_RNCNvMs_NtCs41oluKY1Omx_8airplay26playerNtB6_13AirPlayPlayer11play_tracks0B8_
FNDA:1,_RNCNvMs_NtCs41oluKY1Omx_8airplay26playerNtB6_13AirPlayPlayer11shuffle_off0B8_
FNDA:0,_RNCNvMs_NtCs41oluKY1Omx_8airplay26playerNtB6_13AirPlayPlayer12auto_connect0B8_
FNDA:3,_RNCNvMs_NtCs41oluKY1Omx_8airplay26playerNtB6_13AirPlayPlayer12is_connected0B8_
FNDA:5,_RNCNvMs_NtCs41oluKY1Omx_8airplay26playerNtB6_13AirPlayPlayer12queue_length0B8_
FNDA:3,_RNCNvMs_NtCs41oluKY1Omx_8airplay26playerNtB6_13AirPlayPlayer14playback_state0B8_
FNDA:0,_RNCNvMs_NtCs41oluKY1Omx_8airplay26playerNtB6_13AirPlayPlayer15connect_by_name0B8_
FNDA:1,_RNCNvMs_NtCs41oluKY1Omx_8airplay26playerNtB6_13AirPlayPlayer22set_target_device_name0B8_
FNDA:0,_RNCNvMs_NtCs41oluKY1Omx_8airplay26playerNtB6_13AirPlayPlayer23start_reconnect_monitor0B8_
FNDA:1,_RNCNvMs_NtCs41oluKY1Omx_8airplay26playerNtB6_13AirPlayPlayer4mute0B8_
FNDA:1,_RNCNvMs_NtCs41oluKY1Omx_8airplay26playerNtB6_13AirPlayPlayer4play0B8_
FNDA:1,_RNCNvMs_NtCs41oluKY1Omx_8airplay26playerNtB6_13AirPlayPlayer4seek0B8_
FNDA:1,_RNCNvMs_NtCs41oluKY1Omx_8airplay26playerNtB6_13AirPlayPlayer4stop0B8_
FNDA:1,_RNCNvMs_NtCs41oluKY1Omx_8airplay26playerNtB6_13AirPlayPlayer5pause0B8_
FNDA:1,_RNCNvMs_NtCs41oluKY1Omx_8airplay26playerNtB6_13AirPlayPlayer6device0B8_
FNDA:1,_RNCNvMs_NtCs41oluKY1Omx_8airplay26playerNtB6_13AirPlayPlayer6unmute0B8_
FNDA:1,_RNCNvMs_NtCs41oluKY1Omx_8airplay26playerNtB6_13AirPlayPlayer6volume0B8_
FNDA:0,_RNCNvMs_NtCs41oluKY1Omx_8airplay26playerNtB6_13AirPlayPlayer7connect0B8_
FNDA:0,_RNCNvNtCs41oluKY1Omx_8airplay26player10quick_play0B5_
FNDA:0,_RNCNvNtCs41oluKY1Omx_8airplay26player13quick_connect0B5_
FNDA:0,_RNCNvNtCs41oluKY1Omx_8airplay26player16quick_connect_to0B5_
FNDA:1,_RNvMs0_NtCs41oluKY1Omx_8airplay26playerNtB5_13PlayerBuilder14auto_reconnect
FNDA:1,_RNvMs0_NtCs41oluKY1Omx_8airplay26playerNtB5_13PlayerBuilder18connection_timeout
FNDA:2,_RNvMs0_NtCs41oluKY1Omx_8airplay26playerNtB5_13PlayerBuilder3new
FNDA:2,_RNvMs0_NtCs41oluKY1Omx_8airplay26playerNtB5_13PlayerBuilder5build
FNDA:1,_RNvMs_NtCs41oluKY1Omx_8airplay26playerNtB4_13AirPlayPlayer10client_mut
FNDA:2,_RNvMs_NtCs41oluKY1Omx_8airplay26playerNtB4_13AirPlayPlayer10is_playing
FNDA:1,_RNvMs_NtCs41oluKY1Omx_8airplay26playerNtB4_13AirPlayPlayer10play_track
FNDA:1,_RNvMs_NtCs41oluKY1Omx_8airplay26playerNtB4_13AirPlayPlayer10repeat_all
FNDA:1,_RNvMs_NtCs41oluKY1Omx_8airplay26playerNtB4_13AirPlayPlayer10repeat_off
FNDA:1,_RNvMs_NtCs41oluKY1Omx_8airplay26playerNtB4_13AirPlayPlayer10repeat_one
FNDA:1,_RNvMs_NtCs41oluKY1Omx_8airplay26playerNtB4_13AirPlayPlayer10set_volume
FNDA:1,_RNvMs_NtCs41oluKY1Omx_8airplay26playerNtB4_13AirPlayPlayer10shuffle_on
FNDA:3,_RNvMs_NtCs41oluKY1Omx_8airplay26playerNtB4_13AirPlayPlayer11play_tracks
FNDA:1,_RNvMs_NtCs41oluKY1Omx_8airplay26playerNtB4_13AirPlayPlayer11shuffle_off
FNDA:12,_RNvMs_NtCs41oluKY1Omx_8airplay26playerNtB4_13AirPlayPlayer11with_config
FNDA:0,_RNvMs_NtCs41oluKY1Omx_8airplay26playerNtB4_13AirPlayPlayer12auto_connect
FNDA:3,_RNvMs_NtCs41oluKY1Omx_8airplay26playerNtB4_13AirPlayPlayer12is_connected
FNDA:5,_RNvMs_NtCs41oluKY1Omx_8airplay26playerNtB4_13AirPlayPlayer12queue_length
FNDA:3,_RNvMs_NtCs41oluKY1Omx_8airplay26playerNtB4_13AirPlayPlayer14playback_state
FNDA:0,_RNvMs_NtCs41oluKY1Omx_8airplay26playerNtB4_13AirPlayPlayer15connect_by_name
FNDA:2,_RNvMs_NtCs41oluKY1Omx_8airplay26playerNtB4_13AirPlayPlayer18set_auto_reconnect
FNDA:1,_RNvMs_NtCs41oluKY1Omx_8airplay26playerNtB4_13AirPlayPlayer22set_target_device_name
FNDA:12,_RNvMs_NtCs41oluKY1Omx_8airplay26playerNtB4_13AirPlayPlayer23start_reconnect_monitor
FNDA:9,_RNvMs_NtCs41oluKY1Omx_8airplay26playerNtB4_13AirPlayPlayer3new
FNDA:1,_RNvMs_NtCs41oluKY1Omx_8airplay26playerNtB4_13AirPlayPlayer4mute
FNDA:1,_RNvMs_NtCs41oluKY1Omx_8airplay26playerNtB4_13AirPlayPlayer4play
FNDA:1,_RNvMs_NtCs41oluKY1Omx_8airplay26playerNtB4_13AirPlayPlayer4seek
FNDA:1,_RNvMs_NtCs41oluKY1Omx_8airplay26playerNtB4_13AirPlayPlayer4stop
FNDA:1,_RNvMs_NtCs41oluKY1Omx_8airplay26playerNtB4_13AirPlayPlayer5pause
FNDA:5,_RNvMs_NtCs41oluKY1Omx_8airplay26playerNtB4_13AirPlayPlayer6client
FNDA:1,_RNvMs_NtCs41oluKY1Omx_8airplay26playerNtB4_13AirPlayPlayer6device
FNDA:1,_RNvMs_NtCs41oluKY1Omx_8airplay26playerNtB4_13AirPlayPlayer6unmute
FNDA:1,_RNvMs_NtCs41oluKY1Omx_8airplay26playerNtB4_13AirPlayPlayer6volume
FNDA:0,_RNvMs_NtCs41oluKY1Omx_8airplay26playerNtB4_13AirPlayPlayer7connect
FNDA:2,_RNCNvMs_NtCslUrB7RWuRKg_8airplay26playerNtB6_13AirPlayPlayer10disconnect0CsjZ7WIzFe7Th_18player_integration
FNDA:4,_RNCNvMs_NtCslUrB7RWuRKg_8airplay26playerNtB6_13AirPlayPlayer10is_playing0CsjZ7WIzFe7Th_18player_integration
FNDA:1,_RNCNvMs_NtCslUrB7RWuRKg_8airplay26playerNtB6_13AirPlayPlayer10play_track0CsjZ7WIzFe7Th_18player_integration
FNDA:1,_RNCNvMs_NtCslUrB7RWuRKg_8airplay26playerNtB6_13AirPlayPlayer10repeat_all0CsjZ7WIzFe7Th_18player_integration
FNDA:1,_RNCNvMs_NtCslUrB7RWuRKg_8airplay26playerNtB6_13AirPlayPlayer10repeat_off0CsjZ7WIzFe7Th_18player_integration
FNDA:1,_RNCNvMs_NtCslUrB7RWuRKg_8airplay26playerNtB6_13AirPlayPlayer10repeat_one0CsjZ7WIzFe7Th_18player_integration
FNDA:1,_RNCNvMs_NtCslUrB7RWuRKg_8airplay26playerNtB6_13AirPlayPlayer10set_volume0CsjZ7WIzFe7Th_18player_integration
FNDA:1,_RNCNvMs_NtCslUrB7RWuRKg_8airplay26playerNtB6_13AirPlayPlayer10shuffle_on0CsjZ7WIzFe7Th_18player_integration
FNDA:1,_RNCNvMs_NtCslUrB7RWuRKg_8airplay26playerNtB6_13AirPlayPlayer11shuffle_off0CsjZ7WIzFe7Th_18player_integration
FNDA:2,_RNCNvMs_NtCslUrB7RWuRKg_8airplay26playerNtB6_13AirPlayPlayer12is_connected0CsjZ7WIzFe7Th_18player_integration
FNDA:2,_RNCNvMs_NtCslUrB7RWuRKg_8airplay26playerNtB6_13AirPlayPlayer12queue_length0CsjZ7WIzFe7Th_18player_integration
FNDA:4,_RNCNvMs_NtCslUrB7RWuRKg_8airplay26playerNtB6_13AirPlayPlayer14playback_state0CsjZ7WIzFe7Th_18player_integration
FNDA:1,_RNCNvMs_NtCslUrB7RWuRKg_8airplay26playerNtB6_13AirPlayPlayer4mute0CsjZ7WIzFe7Th_18player_integration
FNDA:1,_RNCNvMs_NtCslUrB7RWuRKg_8airplay26playerNtB6_13AirPlayPlayer4play0CsjZ7WIzFe7Th_18player_integration
FNDA:1,_RNCNvMs_NtCslUrB7RWuRKg_8airplay26playerNtB6_13AirPlayPlayer4seek0CsjZ7WIzFe7Th_18player_integration
FNDA:1,_RNCNvMs_NtCslUrB7RWuRKg_8airplay26playerNtB6_13AirPlayPlayer4skip0CsjZ7WIzFe7Th_18player_integration
FNDA:1,_RNCNvMs_NtCslUrB7RWuRKg_8airplay26playerNtB6_13AirPlayPlayer5pause0CsjZ7WIzFe7Th_18player_integration
FNDA:1,_RNCNvMs_NtCslUrB7RWuRKg_8airplay26playerNtB6_13AirPlayPlayer6unmute0CsjZ7WIzFe7Th_18player_integration
FNDA:1,_RNCNvMs_NtCslUrB7RWuRKg_8airplay26playerNtB6_13AirPlayPlayer6volume0CsjZ7WIzFe7Th_18player_integration
FNF:87
FNH:63
DA:33,0
DA:34,0
DA:35,0
DA:41,11
DA:42,11
DA:43,11
DA:47,14
DA:48,14
DA:49,14
DA:50,14
DA:51,14
DA:52,14
DA:53,14
DA:54,14
DA:56,14
DA:57,14
DA:58,14
DA:61,2
DA:62,2
DA:63,2
DA:66,1
DA:67,1
DA:68,1
DA:70,14
DA:71,14
DA:72,14
DA:73,14
DA:74,14
DA:75,14
DA:77,14
DA:78,10
DA:79,8
DA:80,0
DA:85,0
DA:86,0
DA:87,0
DA:88,0
DA:90,0
DA:91,0
DA:93,0
DA:94,0
DA:95,0
DA:96,0
DA:98,0
DA:99,0
DA:102,0
DA:103,0
DA:104,0
DA:106,0
DA:107,0
DA:108,0
DA:111,0
DA:113,0
DA:116,0
DA:117,0
DA:118,0
DA:125,0
DA:126,0
DA:127,0
DA:128,0
DA:130,0
DA:131,0
DA:135,0
DA:137,0
DA:139,0
DA:140,0
DA:141,0
DA:145,0
DA:146,0
DA:149,0
DA:150,0
DA:155,0
DA:158,0
DA:159,0
DA:162,0
DA:163,0
DA:167,0
DA:168,0
DA:171,0
DA:172,0
DA:174,0
DA:177,0
DA:178,8
DA:180,0
DA:181,14
DA:190,0
DA:191,0
DA:193,0
DA:195,0
DA:196,0
DA:197,0
DA:198,0
DA:199,0
DA:200,0
DA:201,0
DA:202,0
DA:204,0
DA:205,0
DA:206,0
DA:207,0
DA:208,0
DA:209,0
DA:212,0
DA:213,0
DA:214,0
DA:221,0
DA:222,0
DA:223,0
DA:224,0
DA:225,0
DA:226,0
DA:228,0
DA:229,0
DA:230,0
DA:231,0
DA:232,0
DA:233,0
DA:234,0
DA:236,0
DA:237,0
DA:238,0
DA:245,2
DA:246,2
DA:247,2
DA:248,2
DA:249,2
DA:256,2
DA:257,2
DA:258,2
DA:261,5
DA:262,5
DA:263,5
DA:272,5
DA:273,5
DA:274,5
DA:275,5
DA:276,5
DA:278,10
DA:279,5
DA:280,5
DA:283,5
DA:284,4
DA:286,1
DA:288,5
DA:295,2
DA:296,2
DA:297,2
DA:298,2
DA:299,2
DA:300,2
DA:301,2
DA:302,2
DA:303,2
DA:304,2
DA:305,2
DA:306,2
DA:307,2
DA:314,2
DA:315,2
DA:316,2
DA:323,2
DA:324,2
DA:325,2
DA:332,0
DA:333,0
DA:334,0
DA:341,1
DA:342,1
DA:343,1
DA:350,1
DA:351,1
DA:352,1
DA:359,0
DA:360,0
DA:361,0
DA:368,2
DA:369,2
DA:370,2
DA:379,2
DA:380,2
DA:381,2
DA:384,2
DA:385,2
DA:386,2
DA:393,2
DA:394,2
DA:395,2
DA:402,2
DA:403,2
DA:404,2
DA:413,2
DA:414,2
DA:415,2
DA:422,2
DA:423,2
DA:424,2
DA:431,2
DA:432,2
DA:433,2
DA:440,2
DA:441,2
DA:442,2
DA:449,2
DA:450,2
DA:451,2
DA:456,0
DA:457,0
DA:458,0
DA:461,7
DA:462,7
DA:463,7
DA:466,6
DA:467,6
DA:468,6
DA:471,1
DA:472,1
DA:473,1
DA:476,7
DA:477,7
DA:478,7
DA:484,8
DA:485,8
DA:486,8
DA:489,1
DA:490,1
DA:491,1
DA:499,1
DA:500,1
DA:501,1
DA:502,1
DA:503,0
DA:504,1
DA:505,1
DA:506,1
DA:507,1
DA:510,0
DA:511,0
DA:512,0
DA:514,0
DA:515,0
DA:516,0
DA:518,0
DA:519,0
DA:520,0
DA:521,0
DA:524,0
DA:526,0
DA:527,1
DA:540,2
DA:541,2
DA:542,2
DA:543,2
DA:544,2
DA:545,2
DA:546,2
DA:550,1
DA:551,1
DA:552,1
DA:553,1
DA:557,1
DA:558,1
DA:559,1
DA:560,1
DA:564,1
DA:565,1
DA:566,1
DA:567,1
DA:571,2
DA:572,2
DA:573,2
DA:574,2
DA:575,1
DA:576,1
DA:577,2
DA:578,2
DA:582,0
DA:583,0
DA:584,0
DA:594,0
DA:595,0
DA:596,0
DA:597,0
DA:598,0
DA:599,0
DA:600,0
DA:601,0
DA:608,0
DA:609,0
DA:610,0
DA:611,0
DA:612,0
DA:619,0
DA:620,0
DA:621,0
DA:622,0
DA:623,0
BRF:0
BRH:0
LF:337
LH:190
end_of_record
SF:/app/src/protocol/crypto/aes.rs
FN:54,_RNvMNtNtNtCslUrB7RWuRKg_8airplay28protocol6crypto3aesNtB2_9Aes128Ctr12new_internal
FN:68,_RNvMNtNtNtCslUrB7RWuRKg_8airplay28protocol6crypto3aesNtB2_9Aes128Ctr15apply_keystream
FN:43,_RNvMNtNtNtCslUrB7RWuRKg_8airplay28protocol6crypto3aesNtB2_9Aes128Ctr15new_with_cipher
FN:131,_RNvMNtNtNtCslUrB7RWuRKg_8airplay28protocol6crypto3aesNtB2_9Aes128Ctr17increment_counter
FN:22,_RNvMNtNtNtCslUrB7RWuRKg_8airplay28protocol6crypto3aesNtB2_9Aes128Ctr3new
FN:146,_RNvMNtNtNtCslUrB7RWuRKg_8airplay28protocol6crypto3aesNtB2_9Aes128Ctr4seek
FN:139,_RNvMNtNtNtCslUrB7RWuRKg_8airplay28protocol6crypto3aesNtB2_9Aes128Ctr7process
FN:180,_RNvMs_NtNtNtCslUrB7RWuRKg_8airplay28protocol6crypto3aesNtB4_9Aes128Gcm3new
FN:224,_RNvMs_NtNtNtCslUrB7RWuRKg_8airplay28protocol6crypto3aesNtB4_9Aes128Gcm7decrypt
FN:202,_RNvMs_NtNtNtCslUrB7RWuRKg_8airplay28protocol6crypto3aesNtB4_9Aes128Gcm7encrypt
FN:190,_RNCNvMs_NtNtNtCslUrB7RWuRKg_8airplay28protocol6crypto3aesNtB6_9Aes128Gcm3new0Bc_
FN:237,_RNCNvMs_NtNtNtCslUrB7RWuRKg_8airplay28protocol6crypto3aesNtB6_9Aes128Gcm7decrypt0Bc_
FN:242,_RNCNvMs_NtNtNtCslUrB7RWuRKg_8airplay28protocol6crypto3aesNtB6_9Aes128Gcm7decrypts_0Bc_
FN:215,_RNCNvMs_NtNtNtCslUrB7RWuRKg_8airplay28protocol6crypto3aesNtB6_9Aes128Gcm7encrypt0Bc_
FN:220,_RNCNvMs_NtNtNtCslUrB7RWuRKg_8airplay28protocol6crypto3aesNtB6_9Aes128Gcm7encrypts_0Bc_
FN:43,_RNvMNtNtNtCs41oluKY1Omx_8airplay28protocol6crypto3aesNtB2_9Aes128Ctr15new_with_cipher
FN:54,_RNvMNtNtNtCs41oluKY1Omx_8airplay28protocol6crypto3aesNtB2_9Aes128Ctr12new_internal
FN:68,_RNvMNtNtNtCs41oluKY1Omx_8airplay28protocol6crypto3aesNtB2_9Aes128Ctr15apply_keystream
FN:131,_RNvMNtNtNtCs41oluKY1Omx_8airplay28protocol6crypto3aesNtB2_9Aes128Ctr17increment_counter
FN:22,_RNvMNtNtNtCs41oluKY1Omx_8airplay28protocol6crypto3aesNtB2_9Aes128Ctr3new
FN:146,_RNvMNtNtNtCs41oluKY1Omx_8airplay28protocol6crypto3aesNtB2_9Aes128Ctr4seek
FN:139,_RNvMNtNtNtCs41oluKY1Omx_8airplay28protocol6crypto3aesNtB2_9Aes128Ctr7process
FN:180,_RNvMs_NtNtNtCs41oluKY1Omx_8airplay28protocol6crypto3aesNtB4_9Aes128Gcm3new
FN:224,_RNvMs_NtNtNtCs41oluKY1Omx_8airplay28protocol6crypto3aesNtB4_9Aes128Gcm7decrypt
FN:202,_RNvMs_NtNtNtCs41oluKY1Omx_8airplay28protocol6crypto3aesNtB4_9Aes128Gcm7encrypt
FN:190,_RNCNvMs_NtNtNtCs41oluKY1Omx_8airplay28protocol6crypto3aesNtB6_9Aes128Gcm3new0Bc_
FN:237,_RNCNvMs_NtNtNtCs41oluKY1Omx_8airplay28protocol6crypto3aesNtB6_9Aes128Gcm7decrypt0Bc_
FN:242,_RNCNvMs_NtNtNtCs41oluKY1Omx_8airplay28protocol6crypto3aesNtB6_9Aes128Gcm7decrypts_0Bc_
FN:215,_RNCNvMs_NtNtNtCs41oluKY1Omx_8airplay28protocol6crypto3aesNtB6_9Aes128Gcm7encrypt0Bc_
FN:220,_RNCNvMs_NtNtNtCs41oluKY1Omx_8airplay28protocol6crypto3aesNtB6_9Aes128Gcm7encrypts_0Bc_
FNDA:29,_RNvMNtNtNtCslUrB7RWuRKg_8airplay28protocol6crypto3aesNtB2_9Aes128Ctr12new_internal
FNDA:4,_RNvMNtNtNtCslUrB7RWuRKg_8airplay28protocol6crypto3aesNtB2_9Aes128Ctr15apply_keystream
FNDA:0,_RNvMNtNtNtCslUrB7RWuRKg_8airplay28protocol6crypto3aesNtB2_9Aes128Ctr15new_with_cipher
FNDA:352,_RNvMNtNtNtCslUrB7RWuRKg_8airplay28protocol6crypto3aesNtB2_9Aes128Ctr17increment_counter
FNDA:29,_RNvMNtNtNtCslUrB7RWuRKg_8airplay28protocol6crypto3aesNtB2_9Aes128Ctr3new
FNDA:4,_RNvMNtNtNtCslUrB7RWuRKg_8airplay28protocol6crypto3aesNtB2_9Aes128Ctr4seek
FNDA:0,_RNvMNtNtNtCslUrB7RWuRKg_8airplay28protocol6crypto3aesNtB2_9Aes128Ctr7process
FNDA:0,_RNvMs_NtNtNtCslUrB7RWuRKg_8airplay28protocol6crypto3aesNtB4_9Aes128Gcm3new
FNDA:0,_RNvMs_NtNtNtCslUrB7RWuRKg_8airplay28protocol6crypto3aesNtB4_9Aes128Gcm7decrypt
FNDA:0,_RNvMs_NtNtNtCslUrB7RWuRKg_8airplay28protocol6crypto3aesNtB4_9Aes128Gcm7encrypt
FNDA:0,_RNCNvMs_NtNtNtCslUrB7RWuRKg_8airplay28protocol6crypto3aesNtB6_9Aes128Gcm3new0Bc_
FNDA:0,_RNCNvMs_NtNtNtCslUrB7RWuRKg_8airplay28protocol6crypto3aesNtB6_9Aes128Gcm7decrypt0Bc_
FNDA:0,_RNCNvMs_NtNtNtCslUrB7RWuRKg_8airplay28protocol6crypto3aesNtB6_9Aes128Gcm7decrypts_0Bc_
FNDA:0,_RNCNvMs_NtNtNtCslUrB7RWuRKg_8airplay28protocol6crypto3aesNtB6_9Aes128Gcm7encrypt0Bc_
FNDA:0,_RNCNvMs_NtNtNtCslUrB7RWuRKg_8airplay28protocol6crypto3aesNtB6_9Aes128Gcm7encrypts_0Bc_
FNDA:0,_RNvMNtNtNtCs41oluKY1Omx_8airplay28protocol6crypto3aesNtB2_9Aes128Ctr15new_with_cipher
FNDA:46,_RNvMNtNtNtCs41oluKY1Omx_8airplay28protocol6crypto3aesNtB2_9Aes128Ctr12new_internal
FNDA:65584,_RNvMNtNtNtCs41oluKY1Omx_8airplay28protocol6crypto3aesNtB2_9Aes128Ctr15apply_keystream
FNDA:69066,_RNvMNtNtNtCs41oluKY1Omx_8airplay28protocol6crypto3aesNtB2_9Aes128Ctr17increment_counter
FNDA:48,_RNvMNtNtNtCs41oluKY1Omx_8airplay28protocol6crypto3aesNtB2_9Aes128Ctr3new
FNDA:65577,_RNvMNtNtNtCs41oluKY1Omx_8airplay28protocol6crypto3aesNtB2_9Aes128Ctr4seek
FNDA:5,_RNvMNtNtNtCs41oluKY1Omx_8airplay28protocol6crypto3aesNtB2_9Aes128Ctr7process
FNDA:5,_RNvMs_NtNtNtCs41oluKY1Omx_8airplay28protocol6crypto3aesNtB4_9Aes128Gcm3new
FNDA:3,_RNvMs_NtNtNtCs41oluKY1Omx_8airplay28protocol6crypto3aesNtB4_9Aes128Gcm7decrypt
FNDA:4,_RNvMs_NtNtNtCs41oluKY1Omx_8airplay28protocol6crypto3aesNtB4_9Aes128Gcm7encrypt
FNDA:0,_RNCNvMs_NtNtNtCs41oluKY1Omx_8airplay28protocol6crypto3aesNtB6_9Aes128Gcm3new0Bc_
FNDA:0,_RNCNvMs_NtNtNtCs41oluKY1Omx_8airplay28protocol6crypto3aesNtB6_9Aes128Gcm7decrypt0Bc_
FNDA:1,_RNCNvMs_NtNtNtCs41oluKY1Omx_8airplay28protocol6crypto3aesNtB6_9Aes128Gcm7decrypts_0Bc_
FNDA:0,_RNCNvMs_NtNtNtCs41oluKY1Omx_8airplay28protocol6crypto3aesNtB6_9Aes128Gcm7encrypt0Bc_
FNDA:0,_RNCNvMs_NtNtNtCs41oluKY1Omx_8airplay28protocol6crypto3aesNtB6_9Aes128Gcm7encrypts_0Bc_
FNF:15
FNH:10
DA:22,77
DA:23,77
DA:24,1
DA:25,1
DA:26,1
DA:27,1
DA:28,76
DA:29,76
DA:30,1
DA:31,1
DA:32,1
DA:33,1
DA:34,75
DA:36,75
DA:37,75
DA:39,75
DA:40,77
DA:43,0
DA:44,0
DA:45,0
DA:46,0
DA:47,0
DA:48,0
DA:49,0
DA:51,0
DA:52,0
DA:54,75
DA:55,75
DA:56,75
DA:58,75
DA:59,75
DA:60,75
DA:61,75
DA:62,75
DA:63,75
DA:64,75
DA:65,75
DA:68,65588
DA:70,65588
DA:71,1
DA:72,1
DA:73,5
DA:74,5
DA:75,5
DA:76,1
DA:77,1
DA:78,65587
DA:85,65588
DA:86,44
DA:87,44
DA:89,528
DA:91,4356
DA:92,3872
DA:93,3872
DA:94,3872
DA:97,484
DA:100,3872
DA:101,3872
DA:102,3872
DA:103,65824
DA:104,61952
DA:105,61952
DA:108,484
DA:110,65544
DA:114,131133
DA:116,65545
DA:117,65545
DA:118,65545
DA:119,65545
DA:120,65545
DA:122,65545
DA:123,655453
DA:124,655453
DA:125,655453
DA:126,65545
DA:127,65545
DA:129,65588
DA:131,69418
DA:133,69418
DA:134,69418
DA:135,69418
DA:136,69418
DA:139,5
DA:140,5
DA:141,5
DA:142,5
DA:143,5
DA:146,65581
DA:147,65581
DA:148,65581
DA:151,65581
DA:152,65581
DA:154,65581
DA:155,65581
DA:157,65581
DA:159,65581
DA:160,1
DA:161,1
DA:162,1
DA:163,1
DA:164,1
DA:165,1
DA:166,1
DA:167,1
DA:168,1
DA:169,65580
DA:170,65581
DA:180,5
DA:183,5
DA:184,1
DA:185,1
DA:186,1
DA:187,1
DA:188,4
DA:190,4
DA:191,0
DA:192,0
DA:193,0
DA:194,0
DA:195,0
DA:196,4
DA:198,4
DA:199,5
DA:202,4
DA:205,4
DA:206,1
DA:207,1
DA:208,1
DA:209,1
DA:210,3
DA:212,3
DA:213,3
DA:215,0
DA:216,0
DA:218,3
DA:219,3
DA:220,3
DA:221,4
DA:224,3
DA:227,3
DA:228,0
DA:229,0
DA:230,0
DA:231,0
DA:232,3
DA:234,3
DA:235,3
DA:237,0
DA:238,0
DA:240,3
DA:241,3
DA:242,3
DA:243,3
BRF:0
BRH:0
LF:159
LH:132
end_of_record
SF:/app/src/protocol/crypto/chacha.rs
FN:118,_RNCNvMs_NtNtNtCslUrB7RWuRKg_8airplay28protocol6crypto6chachaNtB6_22ChaCha20Poly1305Cipher16decrypt_with_aad0Bc_
FN:89,_RNCNvMs_NtNtNtCslUrB7RWuRKg_8airplay28protocol6crypto6chachaNtB6_22ChaCha20Poly1305Cipher16encrypt_with_aad0Bc_
FN:55,_RNCNvMs_NtNtNtCslUrB7RWuRKg_8airplay28protocol6crypto6chachaNtB6_22ChaCha20Poly1305Cipher3new0Bc_
FN:98,_RNCNvMs_NtNtNtCslUrB7RWuRKg_8airplay28protocol6crypto6chachaNtB6_22ChaCha20Poly1305Cipher7decrypt0Bc_
FN:69,_RNCNvMs_NtNtNtCslUrB7RWuRKg_8airplay28protocol6crypto6chachaNtB6_22ChaCha20Poly1305Cipher7encrypt0Bc_
FN:12,_RNvMNtNtNtCslUrB7RWuRKg_8airplay28protocol6crypto6chachaNtB2_5Nonce10from_bytes
FN:25,_RNvMNtNtNtCslUrB7RWuRKg_8airplay28protocol6crypto6chachaNtB2_5Nonce12from_counter
FN:32,_RNvMNtNtNtCslUrB7RWuRKg_8airplay28protocol6crypto6chachaNtB2_5Nonce8as_bytes
FN:102,_RNvMs_NtNtNtCslUrB7RWuRKg_8airplay28protocol6crypto6chachaNtB4_22ChaCha20Poly1305Cipher16decrypt_with_aad
FN:73,_RNvMs_NtNtNtCslUrB7RWuRKg_8airplay28protocol6crypto6chachaNtB4_22ChaCha20Poly1305Cipher16encrypt_with_aad
FN:44,_RNvMs_NtNtNtCslUrB7RWuRKg_8airplay28protocol6crypto6chachaNtB4_22ChaCha20Poly1305Cipher3new
FN:95,_RNvMs_NtNtNtCslUrB7RWuRKg_8airplay28protocol6crypto6chachaNtB4_22ChaCha20Poly1305Cipher7decrypt
FN:66,_RNvMs_NtNtNtCslUrB7RWuRKg_8airplay28protocol6crypto6chachaNtB4_22ChaCha20Poly1305Cipher7encrypt
FN:118,_RNCNvMs_NtNtNtCs41oluKY1Omx_8airplay28protocol6crypto6chachaNtB6_22ChaCha20Poly1305Cipher16decrypt_with_aad0Bc_
FN:89,_RNCNvMs_NtNtNtCs41oluKY1Omx_8airplay28protocol6crypto6chachaNtB6_22ChaCha20Poly1305Cipher16encrypt_with_aad0Bc_
FN:55,_RNCNvMs_NtNtNtCs41oluKY1Omx_8airplay28protocol6crypto6chachaNtB6_22ChaCha20Poly1305Cipher3new0Bc_
FN:98,_RNCNvMs_NtNtNtCs41oluKY1Omx_8airplay28protocol6crypto6chachaNtB6_22ChaCha20Poly1305Cipher7decrypt0Bc_
FN:69,_RNCNvMs_NtNtNtCs41oluKY1Omx_8airplay28protocol6crypto6chachaNtB6_22ChaCha20Poly1305Cipher7encrypt0Bc_
FN:12,_RNvMNtNtNtCs41oluKY1Omx_8airplay28protocol6crypto6chachaNtB2_5Nonce10from_bytes
FN:25,_RNvMNtNtNtCs41oluKY1Omx_8airplay28protocol6crypto6chachaNtB2_5Nonce12from_counter
FN:32,_RNvMNtNtNtCs41oluKY1Omx_8airplay28protocol6crypto6chachaNtB2_5Nonce8as_bytes
FN:102,_RNvMs_NtNtNtCs41oluKY1Omx_8airplay28protocol6crypto6chachaNtB4_22ChaCha20Poly1305Cipher16decrypt_with_aad
FN:73,_RNvMs_NtNtNtCs41oluKY1Omx_8airplay28protocol6crypto6chachaNtB4_22ChaCha20Poly1305Cipher16encrypt_with_aad
FN:44,_RNvMs_NtNtNtCs41oluKY1Omx_8airplay28protocol6crypto6chachaNtB4_22ChaCha20Poly1305Cipher3new
FN:95,_RNvMs_NtNtNtCs41oluKY1Omx_8airplay28protocol6crypto6chachaNtB4_22ChaCha20Poly1305Cipher7decrypt
FN:66,_RNvMs_NtNtNtCs41oluKY1Omx_8airplay28protocol6crypto6chachaNtB4_22ChaCha20Poly1305Cipher7encrypt
FNDA:0,_RNCNvMs_NtNtNtCslUrB7RWuRKg_8airplay28protocol6crypto6chachaNtB6_22ChaCha20Poly1305Cipher16decrypt_with_aad0Bc_
FNDA:0,_RNCNvMs_NtNtNtCslUrB7RWuRKg_8airplay28protocol6crypto6chachaNtB6_22ChaCha20Poly1305Cipher16encrypt_with_aad0Bc_
FNDA:0,_RNCNvMs_NtNtNtCslUrB7RWuRKg_8airplay28protocol6crypto6chachaNtB6_22ChaCha20Poly1305Cipher3new0Bc_
FNDA:0,_RNCNvMs_NtNtNtCslUrB7RWuRKg_8airplay28protocol6crypto6chachaNtB6_22ChaCha20Poly1305Cipher7decrypt0Bc_
FNDA:0,_RNCNvMs_NtNtNtCslUrB7RWuRKg_8airplay28protocol6crypto6chachaNtB6_22ChaCha20Poly1305Cipher7encrypt0Bc_
FNDA:8,_RNvMNtNtNtCslUrB7RWuRKg_8airplay28protocol6crypto6chachaNtB2_5Nonce10from_bytes
FNDA:0,_RNvMNtNtNtCslUrB7RWuRKg_8airplay28protocol6crypto6chachaNtB2_5Nonce12from_counter
FNDA:0,_RNvMNtNtNtCslUrB7RWuRKg_8airplay28protocol6crypto6chachaNtB2_5Nonce8as_bytes
FNDA:1,_RNvMs_NtNtNtCslUrB7RWuRKg_8airplay28protocol6crypto6chachaNtB4_22ChaCha20Poly1305Cipher16decrypt_with_aad
FNDA:1,_RNvMs_NtNtNtCslUrB7RWuRKg_8airplay28protocol6crypto6chachaNtB4_22ChaCha20Poly1305Cipher16encrypt_with_aad
FNDA:8,_RNvMs_NtNtNtCslUrB7RWuRKg_8airplay28protocol6crypto6chachaNtB4_22ChaCha20Poly1305Cipher3new
FNDA:0,_RNvMs_NtNtNtCslUrB7RWuRKg_8airplay28protocol6crypto6chachaNtB4_22ChaCha20Poly1305Cipher7decrypt
FNDA:7,_RNvMs_NtNtNtCslUrB7RWuRKg_8airplay28protocol6crypto6chachaNtB4_22ChaCha20Poly1305Cipher7encrypt
FNDA:2,_RNCNvMs_NtNtNtCs41oluKY1Omx_8airplay28protocol6crypto6chachaNtB6_22ChaCha20Poly1305Cipher16decrypt_with_aad0Bc_
FNDA:0,_RNCNvMs_NtNtNtCs41oluKY1Omx_8airplay28protocol6crypto6chachaNtB6_22ChaCha20Poly1305Cipher16encrypt_with_aad0Bc_
FNDA:0,_RNCNvMs_NtNtNtCs41oluKY1Omx_8airplay28protocol6crypto6chachaNtB6_22ChaCha20Poly1305Cipher3new0Bc_
FNDA:4,_RNCNvMs_NtNtNtCs41oluKY1Omx_8airplay28protocol6crypto6chachaNtB6_22ChaCha20Poly1305Cipher7decrypt0Bc_
FNDA:0,_RNCNvMs_NtNtNtCs41oluKY1Omx_8airplay28protocol6crypto6chachaNtB6_22ChaCha20Poly1305Cipher7encrypt0Bc_
FNDA:36,_RNvMNtNtNtCs41oluKY1Omx_8airplay28protocol6crypto6chachaNtB2_5Nonce10from_bytes
FNDA:24,_RNvMNtNtNtCs41oluKY1Omx_8airplay28protocol6crypto6chachaNtB2_5Nonce12from_counter
FNDA:1,_RNvMNtNtNtCs41oluKY1Omx_8airplay28protocol6crypto6chachaNtB2_5Nonce8as_bytes
FNDA:5,_RNvMs_NtNtNtCs41oluKY1Omx_8airplay28protocol6crypto6chachaNtB4_22ChaCha20Poly1305Cipher16decrypt_with_aad
FNDA:4,_RNvMs_NtNtNtCs41oluKY1Omx_8airplay28protocol6crypto6chachaNtB4_22ChaCha20Poly1305Cipher16encrypt_with_aad
FNDA:55,_RNvMs_NtNtNtCs41oluKY1Omx_8airplay28protocol6crypto6chachaNtB4_22ChaCha20Poly1305Cipher3new
FNDA:25,_RNvMs_NtNtNtCs41oluKY1Omx_8airplay28protocol6crypto6chachaNtB4_22ChaCha20Poly1305Cipher7decrypt
FNDA:31,_RNvMs_NtNtNtCs41oluKY1Omx_8airplay28protocol6crypto6chachaNtB4_22ChaCha20Poly1305Cipher7encrypt
FNF:13
FNH:10
DA:12,44
DA:13,44
DA:14,1
DA:15,1
DA:16,1
DA:17,1
DA:18,43
DA:19,43
DA:20,43
DA:21,43
DA:22,44
DA:25,24
DA:26,24
DA:27,24
DA:28,24
DA:29,24
DA:32,1
DA:33,1
DA:34,1
DA:44,63
DA:45,63
DA:46,1
DA:47,1
DA:48,1
DA:49,1
DA:50,62
DA:52,62
DA:53,62
DA:55,0
DA:56,0
DA:58,62
DA:60,62
DA:61,63
DA:66,38
DA:67,38
DA:68,38
DA:69,38
DA:70,38
DA:73,5
DA:74,5
DA:75,5
DA:76,5
DA:77,5
DA:78,5
DA:81,5
DA:82,5
DA:83,5
DA:84,5
DA:85,5
DA:86,5
DA:87,5
DA:89,5
DA:90,5
DA:95,25
DA:96,25
DA:97,25
DA:98,25
DA:99,25
DA:102,6
DA:103,6
DA:104,6
DA:105,6
DA:106,6
DA:107,6
DA:110,6
DA:111,6
DA:112,6
DA:113,6
DA:114,6
DA:115,6
DA:116,6
DA:118,6
DA:119,6
BRF:0
BRH:0
LF:78
LH:73
end_of_record
SF:/app/src/protocol/crypto/ed25519.rs
FN:19,_RNvMNtNtNtCslUrB7RWuRKg_8airplay28protocol6crypto7ed25519NtB2_14Ed25519KeyPair10from_bytes
FN:33,_RNvMNtNtNtCslUrB7RWuRKg_8airplay28protocol6crypto7ed25519NtB2_14Ed25519KeyPair10public_key
FN:40,_RNvMNtNtNtCslUrB7RWuRKg_8airplay28protocol6crypto7ed25519NtB2_14Ed25519KeyPair12secret_bytes
FN:45,_RNvMNtNtNtCslUrB7RWuRKg_8airplay28protocol6crypto7ed25519NtB2_14Ed25519KeyPair4sign
FN:12,_RNvMNtNtNtCslUrB7RWuRKg_8airplay28protocol6crypto7ed25519NtB2_14Ed25519KeyPair8generate
FN:94,_RNvMs0_NtNtNtCslUrB7RWuRKg_8airplay28protocol6crypto7ed25519NtB5_16Ed25519Signature10from_bytes
FN:109,_RNvMs0_NtNtNtCslUrB7RWuRKg_8airplay28protocol6crypto7ed25519NtB5_16Ed25519Signature8to_bytes
FN:59,_RNvMs_NtNtNtCslUrB7RWuRKg_8airplay28protocol6crypto7ed25519NtB4_16Ed25519PublicKey10from_bytes
FN:80,_RNvMs_NtNtNtCslUrB7RWuRKg_8airplay28protocol6crypto7ed25519NtB4_16Ed25519PublicKey6verify
FN:75,_RNvMs_NtNtNtCslUrB7RWuRKg_8airplay28protocol6crypto7ed25519NtB4_16Ed25519PublicKey8as_bytes
FN:19,_RNvMNtNtNtCs41oluKY1Omx_8airplay28protocol6crypto7ed25519NtB2_14Ed25519KeyPair10from_bytes
FN:33,_RNvMNtNtNtCs41oluKY1Omx_8airplay28protocol6crypto7ed25519NtB2_14Ed25519KeyPair10public_key
FN:40,_RNvMNtNtNtCs41oluKY1Omx_8airplay28protocol6crypto7ed25519NtB2_14Ed25519KeyPair12secret_bytes
FN:45,_RNvMNtNtNtCs41oluKY1Omx_8airplay28protocol6crypto7ed25519NtB2_14Ed25519KeyPair4sign
FN:12,_RNvMNtNtNtCs41oluKY1Omx_8airplay28protocol6crypto7ed25519NtB2_14Ed25519KeyPair8generate
FN:94,_RNvMs0_NtNtNtCs41oluKY1Omx_8airplay28protocol6crypto7ed25519NtB5_16Ed25519Signature10from_bytes
FN:109,_RNvMs0_NtNtNtCs41oluKY1Omx_8airplay28protocol6crypto7ed25519NtB5_16Ed25519Signature8to_bytes
FN:59,_RNvMs_NtNtNtCs41oluKY1Omx_8airplay28protocol6crypto7ed25519NtB4_16Ed25519PublicKey10from_bytes
FN:80,_RNvMs_NtNtNtCs41oluKY1Omx_8airplay28protocol6crypto7ed25519NtB4_16Ed25519PublicKey6verify
FN:75,_RNvMs_NtNtNtCs41oluKY1Omx_8airplay28protocol6crypto7ed25519NtB4_16Ed25519PublicKey8as_bytes
FNDA:1,_RNvMNtNtNtCslUrB7RWuRKg_8airplay28protocol6crypto7ed25519NtB2_14Ed25519KeyPair10from_bytes
FNDA:15,_RNvMNtNtNtCslUrB7RWuRKg_8airplay28protocol6crypto7ed25519NtB2_14Ed25519KeyPair10public_key
FNDA:0,_RNvMNtNtNtCslUrB7RWuRKg_8airplay28protocol6crypto7ed25519NtB2_14Ed25519KeyPair12secret_bytes
FNDA:8,_RNvMNtNtNtCslUrB7RWuRKg_8airplay28protocol6crypto7ed25519NtB2_14Ed25519KeyPair4sign
FNDA:12,_RNvMNtNtNtCslUrB7RWuRKg_8airplay28protocol6crypto7ed25519NtB2_14Ed25519KeyPair8generate
FNDA:0,_RNvMs0_NtNtNtCslUrB7RWuRKg_8airplay28protocol6crypto7ed25519NtB5_16Ed25519Signature10from_bytes
FNDA:8,_RNvMs0_NtNtNtCslUrB7RWuRKg_8airplay28protocol6crypto7ed25519NtB5_16Ed25519Signature8to_bytes
FNDA:1,_RNvMs_NtNtNtCslUrB7RWuRKg_8airplay28protocol6crypto7ed25519NtB4_16Ed25519PublicKey10from_bytes
FNDA:1,_RNvMs_NtNtNtCslUrB7RWuRKg_8airplay28protocol6crypto7ed25519NtB4_16Ed25519PublicKey6verify
FNDA:15,_RNvMs_NtNtNtCslUrB7RWuRKg_8airplay28protocol6crypto7ed25519NtB4_16Ed25519PublicKey8as_bytes
FNDA:2,_RNvMNtNtNtCs41oluKY1Omx_8airplay28protocol6crypto7ed25519NtB2_14Ed25519KeyPair10from_bytes
FNDA:33,_RNvMNtNtNtCs41oluKY1Omx_8airplay28protocol6crypto7ed25519NtB2_14Ed25519KeyPair10public_key
FNDA:3,_RNvMNtNtNtCs41oluKY1Omx_8airplay28protocol6crypto7ed25519NtB2_14Ed25519KeyPair12secret_bytes
FNDA:17,_RNvMNtNtNtCs41oluKY1Omx_8airplay28protocol6crypto7ed25519NtB2_14Ed25519KeyPair4sign
FNDA:45,_RNvMNtNtNtCs41oluKY1Omx_8airplay28protocol6crypto7ed25519NtB2_14Ed25519KeyPair8generate
FNDA:7,_RNvMs0_NtNtNtCs41oluKY1Omx_8airplay28protocol6crypto7ed25519NtB5_16Ed25519Signature10from_bytes
FNDA:15,_RNvMs0_NtNtNtCs41oluKY1Omx_8airplay28protocol6crypto7ed25519NtB5_16Ed25519Signature8to_bytes
FNDA:6,_RNvMs_NtNtNtCs41oluKY1Omx_8airplay28protocol6crypto7ed25519NtB4_16Ed25519PublicKey10from_bytes
FNDA:9,_RNvMs_NtNtNtCs41oluKY1Omx_8airplay28protocol6crypto7ed25519NtB4_16Ed25519PublicKey6verify
FNDA:29,_RNvMs_NtNtNtCs41oluKY1Omx_8airplay28protocol6crypto7ed25519NtB4_16Ed25519PublicKey8as_bytes
FNF:10
FNH:10
DA:12,57
DA:14,57
DA:15,57
DA:16,57
DA:19,3
DA:20,3
DA:21,0
DA:22,0
DA:23,0
DA:24,0
DA:25,3
DA:27,3
DA:28,3
DA:29,3
DA:30,3
DA:33,48
DA:34,48
DA:35,48
DA:36,48
DA:37,48
DA:40,3
DA:41,3
DA:42,3
DA:45,25
DA:46,25
DA:47,25
DA:48,25
DA:59,7
DA:60,7
DA:61,0
DA:62,0
DA:63,0
DA:64,0
DA:65,7
DA:67,7
DA:68,7
DA:69,7
DA:71,7
DA:72,7
DA:75,44
DA:76,44
DA:77,44
DA:80,10
DA:81,10
DA:82,10
DA:83,10
DA:84,10
DA:94,7
DA:95,7
DA:96,0
DA:97,0
DA:98,0
DA:99,0
DA:100,7
DA:102,7
DA:103,7
DA:105,7
DA:106,7
DA:109,23
DA:110,23
DA:111,23
BRF:0
BRH:0
LF:61
LH:49
end_of_record
SF:/app/src/protocol/crypto/hkdf.rs
FN:17,_RNvMNtNtNtCslUrB7RWuRKg_8airplay28protocol6crypto4hkdfNtB2_10HkdfSha5123new
FN:27,_RNvMNtNtNtCslUrB7RWuRKg_8airplay28protocol6crypto4hkdfNtB2_10HkdfSha5126expand
FN:67,_RNvMs_NtNtNtCslUrB7RWuRKg_8airplay28protocol6crypto4hkdfNtB4_11AirPlayKeys6derive
FN:46,_RNvNtNtNtCslUrB7RWuRKg_8airplay28protocol6crypto4hkdf10derive_key
FN:36,_RINvMNtNtNtCslUrB7RWuRKg_8airplay28protocol6crypto4hkdfNtB3_10HkdfSha51212expand_fixedKj20_EB9_
FN:40,_RNCINvMNtNtNtCslUrB7RWuRKg_8airplay28protocol6crypto4hkdfNtB5_10HkdfSha51212expand_fixedKj20_E0Bb_
FN:31,_RNCNvMNtNtNtCslUrB7RWuRKg_8airplay28protocol6crypto4hkdfNtB4_10HkdfSha5126expand0Ba_
FN:17,_RNvMNtNtNtCs41oluKY1Omx_8airplay28protocol6crypto4hkdfNtB2_10HkdfSha5123new
FN:27,_RNvMNtNtNtCs41oluKY1Omx_8airplay28protocol6crypto4hkdfNtB2_10HkdfSha5126expand
FN:67,_RNvMs_NtNtNtCs41oluKY1Omx_8airplay28protocol6crypto4hkdfNtB4_11AirPlayKeys6derive
FN:46,_RNvNtNtNtCs41oluKY1Omx_8airplay28protocol6crypto4hkdf10derive_key
FN:36,_RINvMNtNtNtCs41oluKY1Omx_8airplay28protocol6crypto4hkdfNtB3_10HkdfSha51212expand_fixedKj20_EB9_
FN:40,_RNCINvMNtNtNtCs41oluKY1Omx_8airplay28protocol6crypto4hkdfNtB5_10HkdfSha51212expand_fixedKj20_E0Bb_
FN:31,_RNCNvMNtNtNtCs41oluKY1Omx_8airplay28protocol6crypto4hkdfNtB4_10HkdfSha5126expand0Ba_
FNDA:25,_RNvMNtNtNtCslUrB7RWuRKg_8airplay28protocol6crypto4hkdfNtB2_10HkdfSha5123new
FNDA:20,_RNvMNtNtNtCslUrB7RWuRKg_8airplay28protocol6crypto4hkdfNtB2_10HkdfSha5126expand
FNDA:0,_RNvMs_NtNtNtCslUrB7RWuRKg_8airplay28protocol6crypto4hkdfNtB4_11AirPlayKeys6derive
FNDA:19,_RNvNtNtNtCslUrB7RWuRKg_8airplay28protocol6crypto4hkdf10derive_key
FNDA:10,_RINvMNtNtNtCslUrB7RWuRKg_8airplay28protocol6crypto4hkdfNtB3_10HkdfSha51212expand_fixedKj20_EB9_
FNDA:0,_RNCINvMNtNtNtCslUrB7RWuRKg_8airplay28protocol6crypto4hkdfNtB5_10HkdfSha51212expand_fixedKj20_E0Bb_
FNDA:0,_RNCNvMNtNtNtCslUrB7RWuRKg_8airplay28protocol6crypto4hkdfNtB4_10HkdfSha5126expand0Ba_
FNDA:39,_RNvMNtNtNtCs41oluKY1Omx_8airplay28protocol6crypto4hkdfNtB2_10HkdfSha5123new
FNDA:19,_RNvMNtNtNtCs41oluKY1Omx_8airplay28protocol6crypto4hkdfNtB2_10HkdfSha5126expand
FNDA:1,_RNvMs_NtNtNtCs41oluKY1Omx_8airplay28protocol6crypto4hkdfNtB4_11AirPlayKeys6derive
FNDA:17,_RNvNtNtNtCs41oluKY1Omx_8airplay28protocol6crypto4hkdf10derive_key
FNDA:24,_RINvMNtNtNtCs41oluKY1Omx_8airplay28protocol6crypto4hkdfNtB3_10HkdfSha51212expand_fixedKj20_EB9_
FNDA:0,_RNCINvMNtNtNtCs41oluKY1Omx_8airplay28protocol6crypto4hkdfNtB5_10HkdfSha51212expand_fixedKj20_E0Bb_
FNDA:0,_RNCNvMNtNtNtCs41oluKY1Omx_8airplay28protocol6crypto4hkdfNtB4_10HkdfSha5126expand0Ba_
FNF:7
FNH:5
DA:17,64
DA:18,64
DA:19,64
DA:20,64
DA:27,39
DA:28,39
DA:29,39
DA:30,39
DA:31,39
DA:32,39
DA:33,39
DA:36,34
DA:37,34
DA:38,34
DA:39,34
DA:40,34
DA:41,34
DA:42,34
DA:46,36
DA:47,36
DA:48,36
DA:49,36
DA:50,36
DA:51,36
DA:52,36
DA:53,36
DA:67,1
DA:68,1
DA:71,1
DA:72,1
DA:74,1
DA:75,1
DA:76,1
DA:77,1
DA:78,1
BRF:0
BRH:0
LF:37
LH:35
end_of_record
SF:/app/src/protocol/crypto/rsa.rs
FN:82,_RNCNvMNtNtNtCslUrB7RWuRKg_8airplay28protocol6crypto3rsaNtB4_17AppleRsaPublicKey12encrypt_oaep0Ba_
FN:143,_RNCNvMs_NtNtNtCslUrB7RWuRKg_8airplay28protocol6crypto3rsaNtB6_17RaopRsaPrivateKey12decrypt_oaep0Bc_
FN:128,_RNCNvMs_NtNtNtCslUrB7RWuRKg_8airplay28protocol6crypto3rsaNtB6_17RaopRsaPrivateKey8from_pem0Bc_
FN:66,_RNvMNtNtNtCslUrB7RWuRKg_8airplay28protocol6crypto3rsaNtB2_17AppleRsaPublicKey12encrypt_oaep
FN:88,_RNvMNtNtNtCslUrB7RWuRKg_8airplay28protocol6crypto3rsaNtB2_17AppleRsaPublicKey12verify_pkcs1
FN:43,_RNvMNtNtNtCslUrB7RWuRKg_8airplay28protocol6crypto3rsaNtB2_17AppleRsaPublicKey4load
FN:161,_RNvMs_NtNtNtCslUrB7RWuRKg_8airplay28protocol6crypto3rsaNtB4_17RaopRsaPrivateKey10public_key
FN:149,_RNvMs_NtNtNtCslUrB7RWuRKg_8airplay28protocol6crypto3rsaNtB4_17RaopRsaPrivateKey10sign_pkcs1
FN:136,_RNvMs_NtNtNtCslUrB7RWuRKg_8airplay28protocol6crypto3rsaNtB4_17RaopRsaPrivateKey12decrypt_oaep
FN:121,_RNvMs_NtNtNtCslUrB7RWuRKg_8airplay28protocol6crypto3rsaNtB4_17RaopRsaPrivateKey8from_pem
FN:112,_RNvMs_NtNtNtCslUrB7RWuRKg_8airplay28protocol6crypto3rsaNtB4_17RaopRsaPrivateKey8generate
FN:171,_RNvXs0_NtNtNtCslUrB7RWuRKg_8airplay28protocol6crypto3rsaNtB5_15CompatibleOsRngNtCsjfDZ4Zxi1cD_9rand_core6TryRng12try_next_u32
FN:176,_RNvXs0_NtNtNtCslUrB7RWuRKg_8airplay28protocol6crypto3rsaNtB5_15CompatibleOsRngNtCsjfDZ4Zxi1cD_9rand_core6TryRng12try_next_u64
FN:181,_RNvXs0_NtNtNtCslUrB7RWuRKg_8airplay28protocol6crypto3rsaNtB5_15CompatibleOsRngNtCsjfDZ4Zxi1cD_9rand_core6TryRng14try_fill_bytes
FN:128,_RNCNvMs_NtNtNtCs41oluKY1Omx_8airplay28protocol6crypto3rsaNtB6_17RaopRsaPrivateKey8from_pem0Bc_
FN:88,_RNvMNtNtNtCs41oluKY1Omx_8airplay28protocol6crypto3rsaNtB2_17AppleRsaPublicKey12verify_pkcs1
FN:121,_RNvMs_NtNtNtCs41oluKY1Omx_8airplay28protocol6crypto3rsaNtB4_17RaopRsaPrivateKey8from_pem
FN:171,_RNvXs0_NtNtNtCs41oluKY1Omx_8airplay28protocol6crypto3rsaNtB5_15CompatibleOsRngNtCsjfDZ4Zxi1cD_9rand_core6TryRng12try_next_u32
FN:176,_RNvXs0_NtNtNtCs41oluKY1Omx_8airplay28protocol6crypto3rsaNtB5_15CompatibleOsRngNtCsjfDZ4Zxi1cD_9rand_core6TryRng12try_next_u64
FN:66,_RNvMNtNtNtCs41oluKY1Omx_8airplay28protocol6crypto3rsaNtB2_17AppleRsaPublicKey12encrypt_oaep
FN:43,_RNvMNtNtNtCs41oluKY1Omx_8airplay28protocol6crypto3rsaNtB2_17AppleRsaPublicKey4load
FN:161,_RNvMs_NtNtNtCs41oluKY1Omx_8airplay28protocol6crypto3rsaNtB4_17RaopRsaPrivateKey10public_key
FN:149,_RNvMs_NtNtNtCs41oluKY1Omx_8airplay28protocol6crypto3rsaNtB4_17RaopRsaPrivateKey10sign_pkcs1
FN:136,_RNvMs_NtNtNtCs41oluKY1Omx_8airplay28protocol6crypto3rsaNtB4_17RaopRsaPrivateKey12decrypt_oaep
FN:112,_RNvMs_NtNtNtCs41oluKY1Omx_8airplay28protocol6crypto3rsaNtB4_17RaopRsaPrivateKey8generate
FN:181,_RNvXs0_NtNtNtCs41oluKY1Omx_8airplay28protocol6crypto3rsaNtB5_15CompatibleOsRngNtCsjfDZ4Zxi1cD_9rand_core6TryRng14try_fill_bytes
FN:82,_RNCNvMNtNtNtCs41oluKY1Omx_8airplay28protocol6crypto3rsaNtB4_17AppleRsaPublicKey12encrypt_oaep0Ba_
FN:143,_RNCNvMs_NtNtNtCs41oluKY1Omx_8airplay28protocol6crypto3rsaNtB6_17RaopRsaPrivateKey12decrypt_oaep0Bc_
FNDA:0,_RNCNvMNtNtNtCslUrB7RWuRKg_8airplay28protocol6crypto3rsaNtB4_17AppleRsaPublicKey12encrypt_oaep0Ba_
FNDA:25,_RNCNvMs_NtNtNtCslUrB7RWuRKg_8airplay28protocol6crypto3rsaNtB6_17RaopRsaPrivateKey12decrypt_oaep0Bc_
FNDA:0,_RNCNvMs_NtNtNtCslUrB7RWuRKg_8airplay28protocol6crypto3rsaNtB6_17RaopRsaPrivateKey8from_pem0Bc_
FNDA:25,_RNvMNtNtNtCslUrB7RWuRKg_8airplay28protocol6crypto3rsaNtB2_17AppleRsaPublicKey12encrypt_oaep
FNDA:0,_RNvMNtNtNtCslUrB7RWuRKg_8airplay28protocol6crypto3rsaNtB2_17AppleRsaPublicKey12verify_pkcs1
FNDA:25,_RNvMNtNtNtCslUrB7RWuRKg_8airplay28protocol6crypto3rsaNtB2_17AppleRsaPublicKey4load
FNDA:4,_RNvMs_NtNtNtCslUrB7RWuRKg_8airplay28protocol6crypto3rsaNtB4_17RaopRsaPrivateKey10public_key
FNDA:1,_RNvMs_NtNtNtCslUrB7RWuRKg_8airplay28protocol6crypto3rsaNtB4_17RaopRsaPrivateKey10sign_pkcs1
FNDA:27,_RNvMs_NtNtNtCslUrB7RWuRKg_8airplay28protocol6crypto3rsaNtB4_17RaopRsaPrivateKey12decrypt_oaep
FNDA:0,_RNvMs_NtNtNtCslUrB7RWuRKg_8airplay28protocol6crypto3rsaNtB4_17RaopRsaPrivateKey8from_pem
FNDA:9,_RNvMs_NtNtNtCslUrB7RWuRKg_8airplay28protocol6crypto3rsaNtB4_17RaopRsaPrivateKey8generate
FNDA:0,_RNvXs0_NtNtNtCslUrB7RWuRKg_8airplay28protocol6crypto3rsaNtB5_15CompatibleOsRngNtCsjfDZ4Zxi1cD_9rand_core6TryRng12try_next_u32
FNDA:0,_RNvXs0_NtNtNtCslUrB7RWuRKg_8airplay28protocol6crypto3rsaNtB5_15CompatibleOsRngNtCsjfDZ4Zxi1cD_9rand_core6TryRng12try_next_u64
FNDA:45,_RNvXs0_NtNtNtCslUrB7RWuRKg_8airplay28protocol6crypto3rsaNtB5_15CompatibleOsRngNtCsjfDZ4Zxi1cD_9rand_core6TryRng14try_fill_bytes
FNDA:0,_RNCNvMs_NtNtNtCs41oluKY1Omx_8airplay28protocol6crypto3rsaNtB6_17RaopRsaPrivateKey8from_pem0Bc_
FNDA:0,_RNvMNtNtNtCs41oluKY1Omx_8airplay28protocol6crypto3rsaNtB2_17AppleRsaPublicKey12verify_pkcs1
FNDA:0,_RNvMs_NtNtNtCs41oluKY1Omx_8airplay28protocol6crypto3rsaNtB4_17RaopRsaPrivateKey8from_pem
FNDA:0,_RNvXs0_NtNtNtCs41oluKY1Omx_8airplay28protocol6crypto3rsaNtB5_15CompatibleOsRngNtCsjfDZ4Zxi1cD_9rand_core6TryRng12try_next_u32
FNDA:0,_RNvXs0_NtNtNtCs41oluKY1Omx_8airplay28protocol6crypto3rsaNtB5_15CompatibleOsRngNtCsjfDZ4Zxi1cD_9rand_core6TryRng12try_next_u64
FNDA:5,_RNvMNtNtNtCs41oluKY1Omx_8airplay28protocol6crypto3rsaNtB2_17AppleRsaPublicKey12encrypt_oaep
FNDA:6,_RNvMNtNtNtCs41oluKY1Omx_8airplay28protocol6crypto3rsaNtB2_17AppleRsaPublicKey4load
FNDA:4,_RNvMs_NtNtNtCs41oluKY1Omx_8airplay28protocol6crypto3rsaNtB4_17RaopRsaPrivateKey10public_key
FNDA:2,_RNvMs_NtNtNtCs41oluKY1Omx_8airplay28protocol6crypto3rsaNtB4_17RaopRsaPrivateKey10sign_pkcs1
FNDA:7,_RNvMs_NtNtNtCs41oluKY1Omx_8airplay28protocol6crypto3rsaNtB4_17RaopRsaPrivateKey12decrypt_oaep
FNDA:10,_RNvMs_NtNtNtCs41oluKY1Omx_8airplay28protocol6crypto3rsaNtB4_17RaopRsaPrivateKey8generate
FNDA:27,_RNvXs0_NtNtNtCs41oluKY1Omx_8airplay28protocol6crypto3rsaNtB5_15CompatibleOsRngNtCsjfDZ4Zxi1cD_9rand_core6TryRng14try_fill_bytes
FNDA:0,_RNCNvMNtNtNtCs41oluKY1Omx_8airplay28protocol6crypto3rsaNtB4_17AppleRsaPublicKey12encrypt_oaep0Ba_
FNDA:5,_RNCNvMs_NtNtNtCs41oluKY1Omx_8airplay28protocol6crypto3rsaNtB6_17RaopRsaPrivateKey12decrypt_oaep0Bc_
FNF:14
FNH:8
DA:43,31
DA:47,31
DA:48,31
DA:49,31
DA:51,0
DA:54,31
DA:55,31
DA:56,31
DA:58,31
DA:60,31
DA:61,31
DA:66,30
DA:70,30
DA:71,0
DA:72,0
DA:73,0
DA:74,0
DA:75,0
DA:76,30
DA:78,30
DA:79,30
DA:80,30
DA:81,30
DA:82,30
DA:83,30
DA:88,0
DA:93,0
DA:94,0
DA:96,0
DA:97,0
DA:98,0
DA:99,0
DA:112,19
DA:113,19
DA:114,19
DA:115,19
DA:117,19
DA:118,19
DA:121,0
DA:124,0
DA:125,0
DA:128,0
DA:130,0
DA:131,0
DA:136,34
DA:140,34
DA:141,34
DA:142,34
DA:143,34
DA:144,34
DA:149,3
DA:154,3
DA:155,3
DA:157,3
DA:158,3
DA:161,8
DA:162,8
DA:163,8
DA:171,0
DA:173,0
DA:174,0
DA:176,0
DA:178,0
DA:179,0
DA:181,72
DA:183,72
DA:184,72
DA:185,72
BRF:0
BRH:0
LF:71
LH:44
end_of_record
SF:/app/src/protocol/crypto/srp.rs
FN:99,_RNvMs1_NtNtNtCslUrB7RWuRKg_8airplay28protocol6crypto3srpNtB5_9SrpClient10public_key
FN:79,_RNvMs1_NtNtNtCslUrB7RWuRKg_8airplay28protocol6crypto3srpNtB5_9SrpClient11with_params
FN:103,_RNvMs1_NtNtNtCslUrB7RWuRKg_8airplay28protocol6crypto3srpNtB5_9SrpClient17process_challenge
FN:74,_RNvMs1_NtNtNtCslUrB7RWuRKg_8airplay28protocol6crypto3srpNtB5_9SrpClient3new
FN:162,_RNvMs2_NtNtNtCslUrB7RWuRKg_8airplay28protocol6crypto3srpNtB5_11SrpVerifier12client_proof
FN:166,_RNvMs2_NtNtNtCslUrB7RWuRKg_8airplay28protocol6crypto3srpNtB5_11SrpVerifier13verify_server
FN:191,_RNvMs3_NtNtNtCslUrB7RWuRKg_8airplay28protocol6crypto3srpNtB5_10SessionKey8as_bytes
FN:249,_RNvMs5_NtNtNtCslUrB7RWuRKg_8airplay28protocol6crypto3srpNtB5_9SrpServer10public_key
FN:253,_RNvMs5_NtNtNtCslUrB7RWuRKg_8airplay28protocol6crypto3srpNtB5_9SrpServer13verify_client
FN:237,_RNvMs5_NtNtNtCslUrB7RWuRKg_8airplay28protocol6crypto3srpNtB5_9SrpServer16compute_verifier
FN:212,_RNvMs5_NtNtNtCslUrB7RWuRKg_8airplay28protocol6crypto3srpNtB5_9SrpServer3new
FN:345,_RNvNtNtNtCslUrB7RWuRKg_8airplay28protocol6crypto3srp10compute_m1
FN:306,_RNvNtNtNtCslUrB7RWuRKg_8airplay28protocol6crypto3srp11pad_to_size
FN:316,_RNvNtNtNtCslUrB7RWuRKg_8airplay28protocol6crypto3srp9compute_k
FN:338,_RNvNtNtNtCslUrB7RWuRKg_8airplay28protocol6crypto3srp9compute_u
FN:325,_RNvNtNtNtCslUrB7RWuRKg_8airplay28protocol6crypto3srp9compute_x
FN:50,_RNvXs_NtNtNtCslUrB7RWuRKg_8airplay28protocol6crypto3srpNtB4_9SrpParamsINtNtCs3XFJfFEDSOQ_4core7convert4FromNtB4_10LazyParamsE4from
FN:68,_RNvXs0_NtNtNtCslUrB7RWuRKg_8airplay28protocol6crypto3srpNtB5_9SrpClientNtNtNtCs3XFJfFEDSOQ_4core3ops4drop4Drop4drop
FN:197,_RNvXs4_NtNtNtCslUrB7RWuRKg_8airplay28protocol6crypto3srpNtB5_10SessionKeyNtNtNtCs3XFJfFEDSOQ_4core3ops4drop4Drop4drop
FN:99,_RNvMs1_NtNtNtCs41oluKY1Omx_8airplay28protocol6crypto3srpNtB5_9SrpClient10public_key
FN:79,_RNvMs1_NtNtNtCs41oluKY1Omx_8airplay28protocol6crypto3srpNtB5_9SrpClient11with_params
FN:103,_RNvMs1_NtNtNtCs41oluKY1Omx_8airplay28protocol6crypto3srpNtB5_9SrpClient17process_challenge
FN:74,_RNvMs1_NtNtNtCs41oluKY1Omx_8airplay28protocol6crypto3srpNtB5_9SrpClient3new
FN:162,_RNvMs2_NtNtNtCs41oluKY1Omx_8airplay28protocol6crypto3srpNtB5_11SrpVerifier12client_proof
FN:166,_RNvMs2_NtNtNtCs41oluKY1Omx_8airplay28protocol6crypto3srpNtB5_11SrpVerifier13verify_server
FN:191,_RNvMs3_NtNtNtCs41oluKY1Omx_8airplay28protocol6crypto3srpNtB5_10SessionKey8as_bytes
FN:249,_RNvMs5_NtNtNtCs41oluKY1Omx_8airplay28protocol6crypto3srpNtB5_9SrpServer10public_key
FN:253,_RNvMs5_NtNtNtCs41oluKY1Omx_8airplay28protocol6crypto3srpNtB5_9SrpServer13verify_client
FN:237,_RNvMs5_NtNtNtCs41oluKY1Omx_8airplay28protocol6crypto3srpNtB5_9SrpServer16compute_verifier
FN:212,_RNvMs5_NtNtNtCs41oluKY1Omx_8airplay28protocol6crypto3srpNtB5_9SrpServer3new
FN:345,_RNvNtNtNtCs41oluKY1Omx_8airplay28protocol6crypto3srp10compute_m1
FN:306,_RNvNtNtNtCs41oluKY1Omx_8airplay28protocol6crypto3srp11pad_to_size
FN:316,_RNvNtNtNtCs41oluKY1Omx_8airplay28protocol6crypto3srp9compute_k
FN:338,_RNvNtNtNtCs41oluKY1Omx_8airplay28protocol6crypto3srp9compute_u
FN:325,_RNvNtNtNtCs41oluKY1Omx_8airplay28protocol6crypto3srp9compute_x
FN:50,_RNvXs_NtNtNtCs41oluKY1Omx_8airplay28protocol6crypto3srpNtB4_9SrpParamsINtNtCs3XFJfFEDSOQ_4core7convert4FromNtB4_10LazyParamsE4from
FN:68,_RNvXs0_NtNtNtCs41oluKY1Omx_8airplay28protocol6crypto3srpNtB5_9SrpClientNtNtNtCs3XFJfFEDSOQ_4core3ops4drop4Drop4drop
FN:197,_RNvXs4_NtNtNtCs41oluKY1Omx_8airplay28protocol6crypto3srpNtB5_10SessionKeyNtNtNtCs3XFJfFEDSOQ_4core3ops4drop4Drop4drop
FNDA:7,_RNvMs1_NtNtNtCslUrB7RWuRKg_8airplay28protocol6crypto3srpNtB5_9SrpClient10public_key
FNDA:7,_RNvMs1_NtNtNtCslUrB7RWuRKg_8airplay28protocol6crypto3srpNtB5_9SrpClient11with_params
FNDA:7,_RNvMs1_NtNtNtCslUrB7RWuRKg_8airplay28protocol6crypto3srpNtB5_9SrpClient17process_challenge
FNDA:7,_RNvMs1_NtNtNtCslUrB7RWuRKg_8airplay28protocol6crypto3srpNtB5_9SrpClient3new
FNDA:10,_RNvMs2_NtNtNtCslUrB7RWuRKg_8airplay28protocol6crypto3srpNtB5_11SrpVerifier12client_proof
FNDA:6,_RNvMs2_NtNtNtCslUrB7RWuRKg_8airplay28protocol6crypto3srpNtB5_11SrpVerifier13verify_server
FNDA:29,_RNvMs3_NtNtNtCslUrB7RWuRKg_8airplay28protocol6crypto3srpNtB5_10SessionKey8as_bytes
FNDA:7,_RNvMs5_NtNtNtCslUrB7RWuRKg_8airplay28protocol6crypto3srpNtB5_9SrpServer10public_key
FNDA:7,_RNvMs5_NtNtNtCslUrB7RWuRKg_8airplay28protocol6crypto3srpNtB5_9SrpServer13verify_client
FNDA:6,_RNvMs5_NtNtNtCslUrB7RWuRKg_8airplay28protocol6crypto3srpNtB5_9SrpServer16compute_verifier
FNDA:7,_RNvMs5_NtNtNtCslUrB7RWuRKg_8airplay28protocol6crypto3srpNtB5_9SrpServer3new
FNDA:14,_RNvNtNtNtCslUrB7RWuRKg_8airplay28protocol6crypto3srp10compute_m1
FNDA:56,_RNvNtNtNtCslUrB7RWuRKg_8airplay28protocol6crypto3srp11pad_to_size
FNDA:14,_RNvNtNtNtCslUrB7RWuRKg_8airplay28protocol6crypto3srp9compute_k
FNDA:14,_RNvNtNtNtCslUrB7RWuRKg_8airplay28protocol6crypto3srp9compute_u
FNDA:13,_RNvNtNtNtCslUrB7RWuRKg_8airplay28protocol6crypto3srp9compute_x
FNDA:20,_RNvXs_NtNtNtCslUrB7RWuRKg_8airplay28protocol6crypto3srpNtB4_9SrpParamsINtNtCs3XFJfFEDSOQ_4core7convert4FromNtB4_10LazyParamsE4from
FNDA:7,_RNvXs0_NtNtNtCslUrB7RWuRKg_8airplay28protocol6crypto3srpNtB5_9SrpClientNtNtNtCs3XFJfFEDSOQ_4core3ops4drop4Drop4drop
FNDA:12,_RNvXs4_NtNtNtCslUrB7RWuRKg_8airplay28protocol6crypto3srpNtB5_10SessionKeyNtNtNtCs3XFJfFEDSOQ_4core3ops4drop4Drop4drop
FNDA:7,_RNvMs1_NtNtNtCs41oluKY1Omx_8airplay28protocol6crypto3srpNtB5_9SrpClient10public_key
FNDA:13,_RNvMs1_NtNtNtCs41oluKY1Omx_8airplay28protocol6crypto3srpNtB5_9SrpClient11with_params
FNDA:10,_RNvMs1_NtNtNtCs41oluKY1Omx_8airplay28protocol6crypto3srpNtB5_9SrpClient17process_challenge
FNDA:13,_RNvMs1_NtNtNtCs41oluKY1Omx_8airplay28protocol6crypto3srpNtB5_9SrpClient3new
FNDA:10,_RNvMs2_NtNtNtCs41oluKY1Omx_8airplay28protocol6crypto3srpNtB5_11SrpVerifier12client_proof
FNDA:3,_RNvMs2_NtNtNtCs41oluKY1Omx_8airplay28protocol6crypto3srpNtB5_11SrpVerifier13verify_server
FNDA:9,_RNvMs3_NtNtNtCs41oluKY1Omx_8airplay28protocol6crypto3srpNtB5_10SessionKey8as_bytes
FNDA:8,_RNvMs5_NtNtNtCs41oluKY1Omx_8airplay28protocol6crypto3srpNtB5_9SrpServer10public_key
FNDA:4,_RNvMs5_NtNtNtCs41oluKY1Omx_8airplay28protocol6crypto3srpNtB5_9SrpServer13verify_client
FNDA:18,_RNvMs5_NtNtNtCs41oluKY1Omx_8airplay28protocol6crypto3srpNtB5_9SrpServer16compute_verifier
FNDA:8,_RNvMs5_NtNtNtCs41oluKY1Omx_8airplay28protocol6crypto3srpNtB5_9SrpServer3new
FNDA:14,_RNvNtNtNtCs41oluKY1Omx_8airplay28protocol6crypto3srp10compute_m1
FNDA:70,_RNvNtNtNtCs41oluKY1Omx_8airplay28protocol6crypto3srp11pad_to_size
FNDA:21,_RNvNtNtNtCs41oluKY1Omx_8airplay28protocol6crypto3srp9compute_k
FNDA:14,_RNvNtNtNtCs41oluKY1Omx_8airplay28protocol6crypto3srp9compute_u
FNDA:28,_RNvNtNtNtCs41oluKY1Omx_8airplay28protocol6crypto3srp9compute_x
FNDA:39,_RNvXs_NtNtNtCs41oluKY1Omx_8airplay28protocol6crypto3srpNtB4_9SrpParamsINtNtCs3XFJfFEDSOQ_4core7convert4FromNtB4_10LazyParamsE4from
FNDA:13,_RNvXs0_NtNtNtCs41oluKY1Omx_8airplay28protocol6crypto3srpNtB5_9SrpClientNtNtNtCs3XFJfFEDSOQ_4core3ops4drop4Drop4drop
FNDA:6,_RNvXs4_NtNtNtCs41oluKY1Omx_8airplay28protocol6crypto3srpNtB5_10SessionKeyNtNtNtCs3XFJfFEDSOQ_4core3ops4drop4Drop4drop
FNF:19
FNH:19
DA:50,59
DA:51,59
DA:52,59
DA:53,59
DA:54,59
DA:55,59
DA:56,59
DA:68,20
DA:70,20
DA:74,20
DA:75,20
DA:76,20
DA:77,20
DA:79,20
DA:81,20
DA:83,20
DA:84,20
DA:85,20
DA:88,20
DA:89,20
DA:91,20
DA:92,20
DA:93,20
DA:94,20
DA:95,20
DA:96,20
DA:97,20
DA:99,14
DA:100,14
DA:101,14
DA:103,17
DA:104,17
DA:105,17
DA:106,17
DA:107,17
DA:108,17
DA:109,17
DA:110,17
DA:111,17
DA:112,0
DA:113,0
DA:114,0
DA:115,17
DA:117,17
DA:120,17
DA:123,17
DA:126,17
DA:127,17
DA:128,17
DA:129,5
DA:131,12
DA:134,17
DA:135,17
DA:138,17
DA:139,17
DA:140,17
DA:141,17
DA:145,17
DA:147,17
DA:148,17
DA:149,17
DA:150,17
DA:151,17
DA:152,17
DA:162,20
DA:163,20
DA:164,20
DA:166,9
DA:168,9
DA:169,9
DA:170,9
DA:171,9
DA:172,9
DA:174,9
DA:175,0
DA:176,0
DA:177,0
DA:178,9
DA:180,9
DA:181,9
DA:182,9
DA:183,9
DA:191,38
DA:192,38
DA:193,38
DA:197,18
DA:198,18
DA:199,18
DA:212,15
DA:213,15
DA:214,15
DA:215,15
DA:217,15
DA:218,15
DA:219,15
DA:222,15
DA:223,15
DA:224,15
DA:226,15
DA:228,15
DA:229,15
DA:230,15
DA:231,15
DA:232,15
DA:233,15
DA:234,15
DA:235,15
DA:237,24
DA:238,24
DA:239,24
DA:240,24
DA:241,24
DA:242,24
DA:243,24
DA:244,24
DA:245,24
DA:246,24
DA:247,24
DA:249,15
DA:250,15
DA:251,15
DA:253,11
DA:254,11
DA:255,11
DA:256,11
DA:257,11
DA:258,11
DA:259,11
DA:260,11
DA:261,11
DA:262,0
DA:263,0
DA:264,0
DA:265,11
DA:268,11
DA:271,11
DA:272,11
DA:273,11
DA:276,11
DA:277,11
DA:278,11
DA:279,11
DA:282,11
DA:285,11
DA:287,11
DA:288,2
DA:289,2
DA:290,2
DA:291,9
DA:294,9
DA:295,9
DA:296,9
DA:297,9
DA:298,9
DA:300,9
DA:301,11
DA:306,126
DA:307,126
DA:308,91
DA:310,35
DA:311,35
DA:312,35
DA:314,126
DA:316,35
DA:317,35
DA:318,35
DA:319,35
DA:320,35
DA:321,35
DA:322,35
DA:323,35
DA:325,41
DA:326,41
DA:327,41
DA:328,41
DA:329,41
DA:330,41
DA:332,41
DA:333,41
DA:334,41
DA:335,41
DA:336,41
DA:338,28
DA:339,28
DA:340,28
DA:341,28
DA:342,28
DA:343,28
DA:345,28
DA:346,28
DA:347,28
DA:348,28
DA:349,28
DA:350,28
DA:351,28
DA:352,28
DA:353,28
DA:354,28
DA:355,28
DA:356,1820
DA:357,1792
DA:358,1792
DA:360,28
DA:362,28
DA:363,28
DA:364,28
DA:365,28
DA:367,28
DA:368,28
DA:369,28
DA:370,28
DA:371,28
BRF:0
BRH:0
LF:212
LH:203
end_of_record
SF:/app/src/protocol/crypto/x25519.rs
FN:21,_RNvMNtNtNtCslUrB7RWuRKg_8airplay28protocol6crypto6x25519NtB2_13X25519KeyPair10from_bytes
FN:37,_RNvMNtNtNtCslUrB7RWuRKg_8airplay28protocol6crypto6x25519NtB2_13X25519KeyPair10public_key
FN:42,_RNvMNtNtNtCslUrB7RWuRKg_8airplay28protocol6crypto6x25519NtB2_13X25519KeyPair12secret_bytes
FN:47,_RNvMNtNtNtCslUrB7RWuRKg_8airplay28protocol6crypto6x25519NtB2_13X25519KeyPair14diffie_hellman
FN:13,_RNvMNtNtNtCslUrB7RWuRKg_8airplay28protocol6crypto6x25519NtB2_13X25519KeyPair8generate
FN:90,_RNvMs0_NtNtNtCslUrB7RWuRKg_8airplay28protocol6crypto6x25519NtB5_18X25519SharedSecret8as_bytes
FN:63,_RNvMs_NtNtNtCslUrB7RWuRKg_8airplay28protocol6crypto6x25519NtB4_15X25519PublicKey10from_bytes
FN:78,_RNvMs_NtNtNtCslUrB7RWuRKg_8airplay28protocol6crypto6x25519NtB4_15X25519PublicKey8as_bytes
FN:96,_RNvXs1_NtNtNtCslUrB7RWuRKg_8airplay28protocol6crypto6x25519NtB5_18X25519SharedSecretNtNtNtCs3XFJfFEDSOQ_4core3ops4drop4Drop4drop
FN:96,_RNvXs1_NtNtNtCs41oluKY1Omx_8airplay28protocol6crypto6x25519NtB5_18X25519SharedSecretNtNtNtCs3XFJfFEDSOQ_4core3ops4drop4Drop4drop
FN:21,_RNvMNtNtNtCs41oluKY1Omx_8airplay28protocol6crypto6x25519NtB2_13X25519KeyPair10from_bytes
FN:37,_RNvMNtNtNtCs41oluKY1Omx_8airplay28protocol6crypto6x25519NtB2_13X25519KeyPair10public_key
FN:42,_RNvMNtNtNtCs41oluKY1Omx_8airplay28protocol6crypto6x25519NtB2_13X25519KeyPair12secret_bytes
FN:47,_RNvMNtNtNtCs41oluKY1Omx_8airplay28protocol6crypto6x25519NtB2_13X25519KeyPair14diffie_hellman
FN:13,_RNvMNtNtNtCs41oluKY1Omx_8airplay28protocol6crypto6x25519NtB2_13X25519KeyPair8generate
FN:90,_RNvMs0_NtNtNtCs41oluKY1Omx_8airplay28protocol6crypto6x25519NtB5_18X25519SharedSecret8as_bytes
FN:63,_RNvMs_NtNtNtCs41oluKY1Omx_8airplay28protocol6crypto6x25519NtB4_15X25519PublicKey10from_bytes
FN:78,_RNvMs_NtNtNtCs41oluKY1Omx_8airplay28protocol6crypto6x25519NtB4_15X25519PublicKey8as_bytes
FNDA:1,_RNvMNtNtNtCslUrB7RWuRKg_8airplay28protocol6crypto6x25519NtB2_13X25519KeyPair10from_bytes
FNDA:8,_RNvMNtNtNtCslUrB7RWuRKg_8airplay28protocol6crypto6x25519NtB2_13X25519KeyPair10public_key
FNDA:0,_RNvMNtNtNtCslUrB7RWuRKg_8airplay28protocol6crypto6x25519NtB2_13X25519KeyPair12secret_bytes
FNDA:2,_RNvMNtNtNtCslUrB7RWuRKg_8airplay28protocol6crypto6x25519NtB2_13X25519KeyPair14diffie_hellman
FNDA:7,_RNvMNtNtNtCslUrB7RWuRKg_8airplay28protocol6crypto6x25519NtB2_13X25519KeyPair8generate
FNDA:3,_RNvMs0_NtNtNtCslUrB7RWuRKg_8airplay28protocol6crypto6x25519NtB5_18X25519SharedSecret8as_bytes
FNDA:2,_RNvMs_NtNtNtCslUrB7RWuRKg_8airplay28protocol6crypto6x25519NtB4_15X25519PublicKey10from_bytes
FNDA:9,_RNvMs_NtNtNtCslUrB7RWuRKg_8airplay28protocol6crypto6x25519NtB4_15X25519PublicKey8as_bytes
FNDA:2,_RNvXs1_NtNtNtCslUrB7RWuRKg_8airplay28protocol6crypto6x25519NtB5_18X25519SharedSecretNtNtNtCs3XFJfFEDSOQ_4core3ops4drop4Drop4drop
FNDA:12,_RNvXs1_NtNtNtCs41oluKY1Omx_8airplay28protocol6crypto6x25519NtB5_18X25519SharedSecretNtNtNtCs3XFJfFEDSOQ_4core3ops4drop4Drop4drop
FNDA:1,_RNvMNtNtNtCs41oluKY1Omx_8airplay28protocol6crypto6x25519NtB2_13X25519KeyPair10from_bytes
FNDA:31,_RNvMNtNtNtCs41oluKY1Omx_8airplay28protocol6crypto6x25519NtB2_13X25519KeyPair10public_key
FNDA:1,_RNvMNtNtNtCs41oluKY1Omx_8airplay28protocol6crypto6x25519NtB2_13X25519KeyPair12secret_bytes
FNDA:12,_RNvMNtNtNtCs41oluKY1Omx_8airplay28protocol6crypto6x25519NtB2_13X25519KeyPair14diffie_hellman
FNDA:17,_RNvMNtNtNtCs41oluKY1Omx_8airplay28protocol6crypto6x25519NtB2_13X25519KeyPair8generate
FNDA:17,_RNvMs0_NtNtNtCs41oluKY1Omx_8airplay28protocol6crypto6x25519NtB5_18X25519SharedSecret8as_bytes
FNDA:11,_RNvMs_NtNtNtCs41oluKY1Omx_8airplay28protocol6crypto6x25519NtB4_15X25519PublicKey10from_bytes
FNDA:32,_RNvMs_NtNtNtCs41oluKY1Omx_8airplay28protocol6crypto6x25519NtB4_15X25519PublicKey8as_bytes
FNF:9
FNH:9
DA:13,24
DA:15,24
DA:16,24
DA:17,24
DA:18,24
DA:21,2
DA:22,2
DA:23,0
DA:24,0
DA:25,0
DA:26,0
DA:27,2
DA:29,2
DA:30,2
DA:31,2
DA:33,2
DA:34,2
DA:37,39
DA:38,39
DA:39,39
DA:42,1
DA:43,1
DA:44,1
DA:47,14
DA:48,14
DA:49,14
DA:50,14
DA:51,14
DA:52,14
DA:63,13
DA:64,13
DA:65,0
DA:66,0
DA:67,0
DA:68,0
DA:69,13
DA:71,13
DA:72,13
DA:73,13
DA:74,13
DA:75,13
DA:78,41
DA:79,41
DA:80,41
DA:90,20
DA:91,20
DA:92,20
DA:96,14
DA:98,14
DA:99,14
BRF:0
BRH:0
LF:50
LH:42
end_of_record
SF:/app/src/protocol/daap/artwork.rs
FN:24,_RNvMNtNtNtCslUrB7RWuRKg_8airplay28protocol4daap7artworkNtB2_13ArtworkFormat6detect
FN:15,_RNvMNtNtNtCslUrB7RWuRKg_8airplay28protocol4daap7artworkNtB2_13ArtworkFormat9mime_type
FN:86,_RNvMs_NtNtNtCslUrB7RWuRKg_8airplay28protocol4daap7artworkNtB4_7Artwork10dimensions
FN:130,_RNvMs_NtNtNtCslUrB7RWuRKg_8airplay28protocol4daap7artworkNtB4_7Artwork14png_dimensions
FN:93,_RNvMs_NtNtNtCslUrB7RWuRKg_8airplay28protocol4daap7artworkNtB4_7Artwork15jpeg_dimensions
FN:64,_RNvMs_NtNtNtCslUrB7RWuRKg_8airplay28protocol4daap7artworkNtB4_7Artwork3png
FN:55,_RNvMs_NtNtNtCslUrB7RWuRKg_8airplay28protocol4daap7artworkNtB4_7Artwork4jpeg
FN:73,_RNvMs_NtNtNtCslUrB7RWuRKg_8airplay28protocol4daap7artworkNtB4_7Artwork9from_data
FN:80,_RNvMs_NtNtNtCslUrB7RWuRKg_8airplay28protocol4daap7artworkNtB4_7Artwork9mime_type
FN:86,_RNvMs_NtNtNtCs41oluKY1Omx_8airplay28protocol4daap7artworkNtB4_7Artwork10dimensions
FN:130,_RNvMs_NtNtNtCs41oluKY1Omx_8airplay28protocol4daap7artworkNtB4_7Artwork14png_dimensions
FN:93,_RNvMs_NtNtNtCs41oluKY1Omx_8airplay28protocol4daap7artworkNtB4_7Artwork15jpeg_dimensions
FN:64,_RNvMs_NtNtNtCs41oluKY1Omx_8airplay28protocol4daap7artworkNtB4_7Artwork3png
FN:55,_RNvMs_NtNtNtCs41oluKY1Omx_8airplay28protocol4daap7artworkNtB4_7Artwork4jpeg
FN:73,_RNvMs_NtNtNtCs41oluKY1Omx_8airplay28protocol4daap7artworkNtB4_7Artwork9from_data
FN:24,_RNvMNtNtNtCs41oluKY1Omx_8airplay28protocol4daap7artworkNtB2_13ArtworkFormat6detect
FN:15,_RNvMNtNtNtCs41oluKY1Omx_8airplay28protocol4daap7artworkNtB2_13ArtworkFormat9mime_type
FN:80,_RNvMs_NtNtNtCs41oluKY1Omx_8airplay28protocol4daap7artworkNtB4_7Artwork9mime_type
FNDA:1,_RNvMNtNtNtCslUrB7RWuRKg_8airplay28protocol4daap7artworkNtB2_13ArtworkFormat6detect
FNDA:1,_RNvMNtNtNtCslUrB7RWuRKg_8airplay28protocol4daap7artworkNtB2_13ArtworkFormat9mime_type
FNDA:0,_RNvMs_NtNtNtCslUrB7RWuRKg_8airplay28protocol4daap7artworkNtB4_7Artwork10dimensions
FNDA:0,_RNvMs_NtNtNtCslUrB7RWuRKg_8airplay28protocol4daap7artworkNtB4_7Artwork14png_dimensions
FNDA:0,_RNvMs_NtNtNtCslUrB7RWuRKg_8airplay28protocol4daap7artworkNtB4_7Artwork15jpeg_dimensions
FNDA:0,_RNvMs_NtNtNtCslUrB7RWuRKg_8airplay28protocol4daap7artworkNtB4_7Artwork3png
FNDA:0,_RNvMs_NtNtNtCslUrB7RWuRKg_8airplay28protocol4daap7artworkNtB4_7Artwork4jpeg
FNDA:0,_RNvMs_NtNtNtCslUrB7RWuRKg_8airplay28protocol4daap7artworkNtB4_7Artwork9from_data
FNDA:1,_RNvMs_NtNtNtCslUrB7RWuRKg_8airplay28protocol4daap7artworkNtB4_7Artwork9mime_type
FNDA:0,_RNvMs_NtNtNtCs41oluKY1Omx_8airplay28protocol4daap7artworkNtB4_7Artwork10dimensions
FNDA:0,_RNvMs_NtNtNtCs41oluKY1Omx_8airplay28protocol4daap7artworkNtB4_7Artwork14png_dimensions
FNDA:0,_RNvMs_NtNtNtCs41oluKY1Omx_8airplay28protocol4daap7artworkNtB4_7Artwork15jpeg_dimensions
FNDA:0,_RNvMs_NtNtNtCs41oluKY1Omx_8airplay28protocol4daap7artworkNtB4_7Artwork3png
FNDA:0,_RNvMs_NtNtNtCs41oluKY1Omx_8airplay28protocol4daap7artworkNtB4_7Artwork4jpeg
FNDA:0,_RNvMs_NtNtNtCs41oluKY1Omx_8airplay28protocol4daap7artworkNtB4_7Artwork9from_data
FNDA:0,_RNvMNtNtNtCs41oluKY1Omx_8airplay28protocol4daap7artworkNtB2_13ArtworkFormat6detect
FNDA:0,_RNvMNtNtNtCs41oluKY1Omx_8airplay28protocol4daap7artworkNtB2_13ArtworkFormat9mime_type
FNDA:0,_RNvMs_NtNtNtCs41oluKY1Omx_8airplay28protocol4daap7artworkNtB4_7Artwork9mime_type
FNF:9
FNH:3
DA:15,1
DA:16,1
DA:17,1
DA:18,0
DA:20,1
DA:24,1
DA:25,1
DA:26,0
DA:27,1
DA:30,1
DA:31,0
DA:32,1
DA:35,1
DA:36,0
DA:37,1
DA:39,1
DA:40,1
DA:55,0
DA:56,0
DA:57,0
DA:58,0
DA:59,0
DA:60,0
DA:64,0
DA:65,0
DA:66,0
DA:67,0
DA:68,0
DA:69,0
DA:73,0
DA:74,0
DA:75,0
DA:76,0
DA:80,1
DA:81,1
DA:82,1
DA:86,0
DA:87,0
DA:88,0
DA:89,0
DA:91,0
DA:93,0
DA:95,0
DA:97,0
DA:98,0
DA:99,0
DA:100,0
DA:101,0
DA:103,0
DA:106,0
DA:107,0
DA:108,0
DA:109,0
DA:110,0
DA:112,0
DA:113,0
DA:114,0
DA:115,0
DA:116,0
DA:119,0
DA:120,0
DA:121,0
DA:122,0
DA:123,0
DA:127,0
DA:128,0
DA:130,0
DA:132,0
DA:133,0
DA:134,0
DA:136,0
DA:137,0
DA:138,0
DA:139,0
DA:141,0
DA:142,0
BRF:0
BRH:0
LF:76
LH:16
end_of_record
SF:/app/src/protocol/daap/dmap.rs
FN:268,_RNCNvMs2_NtNtNtCslUrB7RWuRKg_8airplay28protocol4daap4dmapNtB7_10DmapParser11parse_value0Bd_
FN:56,_RNvMNtNtNtCslUrB7RWuRKg_8airplay28protocol4daap4dmapNtB2_7DmapTag10from_bytes
FN:75,_RNvMNtNtNtCslUrB7RWuRKg_8airplay28protocol4daap4dmapNtB2_7DmapTag12is_container
FN:37,_RNvMNtNtNtCslUrB7RWuRKg_8airplay28protocol4daap4dmapNtB2_7DmapTag4code
FN:124,_RNvMs0_NtNtNtCslUrB7RWuRKg_8airplay28protocol4daap4dmapNtB5_11DmapEncoder10encode_tag
FN:181,_RNvMs0_NtNtNtCslUrB7RWuRKg_8airplay28protocol4daap4dmapNtB5_11DmapEncoder3int
FN:112,_RNvMs0_NtNtNtCslUrB7RWuRKg_8airplay28protocol4daap4dmapNtB5_11DmapEncoder3new
FN:187,_RNvMs0_NtNtNtCslUrB7RWuRKg_8airplay28protocol4daap4dmapNtB5_11DmapEncoder6finish
FN:176,_RNvMs0_NtNtNtCslUrB7RWuRKg_8airplay28protocol4daap4dmapNtB5_11DmapEncoder6string
FN:245,_RNvMs2_NtNtNtCslUrB7RWuRKg_8airplay28protocol4daap4dmapNtB5_10DmapParser11parse_value
FN:213,_RNvMs2_NtNtNtCslUrB7RWuRKg_8airplay28protocol4daap4dmapNtB5_10DmapParser15parse_container
FN:207,_RNvMs2_NtNtNtCslUrB7RWuRKg_8airplay28protocol4daap4dmapNtB5_10DmapParser5parse
FN:284,_RNvNtNtNtCslUrB7RWuRKg_8airplay28protocol4daap4dmap11decode_dmap
FN:285,_RNvNvNtNtNtCslUrB7RWuRKg_8airplay28protocol4daap4dmap11decode_dmap7flatten
FN:193,_RNvXs1_NtNtNtCslUrB7RWuRKg_8airplay28protocol4daap4dmapNtB5_11DmapEncoderNtNtCs3XFJfFEDSOQ_4core7default7Default7default
FN:84,_RNvXs_NtNtNtCslUrB7RWuRKg_8airplay28protocol4daap4dmapNtB4_7DmapTagNtNtCs3XFJfFEDSOQ_4core3fmt7Display3fmt
FN:284,_RNvNtNtNtCs41oluKY1Omx_8airplay28protocol4daap4dmap11decode_dmap
FN:285,_RNvNvNtNtNtCs41oluKY1Omx_8airplay28protocol4daap4dmap11decode_dmap7flatten
FN:193,_RNvXs1_NtNtNtCs41oluKY1Omx_8airplay28protocol4daap4dmapNtB5_11DmapEncoderNtNtCs3XFJfFEDSOQ_4core7default7Default7default
FN:84,_RNvXs_NtNtNtCs41oluKY1Omx_8airplay28protocol4daap4dmapNtB4_7DmapTagNtNtCs3XFJfFEDSOQ_4core3fmt7Display3fmt
FN:268,_RNCNvMs2_NtNtNtCs41oluKY1Omx_8airplay28protocol4daap4dmapNtB7_10DmapParser11parse_value0Bd_
FN:56,_RNvMNtNtNtCs41oluKY1Omx_8airplay28protocol4daap4dmapNtB2_7DmapTag10from_bytes
FN:75,_RNvMNtNtNtCs41oluKY1Omx_8airplay28protocol4daap4dmapNtB2_7DmapTag12is_container
FN:37,_RNvMNtNtNtCs41oluKY1Omx_8airplay28protocol4daap4dmapNtB2_7DmapTag4code
FN:124,_RNvMs0_NtNtNtCs41oluKY1Omx_8airplay28protocol4daap4dmapNtB5_11DmapEncoder10encode_tag
FN:181,_RNvMs0_NtNtNtCs41oluKY1Omx_8airplay28protocol4daap4dmapNtB5_11DmapEncoder3int
FN:112,_RNvMs0_NtNtNtCs41oluKY1Omx_8airplay28protocol4daap4dmapNtB5_11DmapEncoder3new
FN:187,_RNvMs0_NtNtNtCs41oluKY1Omx_8airplay28protocol4daap4dmapNtB5_11DmapEncoder6finish
FN:176,_RNvMs0_NtNtNtCs41oluKY1Omx_8airplay28protocol4daap4dmapNtB5_11DmapEncoder6string
FN:245,_RNvMs2_NtNtNtCs41oluKY1Omx_8airplay28protocol4daap4dmapNtB5_10DmapParser11parse_value
FN:213,_RNvMs2_NtNtNtCs41oluKY1Omx_8airplay28protocol4daap4dmapNtB5_10DmapParser15parse_container
FN:207,_RNvMs2_NtNtNtCs41oluKY1Omx_8airplay28protocol4daap4dmapNtB5_10DmapParser5parse
FNDA:0,_RNCNvMs2_NtNtNtCslUrB7RWuRKg_8airplay28protocol4daap4dmapNtB7_10DmapParser11parse_value0Bd_
FNDA:0,_RNvMNtNtNtCslUrB7RWuRKg_8airplay28protocol4daap4dmapNtB2_7DmapTag10from_bytes
FNDA:0,_RNvMNtNtNtCslUrB7RWuRKg_8airplay28protocol4daap4dmapNtB2_7DmapTag12is_container
FNDA:407,_RNvMNtNtNtCslUrB7RWuRKg_8airplay28protocol4daap4dmapNtB2_7DmapTag4code
FNDA:404,_RNvMs0_NtNtNtCslUrB7RWuRKg_8airplay28protocol4daap4dmapNtB5_11DmapEncoder10encode_tag
FNDA:0,_RNvMs0_NtNtNtCslUrB7RWuRKg_8airplay28protocol4daap4dmapNtB5_11DmapEncoder3int
FNDA:203,_RNvMs0_NtNtNtCslUrB7RWuRKg_8airplay28protocol4daap4dmapNtB5_11DmapEncoder3new
FNDA:203,_RNvMs0_NtNtNtCslUrB7RWuRKg_8airplay28protocol4daap4dmapNtB5_11DmapEncoder6finish
FNDA:1,_RNvMs0_NtNtNtCslUrB7RWuRKg_8airplay28protocol4daap4dmapNtB5_11DmapEncoder6string
FNDA:0,_RNvMs2_NtNtNtCslUrB7RWuRKg_8airplay28protocol4daap4dmapNtB5_10DmapParser11parse_value
FNDA:0,_RNvMs2_NtNtNtCslUrB7RWuRKg_8airplay28protocol4daap4dmapNtB5_10DmapParser15parse_container
FNDA:0,_RNvMs2_NtNtNtCslUrB7RWuRKg_8airplay28protocol4daap4dmapNtB5_10DmapParser5parse
FNDA:0,_RNvNtNtNtCslUrB7RWuRKg_8airplay28protocol4daap4dmap11decode_dmap
FNDA:0,_RNvNvNtNtNtCslUrB7RWuRKg_8airplay28protocol4daap4dmap11decode_dmap7flatten
FNDA:0,_RNvXs1_NtNtNtCslUrB7RWuRKg_8airplay28protocol4daap4dmapNtB5_11DmapEncoderNtNtCs3XFJfFEDSOQ_4core7default7Default7default
FNDA:0,_RNvXs_NtNtNtCslUrB7RWuRKg_8airplay28protocol4daap4dmapNtB4_7DmapTagNtNtCs3XFJfFEDSOQ_4core3fmt7Display3fmt
FNDA:0,_RNvNtNtNtCs41oluKY1Omx_8airplay28protocol4daap4dmap11decode_dmap
FNDA:0,_RNvNvNtNtNtCs41oluKY1Omx_8airplay28protocol4daap4dmap11decode_dmap7flatten
FNDA:0,_RNvXs1_NtNtNtCs41oluKY1Omx_8airplay28protocol4daap4dmapNtB5_11DmapEncoderNtNtCs3XFJfFEDSOQ_4core7default7Default7default
FNDA:0,_RNvXs_NtNtNtCs41oluKY1Omx_8airplay28protocol4daap4dmapNtB4_7DmapTagNtNtCs3XFJfFEDSOQ_4core3fmt7Display3fmt
FNDA:31,_RNCNvMs2_NtNtNtCs41oluKY1Omx_8airplay28protocol4daap4dmapNtB7_10DmapParser11parse_value0Bd_
FNDA:6,_RNvMNtNtNtCs41oluKY1Omx_8airplay28protocol4daap4dmapNtB2_7DmapTag10from_bytes
FNDA:6,_RNvMNtNtNtCs41oluKY1Omx_8airplay28protocol4daap4dmapNtB2_7DmapTag12is_container
FNDA:9,_RNvMNtNtNtCs41oluKY1Omx_8airplay28protocol4daap4dmapNtB2_7DmapTag4code
FNDA:9,_RNvMs0_NtNtNtCs41oluKY1Omx_8airplay28protocol4daap4dmapNtB5_11DmapEncoder10encode_tag
FNDA:2,_RNvMs0_NtNtNtCs41oluKY1Omx_8airplay28protocol4daap4dmapNtB5_11DmapEncoder3int
FNDA:5,_RNvMs0_NtNtNtCs41oluKY1Omx_8airplay28protocol4daap4dmapNtB5_11DmapEncoder3new
FNDA:4,_RNvMs0_NtNtNtCs41oluKY1Omx_8airplay28protocol4daap4dmapNtB5_11DmapEncoder6finish
FNDA:3,_RNvMs0_NtNtNtCs41oluKY1Omx_8airplay28protocol4daap4dmapNtB5_11DmapEncoder6string
FNDA:5,_RNvMs2_NtNtNtCs41oluKY1Omx_8airplay28protocol4daap4dmapNtB5_10DmapParser11parse_value
FNDA:4,_RNvMs2_NtNtNtCs41oluKY1Omx_8airplay28protocol4daap4dmapNtB5_10DmapParser15parse_container
FNDA:3,_RNvMs2_NtNtNtCs41oluKY1Omx_8airplay28protocol4daap4dmapNtB5_10DmapParser5parse
FNF:16
FNH:12
DA:37,416
DA:38,416
DA:39,106
DA:40,104
DA:41,101
DA:42,0
DA:43,0
DA:44,0
DA:45,1
DA:46,2
DA:47,0
DA:48,102
DA:49,0
DA:50,0
DA:52,416
DA:56,6
DA:57,6
DA:58,2
DA:59,1
DA:60,0
DA:61,0
DA:62,0
DA:63,0
DA:64,1
DA:65,1
DA:66,0
DA:67,1
DA:68,0
DA:69,0
DA:71,6
DA:75,6
DA:76,5
DA:77,6
DA:80,6
DA:84,0
DA:85,0
DA:86,0
DA:87,0
DA:88,0
DA:112,208
DA:113,208
DA:114,208
DA:124,413
DA:126,413
DA:128,413
DA:129,308
DA:130,308
DA:131,308
DA:132,308
DA:133,308
DA:134,308
DA:135,308
DA:136,3
DA:138,3
DA:139,0
DA:140,0
DA:141,3
DA:142,3
DA:143,3
DA:144,3
DA:145,3
DA:146,0
DA:147,0
DA:148,0
DA:149,0
DA:150,0
DA:151,0
DA:152,0
DA:154,102
DA:156,102
DA:157,407
DA:158,305
DA:159,305
DA:160,102
DA:163,102
DA:164,102
DA:165,102
DA:167,0
DA:168,0
DA:169,0
DA:170,0
DA:171,0
DA:173,413
DA:176,4
DA:177,4
DA:178,4
DA:181,2
DA:182,2
DA:183,2
DA:187,207
DA:188,207
DA:189,207
DA:193,0
DA:194,0
DA:195,0
DA:207,3
DA:209,3
DA:210,3
DA:211,3
DA:213,4
DA:214,4
DA:216,10
DA:217,6
DA:218,0
DA:219,6
DA:221,6
DA:222,6
DA:223,6
DA:225,6
DA:226,0
DA:227,6
DA:229,6
DA:230,6
DA:232,6
DA:233,6
DA:234,1
DA:236,5
DA:239,6
DA:242,4
DA:243,4
DA:245,5
DA:248,5
DA:253,2
DA:254,0
DA:255,2
DA:256,0
DA:257,0
DA:258,0
DA:260,2
DA:262,3
DA:266,3
DA:268,31
DA:269,3
DA:270,0
DA:271,0
DA:274,0
DA:275,5
DA:284,0
DA:285,0
DA:286,0
DA:287,0
DA:288,0
DA:289,0
DA:290,0
DA:291,0
DA:292,0
DA:293,0
DA:294,0
DA:297,0
DA:298,0
DA:300,0
DA:301,0
DA:302,0
DA:303,0
DA:304,0
BRF:0
BRH:0
LF:156
LH:93
end_of_record
SF:/app/src/protocol/daap/metadata.rs
FN:126,_RINvMs_NtNtNtCslUrB7RWuRKg_8airplay28protocol4daap8metadataNtB5_15MetadataBuilder5albumpEBb_
FN:133,_RINvMs_NtNtNtCslUrB7RWuRKg_8airplay28protocol4daap8metadataNtB5_15MetadataBuilder5genrepEBb_
FN:112,_RINvMs_NtNtNtCslUrB7RWuRKg_8airplay28protocol4daap8metadataNtB5_15MetadataBuilder5titlepEBb_
FN:119,_RINvMs_NtNtNtCslUrB7RWuRKg_8airplay28protocol4daap8metadataNtB5_15MetadataBuilder6artistpEBb_
FN:41,_RNvMNtNtNtCslUrB7RWuRKg_8airplay28protocol4daap8metadataNtB2_13TrackMetadata11encode_dmap
FN:29,_RNvMNtNtNtCslUrB7RWuRKg_8airplay28protocol4daap8metadataNtB2_13TrackMetadata3new
FN:35,_RNvMNtNtNtCslUrB7RWuRKg_8airplay28protocol4daap8metadataNtB2_13TrackMetadata7builder
FN:86,_RNvMNtNtNtCslUrB7RWuRKg_8airplay28protocol4daap8metadataNtB2_13TrackMetadata8is_empty
FN:147,_RNvMs_NtNtNtCslUrB7RWuRKg_8airplay28protocol4daap8metadataNtB4_15MetadataBuilder11disc_number
FN:161,_RNvMs_NtNtNtCslUrB7RWuRKg_8airplay28protocol4daap8metadataNtB4_15MetadataBuilder11duration_ms
FN:140,_RNvMs_NtNtNtCslUrB7RWuRKg_8airplay28protocol4daap8metadataNtB4_15MetadataBuilder12track_number
FN:104,_RNvMs_NtNtNtCslUrB7RWuRKg_8airplay28protocol4daap8metadataNtB4_15MetadataBuilder3new
FN:154,_RNvMs_NtNtNtCslUrB7RWuRKg_8airplay28protocol4daap8metadataNtB4_15MetadataBuilder4year
FN:168,_RNvMs_NtNtNtCslUrB7RWuRKg_8airplay28protocol4daap8metadataNtB4_15MetadataBuilder5build
FN:174,_RNvXs0_NtNtNtCslUrB7RWuRKg_8airplay28protocol4daap8metadataNtB5_15MetadataBuilderNtNtCs3XFJfFEDSOQ_4core7default7Default7default
FN:126,_RINvMs_NtNtNtCs41oluKY1Omx_8airplay28protocol4daap8metadataNtB5_15MetadataBuilder5albumpEBb_
FN:133,_RINvMs_NtNtNtCs41oluKY1Omx_8airplay28protocol4daap8metadataNtB5_15MetadataBuilder5genrepEBb_
FN:112,_RINvMs_NtNtNtCs41oluKY1Omx_8airplay28protocol4daap8metadataNtB5_15MetadataBuilder5titlepEBb_
FN:119,_RINvMs_NtNtNtCs41oluKY1Omx_8airplay28protocol4daap8metadataNtB5_15MetadataBuilder6artistpEBb_
FN:29,_RNvMNtNtNtCs41oluKY1Omx_8airplay28protocol4daap8metadataNtB2_13TrackMetadata3new
FN:35,_RNvMNtNtNtCs41oluKY1Omx_8airplay28protocol4daap8metadataNtB2_13TrackMetadata7builder
FN:86,_RNvMNtNtNtCs41oluKY1Omx_8airplay28protocol4daap8metadataNtB2_13TrackMetadata8is_empty
FN:147,_RNvMs_NtNtNtCs41oluKY1Omx_8airplay28protocol4daap8metadataNtB4_15MetadataBuilder11disc_number
FN:161,_RNvMs_NtNtNtCs41oluKY1Omx_8airplay28protocol4daap8metadataNtB4_15MetadataBuilder11duration_ms
FN:140,_RNvMs_NtNtNtCs41oluKY1Omx_8airplay28protocol4daap8metadataNtB4_15MetadataBuilder12track_number
FN:104,_RNvMs_NtNtNtCs41oluKY1Omx_8airplay28protocol4daap8metadataNtB4_15MetadataBuilder3new
FN:154,_RNvMs_NtNtNtCs41oluKY1Omx_8airplay28protocol4daap8metadataNtB4_15MetadataBuilder4year
FN:168,_RNvMs_NtNtNtCs41oluKY1Omx_8airplay28protocol4daap8metadataNtB4_15MetadataBuilder5build
FN:174,_RNvXs0_NtNtNtCs41oluKY1Omx_8airplay28protocol4daap8metadataNtB5_15MetadataBuilderNtNtCs3XFJfFEDSOQ_4core7default7Default7default
FN:41,_RNvMNtNtNtCs41oluKY1Omx_8airplay28protocol4daap8metadataNtB2_13TrackMetadata11encode_dmap
FNDA:0,_RINvMs_NtNtNtCslUrB7RWuRKg_8airplay28protocol4daap8metadataNtB5_15MetadataBuilder5albumpEBb_
FNDA:0,_RINvMs_NtNtNtCslUrB7RWuRKg_8airplay28protocol4daap8metadataNtB5_15MetadataBuilder5genrepEBb_
FNDA:0,_RINvMs_NtNtNtCslUrB7RWuRKg_8airplay28protocol4daap8metadataNtB5_15MetadataBuilder5titlepEBb_
FNDA:0,_RINvMs_NtNtNtCslUrB7RWuRKg_8airplay28protocol4daap8metadataNtB5_15MetadataBuilder6artistpEBb_
FNDA:101,_RNvMNtNtNtCslUrB7RWuRKg_8airplay28protocol4daap8metadataNtB2_13TrackMetadata11encode_dmap
FNDA:0,_RNvMNtNtNtCslUrB7RWuRKg_8airplay28protocol4daap8metadataNtB2_13TrackMetadata3new
FNDA:0,_RNvMNtNtNtCslUrB7RWuRKg_8airplay28protocol4daap8metadataNtB2_13TrackMetadata7builder
FNDA:0,_RNvMNtNtNtCslUrB7RWuRKg_8airplay28protocol4daap8metadataNtB2_13TrackMetadata8is_empty
FNDA:0,_RNvMs_NtNtNtCslUrB7RWuRKg_8airplay28protocol4daap8metadataNtB4_15MetadataBuilder11disc_number
FNDA:0,_RNvMs_NtNtNtCslUrB7RWuRKg_8airplay28protocol4daap8metadataNtB4_15MetadataBuilder11duration_ms
FNDA:0,_RNvMs_NtNtNtCslUrB7RWuRKg_8airplay28protocol4daap8metadataNtB4_15MetadataBuilder12track_number
FNDA:0,_RNvMs_NtNtNtCslUrB7RWuRKg_8airplay28protocol4daap8metadataNtB4_15MetadataBuilder3new
FNDA:0,_RNvMs_NtNtNtCslUrB7RWuRKg_8airplay28protocol4daap8metadataNtB4_15MetadataBuilder4year
FNDA:0,_RNvMs_NtNtNtCslUrB7RWuRKg_8airplay28protocol4daap8metadataNtB4_15MetadataBuilder5build
FNDA:0,_RNvXs0_NtNtNtCslUrB7RWuRKg_8airplay28protocol4daap8metadataNtB5_15MetadataBuilderNtNtCs3XFJfFEDSOQ_4core7default7Default7default
FNDA:0,_RINvMs_NtNtNtCs41oluKY1Omx_8airplay28protocol4daap8metadataNtB5_15MetadataBuilder5albumpEBb_
FNDA:0,_RINvMs_NtNtNtCs41oluKY1Omx_8airplay28protocol4daap8metadataNtB5_15MetadataBuilder5genrepEBb_
FNDA:0,_RINvMs_NtNtNtCs41oluKY1Omx_8airplay28protocol4daap8metadataNtB5_15MetadataBuilder5titlepEBb_
FNDA:0,_RINvMs_NtNtNtCs41oluKY1Omx_8airplay28protocol4daap8metadataNtB5_15MetadataBuilder6artistpEBb_
FNDA:0,_RNvMNtNtNtCs41oluKY1Omx_8airplay28protocol4daap8metadataNtB2_13TrackMetadata3new
FNDA:0,_RNvMNtNtNtCs41oluKY1Omx_8airplay28protocol4daap8metadataNtB2_13TrackMetadata7builder
FNDA:0,_RNvMNtNtNtCs41oluKY1Omx_8airplay28protocol4daap8metadataNtB2_13TrackMetadata8is_empty
FNDA:0,_RNvMs_NtNtNtCs41oluKY1Omx_8airplay28protocol4daap8metadataNtB4_15MetadataBuilder11disc_number
FNDA:0,_RNvMs_NtNtNtCs41oluKY1Omx_8airplay28protocol4daap8metadataNtB4_15MetadataBuilder11duration_ms
FNDA:0,_RNvMs_NtNtNtCs41oluKY1Omx_8airplay28protocol4daap8metadataNtB4_15MetadataBuilder12track_number
FNDA:0,_RNvMs_NtNtNtCs41oluKY1Omx_8airplay28protocol4daap8metadataNtB4_15MetadataBuilder3new
FNDA:0,_RNvMs_NtNtNtCs41oluKY1Omx_8airplay28protocol4daap8metadataNtB4_15MetadataBuilder4year
FNDA:0,_RNvMs_NtNtNtCs41oluKY1Omx_8airplay28protocol4daap8metadataNtB4_15MetadataBuilder5build
FNDA:0,_RNvXs0_NtNtNtCs41oluKY1Omx_8airplay28protocol4daap8metadataNtB5_15MetadataBuilderNtNtCs3XFJfFEDSOQ_4core7default7Default7default
FNDA:0,_RNvMNtNtNtCs41oluKY1Omx_8airplay28protocol4daap8metadataNtB2_13TrackMetadata11encode_dmap
FNF:15
FNH:1
DA:29,0
DA:30,0
DA:31,0
DA:35,0
DA:36,0
DA:37,0
DA:41,101
DA:42,101
DA:45,101
DA:47,101
DA:48,101
DA:49,101
DA:51,101
DA:52,101
DA:53,101
DA:55,101
DA:56,100
DA:57,100
DA:59,101
DA:60,0
DA:61,101
DA:63,101
DA:64,0
DA:65,101
DA:67,101
DA:68,0
DA:69,101
DA:71,101
DA:72,0
DA:73,101
DA:75,101
DA:76,0
DA:77,101
DA:79,101
DA:81,101
DA:82,101
DA:86,0
DA:87,0
DA:88,0
DA:89,0
DA:90,0
DA:91,0
DA:92,0
DA:93,0
DA:104,0
DA:105,0
DA:106,0
DA:107,0
DA:108,0
DA:112,0
DA:113,0
DA:114,0
DA:115,0
DA:119,0
DA:120,0
DA:121,0
DA:122,0
DA:126,0
DA:127,0
DA:128,0
DA:129,0
DA:133,0
DA:134,0
DA:135,0
DA:136,0
DA:140,0
DA:141,0
DA:142,0
DA:143,0
DA:147,0
DA:148,0
DA:149,0
DA:150,0
DA:154,0
DA:155,0
DA:156,0
DA:157,0
DA:161,0
DA:162,0
DA:163,0
DA:164,0
DA:168,0
DA:169,0
DA:170,0
DA:174,0
DA:175,0
DA:176,0
BRF:0
BRH:0
LF:87
LH:25
end_of_record
SF:/app/src/protocol/daap/progress.rs
FN:62,_RNvMNtNtNtCslUrB7RWuRKg_8airplay28protocol4daap8progressNtB2_12DmapProgress10percentage
FN:32,_RNvMNtNtNtCslUrB7RWuRKg_8airplay28protocol4daap8progressNtB2_12DmapProgress12from_samples
FN:55,_RNvMNtNtNtCslUrB7RWuRKg_8airplay28protocol4daap8progressNtB2_12DmapProgress13duration_secs
FN:48,_RNvMNtNtNtCslUrB7RWuRKg_8airplay28protocol4daap8progressNtB2_12DmapProgress13position_secs
FN:17,_RNvMNtNtNtCslUrB7RWuRKg_8airplay28protocol4daap8progressNtB2_12DmapProgress3new
FN:73,_RNvMNtNtNtCslUrB7RWuRKg_8airplay28protocol4daap8progressNtB2_12DmapProgress5parse
FN:42,_RNvMNtNtNtCslUrB7RWuRKg_8airplay28protocol4daap8progressNtB2_12DmapProgress6encode
FN:74,_RNCNvMNtNtNtCslUrB7RWuRKg_8airplay28protocol4daap8progressNtB4_12DmapProgress5parse0Ba_
FN:74,_RNCNvMNtNtNtCs41oluKY1Omx_8airplay28protocol4daap8progressNtB4_12DmapProgress5parse0Ba_
FN:62,_RNvMNtNtNtCs41oluKY1Omx_8airplay28protocol4daap8progressNtB2_12DmapProgress10percentage
FN:32,_RNvMNtNtNtCs41oluKY1Omx_8airplay28protocol4daap8progressNtB2_12DmapProgress12from_samples
FN:55,_RNvMNtNtNtCs41oluKY1Omx_8airplay28protocol4daap8progressNtB2_12DmapProgress13duration_secs
FN:48,_RNvMNtNtNtCs41oluKY1Omx_8airplay28protocol4daap8progressNtB2_12DmapProgress13position_secs
FN:73,_RNvMNtNtNtCs41oluKY1Omx_8airplay28protocol4daap8progressNtB2_12DmapProgress5parse
FN:17,_RNvMNtNtNtCs41oluKY1Omx_8airplay28protocol4daap8progressNtB2_12DmapProgress3new
FN:42,_RNvMNtNtNtCs41oluKY1Omx_8airplay28protocol4daap8progressNtB2_12DmapProgress6encode
FNDA:1,_RNvMNtNtNtCslUrB7RWuRKg_8airplay28protocol4daap8progressNtB2_12DmapProgress10percentage
FNDA:0,_RNvMNtNtNtCslUrB7RWuRKg_8airplay28protocol4daap8progressNtB2_12DmapProgress12from_samples
FNDA:0,_RNvMNtNtNtCslUrB7RWuRKg_8airplay28protocol4daap8progressNtB2_12DmapProgress13duration_secs
FNDA:0,_RNvMNtNtNtCslUrB7RWuRKg_8airplay28protocol4daap8progressNtB2_12DmapProgress13position_secs
FNDA:3,_RNvMNtNtNtCslUrB7RWuRKg_8airplay28protocol4daap8progressNtB2_12DmapProgress3new
FNDA:1,_RNvMNtNtNtCslUrB7RWuRKg_8airplay28protocol4daap8progressNtB2_12DmapProgress5parse
FNDA:2,_RNvMNtNtNtCslUrB7RWuRKg_8airplay28protocol4daap8progressNtB2_12DmapProgress6encode
FNDA:1,_RNCNvMNtNtNtCslUrB7RWuRKg_8airplay28protocol4daap8progressNtB4_12DmapProgress5parse0Ba_
FNDA:0,_RNCNvMNtNtNtCs41oluKY1Omx_8airplay28protocol4daap8progressNtB4_12DmapProgress5parse0Ba_
FNDA:0,_RNvMNtNtNtCs41oluKY1Omx_8airplay28protocol4daap8progressNtB2_12DmapProgress10percentage
FNDA:0,_RNvMNtNtNtCs41oluKY1Omx_8airplay28protocol4daap8progressNtB2_12DmapProgress12from_samples
FNDA:0,_RNvMNtNtNtCs41oluKY1Omx_8airplay28protocol4daap8progressNtB2_12DmapProgress13duration_secs
FNDA:0,_RNvMNtNtNtCs41oluKY1Omx_8airplay28protocol4daap8progressNtB2_12DmapProgress13position_secs
FNDA:0,_RNvMNtNtNtCs41oluKY1Omx_8airplay28protocol4daap8progressNtB2_12DmapProgress5parse
FNDA:1,_RNvMNtNtNtCs41oluKY1Omx_8airplay28protocol4daap8progressNtB2_12DmapProgress3new
FNDA:1,_RNvMNtNtNtCs41oluKY1Omx_8airplay28protocol4daap8progressNtB2_12DmapProgress6encode
FNF:8
FNH:5
DA:17,4
DA:18,4
DA:19,4
DA:20,4
DA:21,4
DA:22,4
DA:23,4
DA:32,0
DA:33,0
DA:34,0
DA:35,0
DA:36,0
DA:37,0
DA:38,0
DA:42,3
DA:43,3
DA:44,3
DA:48,0
DA:49,0
DA:50,0
DA:51,0
DA:55,0
DA:56,0
DA:57,0
DA:58,0
DA:62,1
DA:63,1
DA:64,1
DA:65,0
DA:66,1
DA:67,1
DA:68,1
DA:69,1
DA:73,1
DA:74,1
DA:75,1
DA:76,1
DA:78,1
DA:79,0
DA:80,1
DA:83,1
DA:84,1
DA:85,1
DA:87,1
BRF:0
BRH:0
LF:45
LH:28
end_of_record
SF:/app/src/protocol/dacp/commands.rs
FN:83,_RNvMNtNtNtCslUrB7RWuRKg_8airplay28protocol4dacp8commandsNtB2_11DacpCommand11description
FN:63,_RNvMNtNtNtCslUrB7RWuRKg_8airplay28protocol4dacp8commandsNtB2_11DacpCommand4path
FN:39,_RNvMNtNtNtCslUrB7RWuRKg_8airplay28protocol4dacp8commandsNtB2_11DacpCommand9from_path
FN:83,_RNvMNtNtNtCs41oluKY1Omx_8airplay28protocol4dacp8commandsNtB2_11DacpCommand11description
FN:63,_RNvMNtNtNtCs41oluKY1Omx_8airplay28protocol4dacp8commandsNtB2_11DacpCommand4path
FN:39,_RNvMNtNtNtCs41oluKY1Omx_8airplay28protocol4dacp8commandsNtB2_11DacpCommand9from_path
FNDA:0,_RNvMNtNtNtCslUrB7RWuRKg_8airplay28protocol4dacp8commandsNtB2_11DacpCommand11description
FNDA:0,_RNvMNtNtNtCslUrB7RWuRKg_8airplay28protocol4dacp8commandsNtB2_11DacpCommand4path
FNDA:0,_RNvMNtNtNtCslUrB7RWuRKg_8airplay28protocol4dacp8commandsNtB2_11DacpCommand9from_path
FNDA:0,_RNvMNtNtNtCs41oluKY1Omx_8airplay28protocol4dacp8commandsNtB2_11DacpCommand11description
FNDA:4,_RNvMNtNtNtCs41oluKY1Omx_8airplay28protocol4dacp8commandsNtB2_11DacpCommand4path
FNDA:11,_RNvMNtNtNtCs41oluKY1Omx_8airplay28protocol4dacp8commandsNtB2_11DacpCommand9from_path
FNF:3
FNH:2
DA:39,11
DA:41,11
DA:43,10
DA:44,10
DA:45,7
DA:46,6
DA:47,5
DA:48,5
DA:49,5
DA:50,3
DA:51,3
DA:52,3
DA:53,3
DA:54,2
DA:55,2
DA:56,2
DA:57,2
DA:59,11
DA:63,4
DA:64,4
DA:65,1
DA:66,1
DA:67,0
DA:68,0
DA:69,0
DA:70,1
DA:71,0
DA:72,0
DA:73,0
DA:74,1
DA:75,0
DA:76,0
DA:77,0
DA:79,4
DA:83,0
DA:84,0
DA:85,0
DA:86,0
DA:87,0
DA:88,0
DA:89,0
DA:90,0
DA:91,0
DA:92,0
DA:93,0
DA:94,0
DA:95,0
DA:96,0
DA:97,0
DA:99,0
BRF:0
BRH:0
LF:50
LH:25
end_of_record
SF:/app/src/protocol/dacp/server.rs
FN:226,_RINvMs0_NtNtNtCslUrB7RWuRKg_8airplay28protocol4dacp6serverNtB6_15CallbackHandler11on_previouspEBc_
FN:219,_RINvMs0_NtNtNtCslUrB7RWuRKg_8airplay28protocol4dacp6serverNtB6_15CallbackHandler7on_nextpEBc_
FN:205,_RINvMs0_NtNtNtCslUrB7RWuRKg_8airplay28protocol4dacp6serverNtB6_15CallbackHandler7on_playpEBc_
FN:212,_RINvMs0_NtNtNtCslUrB7RWuRKg_8airplay28protocol4dacp6serverNtB6_15CallbackHandler8on_pausepEBc_
FN:76,_RNCNvMNtNtNtCslUrB7RWuRKg_8airplay28protocol4dacp6serverINtB4_10DacpServerpE4stop0Ba_
FN:49,_RNCNvMNtNtNtCslUrB7RWuRKg_8airplay28protocol4dacp6serverINtB4_10DacpServerpE5start0Ba_
FN:82,_RNvMNtNtNtCslUrB7RWuRKg_8airplay28protocol4dacp6serverINtB2_10DacpServerpE10is_runningB8_
FN:88,_RNvMNtNtNtCslUrB7RWuRKg_8airplay28protocol4dacp6serverINtB2_10DacpServerpE15process_requestB8_
FN:34,_RNvMNtNtNtCslUrB7RWuRKg_8airplay28protocol4dacp6serverINtB2_10DacpServerpE3newB8_
FN:76,_RNvMNtNtNtCslUrB7RWuRKg_8airplay28protocol4dacp6serverINtB2_10DacpServerpE4stopB8_
FN:49,_RNvMNtNtNtCslUrB7RWuRKg_8airplay28protocol4dacp6serverINtB2_10DacpServerpE5startB8_
FN:191,_RNvMs0_NtNtNtCslUrB7RWuRKg_8airplay28protocol4dacp6serverNtB5_15CallbackHandler3new
FN:129,_RNvMs_NtNtNtCslUrB7RWuRKg_8airplay28protocol4dacp6serverNtB4_12HttpResponse10no_content
FN:169,_RNvMs_NtNtNtCslUrB7RWuRKg_8airplay28protocol4dacp6serverNtB4_12HttpResponse14internal_error
FN:161,_RNvMs_NtNtNtCslUrB7RWuRKg_8airplay28protocol4dacp6serverNtB4_12HttpResponse15not_implemented
FN:153,_RNvMs_NtNtNtCslUrB7RWuRKg_8airplay28protocol4dacp6serverNtB4_12HttpResponse18method_not_allowed
FN:137,_RNvMs_NtNtNtCslUrB7RWuRKg_8airplay28protocol4dacp6serverNtB4_12HttpResponse9forbidden
FN:145,_RNvMs_NtNtNtCslUrB7RWuRKg_8airplay28protocol4dacp6serverNtB4_12HttpResponse9not_found
FN:291,_RNvXs1_NtNtNtCslUrB7RWuRKg_8airplay28protocol4dacp6serverNtB5_15CallbackHandlerNtB5_11DacpHandler12verify_token
FN:233,_RNvXs1_NtNtNtCslUrB7RWuRKg_8airplay28protocol4dacp6serverNtB5_15CallbackHandlerNtB5_11DacpHandler14handle_command
FN:226,_RINvMs0_NtNtNtCs41oluKY1Omx_8airplay28protocol4dacp6serverNtB6_15CallbackHandler11on_previouspEBc_
FN:219,_RINvMs0_NtNtNtCs41oluKY1Omx_8airplay28protocol4dacp6serverNtB6_15CallbackHandler7on_nextpEBc_
FN:205,_RINvMs0_NtNtNtCs41oluKY1Omx_8airplay28protocol4dacp6serverNtB6_15CallbackHandler7on_playpEBc_
FN:212,_RINvMs0_NtNtNtCs41oluKY1Omx_8airplay28protocol4dacp6serverNtB6_15CallbackHandler8on_pausepEBc_
FN:76,_RNCNvMNtNtNtCs41oluKY1Omx_8airplay28protocol4dacp6serverINtB4_10DacpServerpE4stop0Ba_
FN:49,_RNCNvMNtNtNtCs41oluKY1Omx_8airplay28protocol4dacp6serverINtB4_10DacpServerpE5start0Ba_
FN:82,_RNvMNtNtNtCs41oluKY1Omx_8airplay28protocol4dacp6serverINtB2_10DacpServerpE10is_runningB8_
FN:76,_RNvMNtNtNtCs41oluKY1Omx_8airplay28protocol4dacp6serverINtB2_10DacpServerpE4stopB8_
FN:49,_RNvMNtNtNtCs41oluKY1Omx_8airplay28protocol4dacp6serverINtB2_10DacpServerpE5startB8_
FN:191,_RNvMs0_NtNtNtCs41oluKY1Omx_8airplay28protocol4dacp6serverNtB5_15CallbackHandler3new
FN:291,_RNvXs1_NtNtNtCs41oluKY1Omx_8airplay28protocol4dacp6serverNtB5_15CallbackHandlerNtB5_11DacpHandler12verify_token
FN:233,_RNvXs1_NtNtNtCs41oluKY1Omx_8airplay28protocol4dacp6serverNtB5_15CallbackHandlerNtB5_11DacpHandler14handle_command
FN:129,_RNvMs_NtNtNtCs41oluKY1Omx_8airplay28protocol4dacp6serverNtB4_12HttpResponse10no_content
FN:169,_RNvMs_NtNtNtCs41oluKY1Omx_8airplay28protocol4dacp6serverNtB4_12HttpResponse14internal_error
FN:161,_RNvMs_NtNtNtCs41oluKY1Omx_8airplay28protocol4dacp6serverNtB4_12HttpResponse15not_implemented
FN:153,_RNvMs_NtNtNtCs41oluKY1Omx_8airplay28protocol4dacp6serverNtB4_12HttpResponse18method_not_allowed
FN:137,_RNvMs_NtNtNtCs41oluKY1Omx_8airplay28protocol4dacp6serverNtB4_12HttpResponse9forbidden
FN:145,_RNvMs_NtNtNtCs41oluKY1Omx_8airplay28protocol4dacp6serverNtB4_12HttpResponse9not_found
FN:88,_RNvMNtNtNtCs41oluKY1Omx_8airplay28protocol4dacp6serverINtB2_10DacpServerNtNtNtB4_5tests6server11TestHandlerE15process_requestB8_
FN:34,_RNvMNtNtNtCs41oluKY1Omx_8airplay28protocol4dacp6serverINtB2_10DacpServerNtNtNtB4_5tests6server11TestHandlerE3newB8_
FNDA:0,_RINvMs0_NtNtNtCslUrB7RWuRKg_8airplay28protocol4dacp6serverNtB6_15CallbackHandler11on_previouspEBc_
FNDA:0,_RINvMs0_NtNtNtCslUrB7RWuRKg_8airplay28protocol4dacp6serverNtB6_15CallbackHandler7on_nextpEBc_
FNDA:0,_RINvMs0_NtNtNtCslUrB7RWuRKg_8airplay28protocol4dacp6serverNtB6_15CallbackHandler7on_playpEBc_
FNDA:0,_RINvMs0_NtNtNtCslUrB7RWuRKg_8airplay28protocol4dacp6serverNtB6_15CallbackHandler8on_pausepEBc_
FNDA:0,_RNCNvMNtNtNtCslUrB7RWuRKg_8airplay28protocol4dacp6serverINtB4_10DacpServerpE4stop0Ba_
FNDA:0,_RNCNvMNtNtNtCslUrB7RWuRKg_8airplay28protocol4dacp6serverINtB4_10DacpServerpE5start0Ba_
FNDA:0,_RNvMNtNtNtCslUrB7RWuRKg_8airplay28protocol4dacp6serverINtB2_10DacpServerpE10is_runningB8_
FNDA:0,_RNvMNtNtNtCslUrB7RWuRKg_8airplay28protocol4dacp6serverINtB2_10DacpServerpE15process_requestB8_
FNDA:0,_RNvMNtNtNtCslUrB7RWuRKg_8airplay28protocol4dacp6serverINtB2_10DacpServerpE3newB8_
FNDA:0,_RNvMNtNtNtCslUrB7RWuRKg_8airplay28protocol4dacp6serverINtB2_10DacpServerpE4stopB8_
FNDA:0,_RNvMNtNtNtCslUrB7RWuRKg_8airplay28protocol4dacp6serverINtB2_10DacpServerpE5startB8_
FNDA:0,_RNvMs0_NtNtNtCslUrB7RWuRKg_8airplay28protocol4dacp6serverNtB5_15CallbackHandler3new
FNDA:0,_RNvMs_NtNtNtCslUrB7RWuRKg_8airplay28protocol4dacp6serverNtB4_12HttpResponse10no_content
FNDA:0,_RNvMs_NtNtNtCslUrB7RWuRKg_8airplay28protocol4dacp6serverNtB4_12HttpResponse14internal_error
FNDA:0,_RNvMs_NtNtNtCslUrB7RWuRKg_8airplay28protocol4dacp6serverNtB4_12HttpResponse15not_implemented
FNDA:0,_RNvMs_NtNtNtCslUrB7RWuRKg_8airplay28protocol4dacp6serverNtB4_12HttpResponse18method_not_allowed
FNDA:0,_RNvMs_NtNtNtCslUrB7RWuRKg_8airplay28protocol4dacp6serverNtB4_12HttpResponse9forbidden
FNDA:0,_RNvMs_NtNtNtCslUrB7RWuRKg_8airplay28protocol4dacp6serverNtB4_12HttpResponse9not_found
FNDA:0,_RNvXs1_NtNtNtCslUrB7RWuRKg_8airplay28protocol4dacp6serverNtB5_15CallbackHandlerNtB5_11DacpHandler12verify_token
FNDA:0,_RNvXs1_NtNtNtCslUrB7RWuRKg_8airplay28protocol4dacp6serverNtB5_15CallbackHandlerNtB5_11DacpHandler14handle_command
FNDA:0,_RINvMs0_NtNtNtCs41oluKY1Omx_8airplay28protocol4dacp6serverNtB6_15CallbackHandler11on_previouspEBc_
FNDA:0,_RINvMs0_NtNtNtCs41oluKY1Omx_8airplay28protocol4dacp6serverNtB6_15CallbackHandler7on_nextpEBc_
FNDA:0,_RINvMs0_NtNtNtCs41oluKY1Omx_8airplay28protocol4dacp6serverNtB6_15CallbackHandler7on_playpEBc_
FNDA:0,_RINvMs0_NtNtNtCs41oluKY1Omx_8airplay28protocol4dacp6serverNtB6_15CallbackHandler8on_pausepEBc_
FNDA:0,_RNCNvMNtNtNtCs41oluKY1Omx_8airplay28protocol4dacp6serverINtB4_10DacpServerpE4stop0Ba_
FNDA:0,_RNCNvMNtNtNtCs41oluKY1Omx_8airplay28protocol4dacp6serverINtB4_10DacpServerpE5start0Ba_
FNDA:0,_RNvMNtNtNtCs41oluKY1Omx_8airplay28protocol4dacp6serverINtB2_10DacpServerpE10is_runningB8_
FNDA:0,_RNvMNtNtNtCs41oluKY1Omx_8airplay28protocol4dacp6serverINtB2_10DacpServerpE4stopB8_
FNDA:0,_RNvMNtNtNtCs41oluKY1Omx_8airplay28protocol4dacp6serverINtB2_10DacpServerpE5startB8_
FNDA:0,_RNvMs0_NtNtNtCs41oluKY1Omx_8airplay28protocol4dacp6serverNtB5_15CallbackHandler3new
FNDA:0,_RNvXs1_NtNtNtCs41oluKY1Omx_8airplay28protocol4dacp6serverNtB5_15CallbackHandlerNtB5_11DacpHandler12verify_token
FNDA:0,_RNvXs1_NtNtNtCs41oluKY1Omx_8airplay28protocol4dacp6serverNtB5_15CallbackHandlerNtB5_11DacpHandler14handle_command
FNDA:1,_RNvMs_NtNtNtCs41oluKY1Omx_8airplay28protocol4dacp6serverNtB4_12HttpResponse10no_content
FNDA:0,_RNvMs_NtNtNtCs41oluKY1Omx_8airplay28protocol4dacp6serverNtB4_12HttpResponse14internal_error
FNDA:0,_RNvMs_NtNtNtCs41oluKY1Omx_8airplay28protocol4dacp6serverNtB4_12HttpResponse15not_implemented
FNDA:0,_RNvMs_NtNtNtCs41oluKY1Omx_8airplay28protocol4dacp6serverNtB4_12HttpResponse18method_not_allowed
FNDA:1,_RNvMs_NtNtNtCs41oluKY1Omx_8airplay28protocol4dacp6serverNtB4_12HttpResponse9forbidden
FNDA:1,_RNvMs_NtNtNtCs41oluKY1Omx_8airplay28protocol4dacp6serverNtB4_12HttpResponse9not_found
FNDA:3,_RNvMNtNtNtCs41oluKY1Omx_8airplay28protocol4dacp6serverINtB2_10DacpServerNtNtNtB4_5tests6server11TestHandlerE15process_requestB8_
FNDA:3,_RNvMNtNtNtCs41oluKY1Omx_8airplay28protocol4dacp6serverINtB2_10DacpServerNtNtNtB4_5tests6server11TestHandlerE3newB8_
FNF:20
FNH:5
DA:34,3
DA:35,3
DA:36,3
DA:37,3
DA:38,3
DA:39,3
DA:40,3
DA:41,3
DA:49,0
DA:53,0
DA:71,0
DA:72,0
DA:76,0
DA:77,0
DA:78,0
DA:82,0
DA:83,0
DA:84,0
DA:88,3
DA:89,3
DA:90,3
DA:91,3
DA:92,3
DA:93,3
DA:95,3
DA:96,0
DA:97,3
DA:100,3
DA:101,3
DA:102,1
DA:106,2
DA:107,1
DA:111,1
DA:113,1
DA:114,1
DA:115,0
DA:116,0
DA:118,3
DA:129,1
DA:130,1
DA:131,1
DA:132,1
DA:133,1
DA:134,1
DA:137,1
DA:138,1
DA:139,1
DA:140,1
DA:141,1
DA:142,1
DA:145,1
DA:146,1
DA:147,1
DA:148,1
DA:149,1
DA:150,1
DA:153,0
DA:154,0
DA:155,0
DA:156,0
DA:157,0
DA:158,0
DA:161,0
DA:162,0
DA:163,0
DA:164,0
DA:165,0
DA:166,0
DA:169,0
DA:170,0
DA:171,0
DA:172,0
DA:173,0
DA:174,0
DA:191,0
DA:192,0
DA:193,0
DA:194,0
DA:195,0
DA:196,0
DA:197,0
DA:198,0
DA:199,0
DA:200,0
DA:201,0
DA:205,0
DA:206,0
DA:207,0
DA:208,0
DA:212,0
DA:213,0
DA:214,0
DA:215,0
DA:219,0
DA:220,0
DA:221,0
DA:222,0
DA:226,0
DA:227,0
DA:228,0
DA:229,0
DA:233,0
DA:234,0
DA:236,0
DA:237,0
DA:238,0
DA:240,0
DA:244,0
DA:245,0
DA:246,0
DA:248,0
DA:253,0
DA:256,0
DA:257,0
DA:258,0
DA:260,0
DA:264,0
DA:265,0
DA:266,0
DA:268,0
DA:272,0
DA:273,0
DA:274,0
DA:276,0
DA:280,0
DA:281,0
DA:282,0
DA:284,0
DA:287,0
DA:289,0
DA:291,0
DA:292,0
DA:293,0
BRF:0
BRH:0
LF:135
LH:43
end_of_record
SF:/app/src/protocol/dacp/service.rs
FN:118,_RNCNvMs0_NtNtNtCslUrB7RWuRKg_8airplay28protocol4dacp7serviceNtB7_11DacpService10unregister0Bd_
FN:104,_RNCNvMs0_NtNtNtCslUrB7RWuRKg_8airplay28protocol4dacp7serviceNtB7_11DacpService8register0Bd_
FN:46,_RNvMNtNtNtCslUrB7RWuRKg_8airplay28protocol4dacp7serviceNtB2_17DacpServiceConfig11txt_records
FN:40,_RNvMNtNtNtCslUrB7RWuRKg_8airplay28protocol4dacp7serviceNtB2_17DacpServiceConfig13instance_name
FN:23,_RNvMNtNtNtCslUrB7RWuRKg_8airplay28protocol4dacp7serviceNtB2_17DacpServiceConfig3new
FN:118,_RNvMs0_NtNtNtCslUrB7RWuRKg_8airplay28protocol4dacp7serviceNtB5_11DacpService10unregister
FN:94,_RNvMs0_NtNtNtCslUrB7RWuRKg_8airplay28protocol4dacp7serviceNtB5_11DacpService13active_remote
FN:125,_RNvMs0_NtNtNtCslUrB7RWuRKg_8airplay28protocol4dacp7serviceNtB5_11DacpService13is_registered
FN:73,_RNvMs0_NtNtNtCslUrB7RWuRKg_8airplay28protocol4dacp7serviceNtB5_11DacpService3new
FN:82,_RNvMs0_NtNtNtCslUrB7RWuRKg_8airplay28protocol4dacp7serviceNtB5_11DacpService6config
FN:88,_RNvMs0_NtNtNtCslUrB7RWuRKg_8airplay28protocol4dacp7serviceNtB5_11DacpService7dacp_id
FN:104,_RNvMs0_NtNtNtCslUrB7RWuRKg_8airplay28protocol4dacp7serviceNtB5_11DacpService8register
FN:57,_RNvXs_NtNtNtCslUrB7RWuRKg_8airplay28protocol4dacp7serviceNtB4_17DacpServiceConfigNtNtCs3XFJfFEDSOQ_4core7default7Default7default
FN:118,_RNCNvMs0_NtNtNtCs41oluKY1Omx_8airplay28protocol4dacp7serviceNtB7_11DacpService10unregister0Bd_
FN:104,_RNCNvMs0_NtNtNtCs41oluKY1Omx_8airplay28protocol4dacp7serviceNtB7_11DacpService8register0Bd_
FN:46,_RNvMNtNtNtCs41oluKY1Omx_8airplay28protocol4dacp7serviceNtB2_17DacpServiceConfig11txt_records
FN:118,_RNvMs0_NtNtNtCs41oluKY1Omx_8airplay28protocol4dacp7serviceNtB5_11DacpService10unregister
FN:94,_RNvMs0_NtNtNtCs41oluKY1Omx_8airplay28protocol4dacp7serviceNtB5_11DacpService13active_remote
FN:125,_RNvMs0_NtNtNtCs41oluKY1Omx_8airplay28protocol4dacp7serviceNtB5_11DacpService13is_registered
FN:73,_RNvMs0_NtNtNtCs41oluKY1Omx_8airplay28protocol4dacp7serviceNtB5_11DacpService3new
FN:82,_RNvMs0_NtNtNtCs41oluKY1Omx_8airplay28protocol4dacp7serviceNtB5_11DacpService6config
FN:88,_RNvMs0_NtNtNtCs41oluKY1Omx_8airplay28protocol4dacp7serviceNtB5_11DacpService7dacp_id
FN:104,_RNvMs0_NtNtNtCs41oluKY1Omx_8airplay28protocol4dacp7serviceNtB5_11DacpService8register
FN:57,_RNvXs_NtNtNtCs41oluKY1Omx_8airplay28protocol4dacp7serviceNtB4_17DacpServiceConfigNtNtCs3XFJfFEDSOQ_4core7default7Default7default
FN:40,_RNvMNtNtNtCs41oluKY1Omx_8airplay28protocol4dacp7serviceNtB2_17DacpServiceConfig13instance_name
FN:23,_RNvMNtNtNtCs41oluKY1Omx_8airplay28protocol4dacp7serviceNtB2_17DacpServiceConfig3new
FNDA:0,_RNCNvMs0_NtNtNtCslUrB7RWuRKg_8airplay28protocol4dacp7serviceNtB7_11DacpService10unregister0Bd_
FNDA:0,_RNCNvMs0_NtNtNtCslUrB7RWuRKg_8airplay28protocol4dacp7serviceNtB7_11DacpService8register0Bd_
FNDA:0,_RNvMNtNtNtCslUrB7RWuRKg_8airplay28protocol4dacp7serviceNtB2_17DacpServiceConfig11txt_records
FNDA:0,_RNvMNtNtNtCslUrB7RWuRKg_8airplay28protocol4dacp7serviceNtB2_17DacpServiceConfig13instance_name
FNDA:0,_RNvMNtNtNtCslUrB7RWuRKg_8airplay28protocol4dacp7serviceNtB2_17DacpServiceConfig3new
FNDA:0,_RNvMs0_NtNtNtCslUrB7RWuRKg_8airplay28protocol4dacp7serviceNtB5_11DacpService10unregister
FNDA:0,_RNvMs0_NtNtNtCslUrB7RWuRKg_8airplay28protocol4dacp7serviceNtB5_11DacpService13active_remote
FNDA:0,_RNvMs0_NtNtNtCslUrB7RWuRKg_8airplay28protocol4dacp7serviceNtB5_11DacpService13is_registered
FNDA:0,_RNvMs0_NtNtNtCslUrB7RWuRKg_8airplay28protocol4dacp7serviceNtB5_11DacpService3new
FNDA:0,_RNvMs0_NtNtNtCslUrB7RWuRKg_8airplay28protocol4dacp7serviceNtB5_11DacpService6config
FNDA:0,_RNvMs0_NtNtNtCslUrB7RWuRKg_8airplay28protocol4dacp7serviceNtB5_11DacpService7dacp_id
FNDA:0,_RNvMs0_NtNtNtCslUrB7RWuRKg_8airplay28protocol4dacp7serviceNtB5_11DacpService8register
FNDA:0,_RNvXs_NtNtNtCslUrB7RWuRKg_8airplay28protocol4dacp7serviceNtB4_17DacpServiceConfigNtNtCs3XFJfFEDSOQ_4core7default7Default7default
FNDA:0,_RNCNvMs0_NtNtNtCs41oluKY1Omx_8airplay28protocol4dacp7serviceNtB7_11DacpService10unregister0Bd_
FNDA:0,_RNCNvMs0_NtNtNtCs41oluKY1Omx_8airplay28protocol4dacp7serviceNtB7_11DacpService8register0Bd_
FNDA:0,_RNvMNtNtNtCs41oluKY1Omx_8airplay28protocol4dacp7serviceNtB2_17DacpServiceConfig11txt_records
FNDA:0,_RNvMs0_NtNtNtCs41oluKY1Omx_8airplay28protocol4dacp7serviceNtB5_11DacpService10unregister
FNDA:0,_RNvMs0_NtNtNtCs41oluKY1Omx_8airplay28protocol4dacp7serviceNtB5_11DacpService13active_remote
FNDA:0,_RNvMs0_NtNtNtCs41oluKY1Omx_8airplay28protocol4dacp7serviceNtB5_11DacpService13is_registered
FNDA:0,_RNvMs0_NtNtNtCs41oluKY1Omx_8airplay28protocol4dacp7serviceNtB5_11DacpService3new
FNDA:0,_RNvMs0_NtNtNtCs41oluKY1Omx_8airplay28protocol4dacp7serviceNtB5_11DacpService6config
FNDA:0,_RNvMs0_NtNtNtCs41oluKY1Omx_8airplay28protocol4dacp7serviceNtB5_11DacpService7dacp_id
FNDA:0,_RNvMs0_NtNtNtCs41oluKY1Omx_8airplay28protocol4dacp7serviceNtB5_11DacpService8register
FNDA:0,_RNvXs_NtNtNtCs41oluKY1Omx_8airplay28protocol4dacp7serviceNtB4_17DacpServiceConfigNtNtCs3XFJfFEDSOQ_4core7default7Default7default
FNDA:1,_RNvMNtNtNtCs41oluKY1Omx_8airplay28protocol4dacp7serviceNtB2_17DacpServiceConfig13instance_name
FNDA:1,_RNvMNtNtNtCs41oluKY1Omx_8airplay28protocol4dacp7serviceNtB2_17DacpServiceConfig3new
FNF:13
FNH:2
DA:23,1
DA:25,1
DA:27,1
DA:28,1
DA:30,1
DA:31,1
DA:32,1
DA:33,1
DA:34,1
DA:35,1
DA:36,1
DA:40,1
DA:41,1
DA:42,1
DA:46,0
DA:47,0
DA:48,0
DA:49,0
DA:50,0
DA:51,0
DA:52,0
DA:53,0
DA:57,0
DA:58,0
DA:59,0
DA:73,0
DA:74,0
DA:75,0
DA:76,0
DA:77,0
DA:78,0
DA:82,0
DA:83,0
DA:84,0
DA:88,0
DA:89,0
DA:90,0
DA:94,0
DA:95,0
DA:96,0
DA:104,0
DA:108,0
DA:109,0
DA:110,0
DA:118,0
DA:119,0
DA:120,0
DA:121,0
DA:125,0
DA:126,0
DA:127,0
BRF:0
BRH:0
LF:53
LH:14
end_of_record
SF:/app/src/protocol/pairing/auth_setup.rs
FN:61,_RNvMs_NtNtNtCslUrB7RWuRKg_8airplay28protocol7pairing10auth_setupNtB4_9AuthSetup16process_response
FN:24,_RNvMs_NtNtNtCslUrB7RWuRKg_8airplay28protocol7pairing10auth_setupNtB4_9AuthSetup3new
FN:35,_RNvMs_NtNtNtCslUrB7RWuRKg_8airplay28protocol7pairing10auth_setupNtB4_9AuthSetup5start
FN:16,_RNvXNtNtNtCslUrB7RWuRKg_8airplay28protocol7pairing10auth_setupNtB2_9AuthSetupNtNtCs3XFJfFEDSOQ_4core7default7Default7default
FN:16,_RNvXNtNtNtCs41oluKY1Omx_8airplay28protocol7pairing10auth_setupNtB2_9AuthSetupNtNtCs3XFJfFEDSOQ_4core7default7Default7default
FN:61,_RNvMs_NtNtNtCs41oluKY1Omx_8airplay28protocol7pairing10auth_setupNtB4_9AuthSetup16process_response
FN:24,_RNvMs_NtNtNtCs41oluKY1Omx_8airplay28protocol7pairing10auth_setupNtB4_9AuthSetup3new
FN:35,_RNvMs_NtNtNtCs41oluKY1Omx_8airplay28protocol7pairing10auth_setupNtB4_9AuthSetup5start
FNDA:5,_RNvMs_NtNtNtCslUrB7RWuRKg_8airplay28protocol7pairing10auth_setupNtB4_9AuthSetup16process_response
FNDA:5,_RNvMs_NtNtNtCslUrB7RWuRKg_8airplay28protocol7pairing10auth_setupNtB4_9AuthSetup3new
FNDA:5,_RNvMs_NtNtNtCslUrB7RWuRKg_8airplay28protocol7pairing10auth_setupNtB4_9AuthSetup5start
FNDA:0,_RNvXNtNtNtCslUrB7RWuRKg_8airplay28protocol7pairing10auth_setupNtB2_9AuthSetupNtNtCs3XFJfFEDSOQ_4core7default7Default7default
FNDA:0,_RNvXNtNtNtCs41oluKY1Omx_8airplay28protocol7pairing10auth_setupNtB2_9AuthSetupNtNtCs3XFJfFEDSOQ_4core7default7Default7default
FNDA:0,_RNvMs_NtNtNtCs41oluKY1Omx_8airplay28protocol7pairing10auth_setupNtB4_9AuthSetup16process_response
FNDA:0,_RNvMs_NtNtNtCs41oluKY1Omx_8airplay28protocol7pairing10auth_setupNtB4_9AuthSetup3new
FNDA:0,_RNvMs_NtNtNtCs41oluKY1Omx_8airplay28protocol7pairing10auth_setupNtB4_9AuthSetup5start
FNF:4
FNH:3
DA:16,0
DA:17,0
DA:18,0
DA:24,5
DA:25,5
DA:26,5
DA:27,5
DA:28,5
DA:35,5
DA:36,5
DA:37,5
DA:38,5
DA:39,5
DA:40,5
DA:61,5
DA:62,5
DA:63,0
DA:64,0
DA:65,0
DA:66,5
DA:69,5
DA:71,5
DA:72,5
DA:73,5
DA:74,5
DA:75,0
DA:77,0
DA:78,0
DA:80,0
DA:81,0
DA:82,0
DA:83,0
DA:84,0
DA:85,0
DA:87,0
DA:88,0
DA:89,0
DA:90,0
DA:91,0
DA:92,0
DA:93,0
DA:95,0
DA:96,0
DA:97,0
DA:98,0
DA:99,0
DA:101,0
DA:102,5
BRF:0
BRH:0
LF:48
LH:20
end_of_record
SF:/app/src/protocol/pairing/mod.rs
FN:84,_RNvMNtNtCslUrB7RWuRKg_8airplay28protocol7pairingNtB2_11SessionKeys9decryptor
FN:75,_RNvMNtNtCslUrB7RWuRKg_8airplay28protocol7pairingNtB2_11SessionKeys9encryptor
FN:149,_RNvMs_NtNtCslUrB7RWuRKg_8airplay28protocol7pairingNtB4_16EncryptedChannel14encrypt_framed
FN:103,_RNvMs_NtNtCslUrB7RWuRKg_8airplay28protocol7pairingNtB4_16EncryptedChannel3new
FN:135,_RNvMs_NtNtCslUrB7RWuRKg_8airplay28protocol7pairingNtB4_16EncryptedChannel7decrypt
FN:121,_RNvMs_NtNtCslUrB7RWuRKg_8airplay28protocol7pairingNtB4_16EncryptedChannel7encrypt
FN:84,_RNvMNtNtCs41oluKY1Omx_8airplay28protocol7pairingNtB2_11SessionKeys9decryptor
FN:75,_RNvMNtNtCs41oluKY1Omx_8airplay28protocol7pairingNtB2_11SessionKeys9encryptor
FN:149,_RNvMs_NtNtCs41oluKY1Omx_8airplay28protocol7pairingNtB4_16EncryptedChannel14encrypt_framed
FN:103,_RNvMs_NtNtCs41oluKY1Omx_8airplay28protocol7pairingNtB4_16EncryptedChannel3new
FN:135,_RNvMs_NtNtCs41oluKY1Omx_8airplay28protocol7pairingNtB4_16EncryptedChannel7decrypt
FN:121,_RNvMs_NtNtCs41oluKY1Omx_8airplay28protocol7pairingNtB4_16EncryptedChannel7encrypt
FNDA:0,_RNvMNtNtCslUrB7RWuRKg_8airplay28protocol7pairingNtB2_11SessionKeys9decryptor
FNDA:0,_RNvMNtNtCslUrB7RWuRKg_8airplay28protocol7pairingNtB2_11SessionKeys9encryptor
FNDA:0,_RNvMs_NtNtCslUrB7RWuRKg_8airplay28protocol7pairingNtB4_16EncryptedChannel14encrypt_framed
FNDA:0,_RNvMs_NtNtCslUrB7RWuRKg_8airplay28protocol7pairingNtB4_16EncryptedChannel3new
FNDA:0,_RNvMs_NtNtCslUrB7RWuRKg_8airplay28protocol7pairingNtB4_16EncryptedChannel7decrypt
FNDA:0,_RNvMs_NtNtCslUrB7RWuRKg_8airplay28protocol7pairingNtB4_16EncryptedChannel7encrypt
FNDA:0,_RNvMNtNtCs41oluKY1Omx_8airplay28protocol7pairingNtB2_11SessionKeys9decryptor
FNDA:0,_RNvMNtNtCs41oluKY1Omx_8airplay28protocol7pairingNtB2_11SessionKeys9encryptor
FNDA:0,_RNvMs_NtNtCs41oluKY1Omx_8airplay28protocol7pairingNtB4_16EncryptedChannel14encrypt_framed
FNDA:0,_RNvMs_NtNtCs41oluKY1Omx_8airplay28protocol7pairingNtB4_16EncryptedChannel3new
FNDA:0,_RNvMs_NtNtCs41oluKY1Omx_8airplay28protocol7pairingNtB4_16EncryptedChannel7decrypt
FNDA:0,_RNvMs_NtNtCs41oluKY1Omx_8airplay28protocol7pairingNtB4_16EncryptedChannel7encrypt
FNF:6
FNH:0
DA:75,0
DA:76,0
DA:77,0
DA:84,0
DA:85,0
DA:86,0
DA:103,0
DA:104,0
DA:105,0
DA:106,0
DA:107,0
DA:108,0
DA:109,0
DA:110,0
DA:111,0
DA:112,0
DA:113,0
DA:114,0
DA:121,0
DA:122,0
DA:123,0
DA:124,0
DA:125,0
DA:126,0
DA:127,0
DA:128,0
DA:135,0
DA:136,0
DA:137,0
DA:138,0
DA:139,0
DA:140,0
DA:141,0
DA:142,0
DA:149,0
DA:150,0
DA:151,0
DA:152,0
DA:153,0
DA:154,0
DA:155,0
DA:156,0
DA:157,0
DA:158,0
DA:160,0
DA:162,0
DA:163,0
DA:164,0
DA:165,0
DA:166,0
BRF:0
BRH:0
LF:50
LH:0
end_of_record
SF:/app/src/protocol/pairing/setup.rs
FN:342,_RNCNvMs_NtNtNtCslUrB7RWuRKg_8airplay28protocol7pairing5setupNtB6_9PairSetup10process_m60Bc_
FN:345,_RNCNvMs_NtNtNtCslUrB7RWuRKg_8airplay28protocol7pairing5setupNtB6_9PairSetup10process_m6s_0Bc_
FN:109,_RNvMs_NtNtNtCslUrB7RWuRKg_8airplay28protocol7pairing5setupNtB4_9PairSetup10process_m2
FN:174,_RNvMs_NtNtNtCslUrB7RWuRKg_8airplay28protocol7pairing5setupNtB4_9PairSetup10process_m4
FN:286,_RNvMs_NtNtNtCslUrB7RWuRKg_8airplay28protocol7pairing5setupNtB4_9PairSetup10process_m6
FN:71,_RNvMs_NtNtNtCslUrB7RWuRKg_8airplay28protocol7pairing5setupNtB4_9PairSetup12set_username
FN:66,_RNvMs_NtNtNtCslUrB7RWuRKg_8airplay28protocol7pairing5setupNtB4_9PairSetup13set_transient
FN:377,_RNvMs_NtNtNtCslUrB7RWuRKg_8airplay28protocol7pairing5setupNtB4_9PairSetup14our_public_key
FN:383,_RNvMs_NtNtNtCslUrB7RWuRKg_8airplay28protocol7pairing5setupNtB4_9PairSetup14our_secret_key
FN:389,_RNvMs_NtNtNtCslUrB7RWuRKg_8airplay28protocol7pairing5setupNtB4_9PairSetup17device_public_key
FN:44,_RNvMs_NtNtNtCslUrB7RWuRKg_8airplay28protocol7pairing5setupNtB4_9PairSetup3new
FN:398,_RNvMs_NtNtNtCslUrB7RWuRKg_8airplay28protocol7pairing5setupNtB4_9PairSetup4step
FN:80,_RNvMs_NtNtNtCslUrB7RWuRKg_8airplay28protocol7pairing5setupNtB4_9PairSetup5start
FN:61,_RNvMs_NtNtNtCslUrB7RWuRKg_8airplay28protocol7pairing5setupNtB4_9PairSetup7set_pin
FN:36,_RNvXNtNtNtCslUrB7RWuRKg_8airplay28protocol7pairing5setupNtB2_9PairSetupNtNtCs3XFJfFEDSOQ_4core7default7Default7default
FN:398,_RNvMs_NtNtNtCs41oluKY1Omx_8airplay28protocol7pairing5setupNtB4_9PairSetup4step
FN:36,_RNvXNtNtNtCs41oluKY1Omx_8airplay28protocol7pairing5setupNtB2_9PairSetupNtNtCs3XFJfFEDSOQ_4core7default7Default7default
FN:109,_RNvMs_NtNtNtCs41oluKY1Omx_8airplay28protocol7pairing5setupNtB4_9PairSetup10process_m2
FN:174,_RNvMs_NtNtNtCs41oluKY1Omx_8airplay28protocol7pairing5setupNtB4_9PairSetup10process_m4
FN:286,_RNvMs_NtNtNtCs41oluKY1Omx_8airplay28protocol7pairing5setupNtB4_9PairSetup10process_m6
FN:71,_RNvMs_NtNtNtCs41oluKY1Omx_8airplay28protocol7pairing5setupNtB4_9PairSetup12set_username
FN:66,_RNvMs_NtNtNtCs41oluKY1Omx_8airplay28protocol7pairing5setupNtB4_9PairSetup13set_transient
FN:377,_RNvMs_NtNtNtCs41oluKY1Omx_8airplay28protocol7pairing5setupNtB4_9PairSetup14our_public_key
FN:383,_RNvMs_NtNtNtCs41oluKY1Omx_8airplay28protocol7pairing5setupNtB4_9PairSetup14our_secret_key
FN:389,_RNvMs_NtNtNtCs41oluKY1Omx_8airplay28protocol7pairing5setupNtB4_9PairSetup17device_public_key
FN:44,_RNvMs_NtNtNtCs41oluKY1Omx_8airplay28protocol7pairing5setupNtB4_9PairSetup3new
FN:80,_RNvMs_NtNtNtCs41oluKY1Omx_8airplay28protocol7pairing5setupNtB4_9PairSetup5start
FN:61,_RNvMs_NtNtNtCs41oluKY1Omx_8airplay28protocol7pairing5setupNtB4_9PairSetup7set_pin
FN:342,_RNCNvMs_NtNtNtCs41oluKY1Omx_8airplay28protocol7pairing5setupNtB6_9PairSetup10process_m60Bc_
FN:345,_RNCNvMs_NtNtNtCs41oluKY1Omx_8airplay28protocol7pairing5setupNtB6_9PairSetup10process_m6s_0Bc_
FNDA:0,_RNCNvMs_NtNtNtCslUrB7RWuRKg_8airplay28protocol7pairing5setupNtB6_9PairSetup10process_m60Bc_
FNDA:0,_RNCNvMs_NtNtNtCslUrB7RWuRKg_8airplay28protocol7pairing5setupNtB6_9PairSetup10process_m6s_0Bc_
FNDA:5,_RNvMs_NtNtNtCslUrB7RWuRKg_8airplay28protocol7pairing5setupNtB4_9PairSetup10process_m2
FNDA:5,_RNvMs_NtNtNtCslUrB7RWuRKg_8airplay28protocol7pairing5setupNtB4_9PairSetup10process_m4
FNDA:0,_RNvMs_NtNtNtCslUrB7RWuRKg_8airplay28protocol7pairing5setupNtB4_9PairSetup10process_m6
FNDA:5,_RNvMs_NtNtNtCslUrB7RWuRKg_8airplay28protocol7pairing5setupNtB4_9PairSetup12set_username
FNDA:5,_RNvMs_NtNtNtCslUrB7RWuRKg_8airplay28protocol7pairing5setupNtB4_9PairSetup13set_transient
FNDA:0,_RNvMs_NtNtNtCslUrB7RWuRKg_8airplay28protocol7pairing5setupNtB4_9PairSetup14our_public_key
FNDA:0,_RNvMs_NtNtNtCslUrB7RWuRKg_8airplay28protocol7pairing5setupNtB4_9PairSetup14our_secret_key
FNDA:0,_RNvMs_NtNtNtCslUrB7RWuRKg_8airplay28protocol7pairing5setupNtB4_9PairSetup17device_public_key
FNDA:5,_RNvMs_NtNtNtCslUrB7RWuRKg_8airplay28protocol7pairing5setupNtB4_9PairSetup3new
FNDA:0,_RNvMs_NtNtNtCslUrB7RWuRKg_8airplay28protocol7pairing5setupNtB4_9PairSetup4step
FNDA:5,_RNvMs_NtNtNtCslUrB7RWuRKg_8airplay28protocol7pairing5setupNtB4_9PairSetup5start
FNDA:5,_RNvMs_NtNtNtCslUrB7RWuRKg_8airplay28protocol7pairing5setupNtB4_9PairSetup7set_pin
FNDA:0,_RNvXNtNtNtCslUrB7RWuRKg_8airplay28protocol7pairing5setupNtB2_9PairSetupNtNtCs3XFJfFEDSOQ_4core7default7Default7default
FNDA:0,_RNvMs_NtNtNtCs41oluKY1Omx_8airplay28protocol7pairing5setupNtB4_9PairSetup4step
FNDA:0,_RNvXNtNtNtCs41oluKY1Omx_8airplay28protocol7pairing5setupNtB2_9PairSetupNtNtCs3XFJfFEDSOQ_4core7default7Default7default
FNDA:3,_RNvMs_NtNtNtCs41oluKY1Omx_8airplay28protocol7pairing5setupNtB4_9PairSetup10process_m2
FNDA:2,_RNvMs_NtNtNtCs41oluKY1Omx_8airplay28protocol7pairing5setupNtB4_9PairSetup10process_m4
FNDA:2,_RNvMs_NtNtNtCs41oluKY1Omx_8airplay28protocol7pairing5setupNtB4_9PairSetup10process_m6
FNDA:2,_RNvMs_NtNtNtCs41oluKY1Omx_8airplay28protocol7pairing5setupNtB4_9PairSetup12set_username
FNDA:0,_RNvMs_NtNtNtCs41oluKY1Omx_8airplay28protocol7pairing5setupNtB4_9PairSetup13set_transient
FNDA:0,_RNvMs_NtNtNtCs41oluKY1Omx_8airplay28protocol7pairing5setupNtB4_9PairSetup14our_public_key
FNDA:0,_RNvMs_NtNtNtCs41oluKY1Omx_8airplay28protocol7pairing5setupNtB4_9PairSetup14our_secret_key
FNDA:0,_RNvMs_NtNtNtCs41oluKY1Omx_8airplay28protocol7pairing5setupNtB4_9PairSetup17device_public_key
FNDA:3,_RNvMs_NtNtNtCs41oluKY1Omx_8airplay28protocol7pairing5setupNtB4_9PairSetup3new
FNDA:3,_RNvMs_NtNtNtCs41oluKY1Omx_8airplay28protocol7pairing5setupNtB4_9PairSetup5start
FNDA:3,_RNvMs_NtNtNtCs41oluKY1Omx_8airplay28protocol7pairing5setupNtB4_9PairSetup7set_pin
FNDA:0,_RNCNvMs_NtNtNtCs41oluKY1Omx_8airplay28protocol7pairing5setupNtB6_9PairSetup10process_m60Bc_
FNDA:0,_RNCNvMs_NtNtNtCs41oluKY1Omx_8airplay28protocol7pairing5setupNtB6_9PairSetup10process_m6s_0Bc_
FNF:15
FNH:8
DA:36,0
DA:37,0
DA:38,0
DA:44,8
DA:45,8
DA:47,8
DA:48,8
DA:49,8
DA:50,8
DA:51,8
DA:52,8
DA:53,8
DA:54,8
DA:55,8
DA:56,8
DA:57,8
DA:58,8
DA:61,8
DA:62,8
DA:63,8
DA:66,5
DA:67,5
DA:68,5
DA:71,7
DA:72,7
DA:73,7
DA:80,8
DA:81,8
DA:82,0
DA:83,0
DA:84,0
DA:85,0
DA:86,8
DA:89,8
DA:90,8
DA:91,8
DA:93,8
DA:94,5
DA:95,5
DA:96,5
DA:98,8
DA:100,8
DA:101,8
DA:102,8
DA:109,8
DA:110,8
DA:113,8
DA:114,1
DA:115,1
DA:116,7
DA:118,7
DA:119,7
DA:120,0
DA:121,0
DA:122,0
DA:123,0
DA:124,7
DA:127,7
DA:128,7
DA:131,7
DA:132,7
DA:133,7
DA:136,7
DA:137,7
DA:139,7
DA:140,7
DA:141,7
DA:143,7
DA:144,7
DA:145,7
DA:146,7
DA:147,7
DA:148,0
DA:150,7
DA:154,7
DA:155,7
DA:156,7
DA:157,7
DA:158,7
DA:161,7
DA:163,7
DA:164,7
DA:166,7
DA:167,8
DA:174,7
DA:175,7
DA:177,7
DA:178,0
DA:179,0
DA:180,0
DA:181,0
DA:182,0
DA:183,7
DA:185,7
DA:186,7
DA:187,0
DA:188,0
DA:189,0
DA:190,0
DA:191,7
DA:194,7
DA:196,7
DA:197,7
DA:198,7
DA:199,7
DA:200,7
DA:201,7
DA:202,7
DA:204,7
DA:205,7
DA:206,7
DA:208,7
DA:210,7
DA:212,5
DA:213,5
DA:214,5
DA:217,5
DA:218,5
DA:219,5
DA:221,5
DA:222,5
DA:223,5
DA:224,5
DA:225,5
DA:226,5
DA:227,5
DA:229,5
DA:230,5
DA:231,5
DA:232,2
DA:235,2
DA:236,2
DA:239,2
DA:240,2
DA:241,2
DA:242,2
DA:244,2
DA:246,2
DA:247,2
DA:249,2
DA:250,2
DA:251,2
DA:252,2
DA:253,2
DA:255,2
DA:256,2
DA:259,2
DA:263,2
DA:264,2
DA:265,2
DA:267,2
DA:270,2
DA:271,2
DA:272,2
DA:273,2
DA:275,2
DA:276,2
DA:278,2
DA:279,7
DA:286,2
DA:287,2
DA:289,2
DA:290,0
DA:291,0
DA:292,2
DA:294,2
DA:295,2
DA:296,0
DA:297,0
DA:298,0
DA:299,0
DA:300,2
DA:303,2
DA:305,2
DA:306,2
DA:307,2
DA:308,2
DA:309,2
DA:310,2
DA:311,2
DA:313,2
DA:314,2
DA:316,2
DA:319,2
DA:320,2
DA:321,2
DA:323,2
DA:326,2
DA:327,2
DA:328,2
DA:329,2
DA:332,2
DA:333,2
DA:335,2
DA:336,2
DA:337,2
DA:338,2
DA:339,2
DA:341,2
DA:342,2
DA:344,2
DA:345,2
DA:347,2
DA:348,2
DA:349,2
DA:351,1
DA:352,1
DA:355,1
DA:356,1
DA:357,1
DA:360,1
DA:361,1
DA:362,1
DA:364,1
DA:365,1
DA:366,1
DA:367,1
DA:368,1
DA:369,1
DA:370,1
DA:372,1
DA:373,2
DA:377,0
DA:378,0
DA:379,0
DA:383,0
DA:384,0
DA:385,0
DA:389,0
DA:390,0
DA:391,0
DA:398,0
DA:399,0
DA:401,0
DA:402,0
DA:405,0
DA:406,0
DA:407,0
DA:408,0
DA:409,0
DA:412,0
DA:413,0
DA:414,0
DA:415,0
DA:416,0
DA:419,0
DA:420,0
DA:421,0
DA:422,0
DA:423,0
DA:425,0
DA:426,0
DA:427,0
DA:428,0
DA:429,0
DA:430,0
DA:431,0
DA:432,0
DA:433,0
DA:435,0
BRF:0
BRH:0
LF:262
LH:179
end_of_record
SF:/app/src/protocol/pairing/storage.rs
FN:106,_RINvMs_NtNtNtCslUrB7RWuRKg_8airplay28protocol7pairing7storageNtB5_11FileStorage3newpEBb_
FN:106,_RNCINvMs_NtNtNtCslUrB7RWuRKg_8airplay28protocol7pairing7storageNtB7_11FileStorage3newpE0Bd_
FN:132,_RNCNCNvMs_NtNtNtCslUrB7RWuRKg_8airplay28protocol7pairing7storageNtB8_11FileStorage8load_all00Be_
FN:135,_RNCNCNvMs_NtNtNtCslUrB7RWuRKg_8airplay28protocol7pairing7storageNtB8_11FileStorage8load_all0s0_0Be_
FN:134,_RNCNCNvMs_NtNtNtCslUrB7RWuRKg_8airplay28protocol7pairing7storageNtB8_11FileStorage8load_all0s_0Be_
FN:122,_RNCNvMs_NtNtNtCslUrB7RWuRKg_8airplay28protocol7pairing7storageNtB6_11FileStorage8load_all0Bc_
FN:144,_RNCNCNvMs_NtNtNtCslUrB7RWuRKg_8airplay28protocol7pairing7storageNtB8_11FileStorage8save_all00Be_
FN:147,_RNCNCNvMs_NtNtNtCslUrB7RWuRKg_8airplay28protocol7pairing7storageNtB8_11FileStorage8save_all0s0_0Be_
FN:146,_RNCNCNvMs_NtNtNtCslUrB7RWuRKg_8airplay28protocol7pairing7storageNtB8_11FileStorage8save_all0s_0Be_
FN:140,_RNCNvMs_NtNtNtCslUrB7RWuRKg_8airplay28protocol7pairing7storageNtB6_11FileStorage8save_all0Bc_
FN:67,_RNvMNtNtNtCslUrB7RWuRKg_8airplay28protocol7pairing7storageNtB2_13MemoryStorage3new
FN:120,_RNvMs_NtNtNtCslUrB7RWuRKg_8airplay28protocol7pairing7storageNtB4_11FileStorage8load_all
FN:140,_RNvMs_NtNtNtCslUrB7RWuRKg_8airplay28protocol7pairing7storageNtB4_11FileStorage8save_all
FN:88,_RNvXs8_NtNtNtCslUrB7RWuRKg_8airplay28protocol7pairing7storageNtB5_13MemoryStorageNtB5_14PairingStorage12list_devices
FN:74,_RNvXs8_NtNtNtCslUrB7RWuRKg_8airplay28protocol7pairing7storageNtB5_13MemoryStorageNtB5_14PairingStorage4load
FN:78,_RNvXs8_NtNtNtCslUrB7RWuRKg_8airplay28protocol7pairing7storageNtB5_13MemoryStorageNtB5_14PairingStorage4save
FN:83,_RNvXs8_NtNtNtCslUrB7RWuRKg_8airplay28protocol7pairing7storageNtB5_13MemoryStorageNtB5_14PairingStorage6remove
FN:170,_RNvXs9_NtNtNtCslUrB7RWuRKg_8airplay28protocol7pairing7storageNtB5_11FileStorageNtB5_14PairingStorage12list_devices
FN:156,_RNvXs9_NtNtNtCslUrB7RWuRKg_8airplay28protocol7pairing7storageNtB5_11FileStorageNtB5_14PairingStorage4load
FN:160,_RNvXs9_NtNtNtCslUrB7RWuRKg_8airplay28protocol7pairing7storageNtB5_11FileStorageNtB5_14PairingStorage4save
FN:165,_RNvXs9_NtNtNtCslUrB7RWuRKg_8airplay28protocol7pairing7storageNtB5_11FileStorageNtB5_14PairingStorage6remove
FN:106,_RINvMs_NtNtNtCs41oluKY1Omx_8airplay28protocol7pairing7storageNtB5_11FileStorage3newpEBb_
FN:106,_RNCINvMs_NtNtNtCs41oluKY1Omx_8airplay28protocol7pairing7storageNtB7_11FileStorage3newpE0Bd_
FN:132,_RNCNCNvMs_NtNtNtCs41oluKY1Omx_8airplay28protocol7pairing7storageNtB8_11FileStorage8load_all00Be_
FN:135,_RNCNCNvMs_NtNtNtCs41oluKY1Omx_8airplay28protocol7pairing7storageNtB8_11FileStorage8load_all0s0_0Be_
FN:134,_RNCNCNvMs_NtNtNtCs41oluKY1Omx_8airplay28protocol7pairing7storageNtB8_11FileStorage8load_all0s_0Be_
FN:144,_RNCNCNvMs_NtNtNtCs41oluKY1Omx_8airplay28protocol7pairing7storageNtB8_11FileStorage8save_all00Be_
FN:147,_RNCNCNvMs_NtNtNtCs41oluKY1Omx_8airplay28protocol7pairing7storageNtB8_11FileStorage8save_all0s0_0Be_
FN:146,_RNCNCNvMs_NtNtNtCs41oluKY1Omx_8airplay28protocol7pairing7storageNtB8_11FileStorage8save_all0s_0Be_
FN:122,_RNCNvMs_NtNtNtCs41oluKY1Omx_8airplay28protocol7pairing7storageNtB6_11FileStorage8load_all0Bc_
FN:140,_RNCNvMs_NtNtNtCs41oluKY1Omx_8airplay28protocol7pairing7storageNtB6_11FileStorage8save_all0Bc_
FN:67,_RNvMNtNtNtCs41oluKY1Omx_8airplay28protocol7pairing7storageNtB2_13MemoryStorage3new
FN:120,_RNvMs_NtNtNtCs41oluKY1Omx_8airplay28protocol7pairing7storageNtB4_11FileStorage8load_all
FN:140,_RNvMs_NtNtNtCs41oluKY1Omx_8airplay28protocol7pairing7storageNtB4_11FileStorage8save_all
FN:88,_RNvXs8_NtNtNtCs41oluKY1Omx_8airplay28protocol7pairing7storageNtB5_13MemoryStorageNtB5_14PairingStorage12list_devices
FN:74,_RNvXs8_NtNtNtCs41oluKY1Omx_8airplay28protocol7pairing7storageNtB5_13MemoryStorageNtB5_14PairingStorage4load
FN:78,_RNvXs8_NtNtNtCs41oluKY1Omx_8airplay28protocol7pairing7storageNtB5_13MemoryStorageNtB5_14PairingStorage4save
FN:83,_RNvXs8_NtNtNtCs41oluKY1Omx_8airplay28protocol7pairing7storageNtB5_13MemoryStorageNtB5_14PairingStorage6remove
FN:170,_RNvXs9_NtNtNtCs41oluKY1Omx_8airplay28protocol7pairing7storageNtB5_11FileStorageNtB5_14PairingStorage12list_devices
FN:156,_RNvXs9_NtNtNtCs41oluKY1Omx_8airplay28protocol7pairing7storageNtB5_11FileStorageNtB5_14PairingStorage4load
FN:160,_RNvXs9_NtNtNtCs41oluKY1Omx_8airplay28protocol7pairing7storageNtB5_11FileStorageNtB5_14PairingStorage4save
FN:165,_RNvXs9_NtNtNtCs41oluKY1Omx_8airplay28protocol7pairing7storageNtB5_11FileStorageNtB5_14PairingStorage6remove
FNDA:0,_RINvMs_NtNtNtCslUrB7RWuRKg_8airplay28protocol7pairing7storageNtB5_11FileStorage3newpEBb_
FNDA:0,_RNCINvMs_NtNtNtCslUrB7RWuRKg_8airplay28protocol7pairing7storageNtB7_11FileStorage3newpE0Bd_
FNDA:0,_RNCNCNvMs_NtNtNtCslUrB7RWuRKg_8airplay28protocol7pairing7storageNtB8_11FileStorage8load_all00Be_
FNDA:0,_RNCNCNvMs_NtNtNtCslUrB7RWuRKg_8airplay28protocol7pairing7storageNtB8_11FileStorage8load_all0s0_0Be_
FNDA:0,_RNCNCNvMs_NtNtNtCslUrB7RWuRKg_8airplay28protocol7pairing7storageNtB8_11FileStorage8load_all0s_0Be_
FNDA:0,_RNCNvMs_NtNtNtCslUrB7RWuRKg_8airplay28protocol7pairing7storageNtB6_11FileStorage8load_all0Bc_
FNDA:0,_RNCNCNvMs_NtNtNtCslUrB7RWuRKg_8airplay28protocol7pairing7storageNtB8_11FileStorage8save_all00Be_
FNDA:0,_RNCNCNvMs_NtNtNtCslUrB7RWuRKg_8airplay28protocol7pairing7storageNtB8_11FileStorage8save_all0s0_0Be_
FNDA:0,_RNCNCNvMs_NtNtNtCslUrB7RWuRKg_8airplay28protocol7pairing7storageNtB8_11FileStorage8save_all0s_0Be_
FNDA:0,_RNCNvMs_NtNtNtCslUrB7RWuRKg_8airplay28protocol7pairing7storageNtB6_11FileStorage8save_all0Bc_
FNDA:0,_RNvMNtNtNtCslUrB7RWuRKg_8airplay28protocol7pairing7storageNtB2_13MemoryStorage3new
FNDA:0,_RNvMs_NtNtNtCslUrB7RWuRKg_8airplay28protocol7pairing7storageNtB4_11FileStorage8load_all
FNDA:0,_RNvMs_NtNtNtCslUrB7RWuRKg_8airplay28protocol7pairing7storageNtB4_11FileStorage8save_all
FNDA:0,_RNvXs8_NtNtNtCslUrB7RWuRKg_8airplay28protocol7pairing7storageNtB5_13MemoryStorageNtB5_14PairingStorage12list_devices
FNDA:0,_RNvXs8_NtNtNtCslUrB7RWuRKg_8airplay28protocol7pairing7storageNtB5_13MemoryStorageNtB5_14PairingStorage4load
FNDA:0,_RNvXs8_NtNtNtCslUrB7RWuRKg_8airplay28protocol7pairing7storageNtB5_13MemoryStorageNtB5_14PairingStorage4save
FNDA:0,_RNvXs8_NtNtNtCslUrB7RWuRKg_8airplay28protocol7pairing7storageNtB5_13MemoryStorageNtB5_14PairingStorage6remove
